
minishell:	file format Mach-O 64-bit x86-64


Disassembly of section __TEXT,__text:

0000000100003980 _fun:
100003980: 55                          	pushq	%rbp
100003981: 48 89 e5                    	movq	%rsp, %rbp
100003984: 48 8d 3d 4b bd 00 00        	leaq	48459(%rip), %rdi
10000398b: e8 ec bb 00 00              	callq	48108 <dyld_stub_binder+0x10000f57c>
100003990: 5d                          	popq	%rbp
100003991: c3                          	retq
100003992: 66 2e 0f 1f 84 00 00 00 00 00       	nopw	%cs:(%rax,%rax)
10000399c: 0f 1f 40 00                 	nopl	(%rax)

00000001000039a0 _env_dup:
1000039a0: 55                          	pushq	%rbp
1000039a1: 48 89 e5                    	movq	%rsp, %rbp
1000039a4: 48 83 ec 20                 	subq	$32, %rsp
1000039a8: 48 89 7d f8                 	movq	%rdi, -8(%rbp)
1000039ac: 48 89 75 f0                 	movq	%rsi, -16(%rbp)
1000039b0: bf 10 00 00 00              	movl	$16, %edi
1000039b5: e8 7a bb 00 00              	callq	47994 <dyld_stub_binder+0x10000f534>
1000039ba: 48 89 45 f8                 	movq	%rax, -8(%rbp)
1000039be: 48 8b 45 f8                 	movq	-8(%rbp), %rax
1000039c2: 66 c7 40 08 00 00           	movw	$0, 8(%rax)
1000039c8: 48 8b 45 f8                 	movq	-8(%rbp), %rax
1000039cc: 48 c7 00 00 00 00 00        	movq	$0, (%rax)
1000039d3: 31 c0                       	xorl	%eax, %eax
1000039d5: 48 83 7d f0 00              	cmpq	$0, -16(%rbp)
1000039da: 88 45 ef                    	movb	%al, -17(%rbp)
1000039dd: 0f 84 0e 00 00 00           	je	14 <_env_dup+0x51>
1000039e3: 48 8b 45 f0                 	movq	-16(%rbp), %rax
1000039e7: 48 83 38 00                 	cmpq	$0, (%rax)
1000039eb: 0f 95 c1                    	setne	%cl
1000039ee: 88 4d ef                    	movb	%cl, -17(%rbp)
1000039f1: 8a 45 ef                    	movb	-17(%rbp), %al
1000039f4: a8 01                       	testb	$1, %al
1000039f6: 0f 85 05 00 00 00           	jne	5 <_env_dup+0x61>
1000039fc: e9 58 00 00 00              	jmp	88 <_env_dup+0xb9>
100003a01: 48 8b 7d f8                 	movq	-8(%rbp), %rdi
100003a05: 48 8b 45 f0                 	movq	-16(%rbp), %rax
100003a09: 48 8b 00                    	movq	(%rax), %rax
100003a0c: 48 89 7d e0                 	movq	%rdi, -32(%rbp)
100003a10: 48 89 c7                    	movq	%rax, %rdi
100003a13: e8 28 b1 00 00              	callq	45352 <_ft_strdup>
100003a18: 48 89 c7                    	movq	%rax, %rdi
100003a1b: e8 d0 b8 00 00              	callq	47312 <_ft_lstnew>
100003a20: 48 8b 7d e0                 	movq	-32(%rbp), %rdi
100003a24: 48 89 c6                    	movq	%rax, %rsi
100003a27: e8 64 b9 00 00              	callq	47460 <_ft_lstadd_back>
100003a2c: 48 83 7d f8 00              	cmpq	$0, -8(%rbp)
100003a31: 0f 84 0f 00 00 00           	je	15 <_env_dup+0xa6>
100003a37: 48 8b 45 f8                 	movq	-8(%rbp), %rax
100003a3b: 0f bf 48 08                 	movswl	8(%rax), %ecx
100003a3f: 83 c1 01                    	addl	$1, %ecx
100003a42: 66 89 48 08                 	movw	%cx, 8(%rax)
100003a46: 48 8b 45 f0                 	movq	-16(%rbp), %rax
100003a4a: 48 05 08 00 00 00           	addq	$8, %rax
100003a50: 48 89 45 f0                 	movq	%rax, -16(%rbp)
100003a54: e9 7a ff ff ff              	jmp	-134 <_env_dup+0x33>
100003a59: 48 8b 45 f8                 	movq	-8(%rbp), %rax
100003a5d: 48 83 c4 20                 	addq	$32, %rsp
100003a61: 5d                          	popq	%rbp
100003a62: c3                          	retq
100003a63: 66 2e 0f 1f 84 00 00 00 00 00       	nopw	%cs:(%rax,%rax)
100003a6d: 0f 1f 00                    	nopl	(%rax)

0000000100003a70 _main:
100003a70: 55                          	pushq	%rbp
100003a71: 48 89 e5                    	movq	%rsp, %rbp
100003a74: 48 83 ec 30                 	subq	$48, %rsp
100003a78: c7 45 fc 00 00 00 00        	movl	$0, -4(%rbp)
100003a7f: 89 7d f8                    	movl	%edi, -8(%rbp)
100003a82: 48 89 75 f0                 	movq	%rsi, -16(%rbp)
100003a86: 48 89 55 e8                 	movq	%rdx, -24(%rbp)
100003a8a: 48 8d 3d ef fe ff ff        	leaq	-273(%rip), %rdi
100003a91: e8 56 ba 00 00              	callq	47702 <dyld_stub_binder+0x10000f4ec>
100003a96: 48 c7 45 e0 00 00 00 00     	movq	$0, -32(%rbp)
100003a9e: 48 8b 7d e0                 	movq	-32(%rbp), %rdi
100003aa2: 48 8b 75 e8                 	movq	-24(%rbp), %rsi
100003aa6: 89 45 dc                    	movl	%eax, -36(%rbp)
100003aa9: e8 f2 fe ff ff              	callq	-270 <_env_dup>
100003aae: 31 f6                       	xorl	%esi, %esi
100003ab0: 48 89 45 e0                 	movq	%rax, -32(%rbp)
100003ab4: 48 8b 7d e0                 	movq	-32(%rbp), %rdi
100003ab8: e8 33 3b 00 00              	callq	15155 <_set__get_option_variables>
100003abd: 48 8b 7d e0                 	movq	-32(%rbp), %rdi
100003ac1: 48 89 45 d0                 	movq	%rax, -48(%rbp)
100003ac5: b0 00                       	movb	$0, %al
100003ac7: e8 e4 06 00 00              	callq	1764 <_read_line>
100003acc: 31 c0                       	xorl	%eax, %eax
100003ace: 48 83 c4 30                 	addq	$48, %rsp
100003ad2: 5d                          	popq	%rbp
100003ad3: c3                          	retq
100003ad4: 90                          	nop
100003ad5: 90                          	nop
100003ad6: 90                          	nop
100003ad7: 90                          	nop
100003ad8: 90                          	nop
100003ad9: 90                          	nop
100003ada: 90                          	nop
100003adb: 90                          	nop
100003adc: 90                          	nop
100003add: 90                          	nop
100003ade: 90                          	nop
100003adf: 90                          	nop

0000000100003ae0 _execute_line:
100003ae0: 55                          	pushq	%rbp
100003ae1: 48 89 e5                    	movq	%rsp, %rbp
100003ae4: 48 83 ec 20                 	subq	$32, %rsp
100003ae8: 48 8b 05 11 c5 00 00        	movq	50449(%rip), %rax
100003aef: 48 8b 00                    	movq	(%rax), %rax
100003af2: 48 89 45 f8                 	movq	%rax, -8(%rbp)
100003af6: 48 89 7d e0                 	movq	%rdi, -32(%rbp)
100003afa: 48 8b 45 e0                 	movq	-32(%rbp), %rax
100003afe: 83 38 04                    	cmpl	$4, (%rax)
100003b01: 0f 85 19 00 00 00           	jne	25 <_execute_line+0x40>
100003b07: 31 f6                       	xorl	%esi, %esi
100003b09: 48 8d 4d ec                 	leaq	-20(%rbp), %rcx
100003b0d: 48 8b 7d e0                 	movq	-32(%rbp), %rdi
100003b11: ba 01 00 00 00              	movl	$1, %edx
100003b16: e8 65 88 00 00              	callq	34917 <_and_executer>
100003b1b: e9 d2 00 00 00              	jmp	210 <_execute_line+0x112>
100003b20: 48 8b 45 e0                 	movq	-32(%rbp), %rax
100003b24: 83 38 05                    	cmpl	$5, (%rax)
100003b27: 0f 85 19 00 00 00           	jne	25 <_execute_line+0x66>
100003b2d: 31 f6                       	xorl	%esi, %esi
100003b2f: 48 8d 4d ec                 	leaq	-20(%rbp), %rcx
100003b33: 48 8b 7d e0                 	movq	-32(%rbp), %rdi
100003b37: ba 01 00 00 00              	movl	$1, %edx
100003b3c: e8 3f 8e 00 00              	callq	36415 <_or_executer>
100003b41: e9 a7 00 00 00              	jmp	167 <_execute_line+0x10d>
100003b46: 48 8b 45 e0                 	movq	-32(%rbp), %rax
100003b4a: 83 38 02                    	cmpl	$2, (%rax)
100003b4d: 0f 85 19 00 00 00           	jne	25 <_execute_line+0x8c>
100003b53: 31 f6                       	xorl	%esi, %esi
100003b55: 48 8d 4d ec                 	leaq	-20(%rbp), %rcx
100003b59: 48 8b 7d e0                 	movq	-32(%rbp), %rdi
100003b5d: ba 01 00 00 00              	movl	$1, %edx
100003b62: e8 d9 94 00 00              	callq	38105 <_redirect_executer>
100003b67: e9 7c 00 00 00              	jmp	124 <_execute_line+0x108>
100003b6c: 48 8b 45 e0                 	movq	-32(%rbp), %rax
100003b70: 83 38 01                    	cmpl	$1, (%rax)
100003b73: 0f 85 19 00 00 00           	jne	25 <_execute_line+0xb2>
100003b79: 31 f6                       	xorl	%esi, %esi
100003b7b: 48 8d 4d ec                 	leaq	-20(%rbp), %rcx
100003b7f: 48 8b 7d e0                 	movq	-32(%rbp), %rdi
100003b83: ba 01 00 00 00              	movl	$1, %edx
100003b88: e8 03 8c 00 00              	callq	35843 <_cmd_executer>
100003b8d: e9 51 00 00 00              	jmp	81 <_execute_line+0x103>
100003b92: 48 8b 45 e0                 	movq	-32(%rbp), %rax
100003b96: 83 38 03                    	cmpl	$3, (%rax)
100003b99: 0f 85 19 00 00 00           	jne	25 <_execute_line+0xd8>
100003b9f: 31 f6                       	xorl	%esi, %esi
100003ba1: 48 8d 4d ec                 	leaq	-20(%rbp), %rcx
100003ba5: 48 8b 7d e0                 	movq	-32(%rbp), %rdi
100003ba9: ba 01 00 00 00              	movl	$1, %edx
100003bae: e8 bd 98 00 00              	callq	39101 <_builtin_executer>
100003bb3: e9 26 00 00 00              	jmp	38 <_execute_line+0xfe>
100003bb8: 48 8b 45 e0                 	movq	-32(%rbp), %rax
100003bbc: 83 38 06                    	cmpl	$6, (%rax)
100003bbf: 0f 85 14 00 00 00           	jne	20 <_execute_line+0xf9>
100003bc5: 31 f6                       	xorl	%esi, %esi
100003bc7: 48 8d 4d ec                 	leaq	-20(%rbp), %rcx
100003bcb: 48 8b 7d e0                 	movq	-32(%rbp), %rdi
100003bcf: ba 01 00 00 00              	movl	$1, %edx
100003bd4: e8 e7 90 00 00              	callq	37095 <_pipe_executer>
100003bd9: e9 00 00 00 00              	jmp	0 <_execute_line+0xfe>
100003bde: e9 00 00 00 00              	jmp	0 <_execute_line+0x103>
100003be3: e9 00 00 00 00              	jmp	0 <_execute_line+0x108>
100003be8: e9 00 00 00 00              	jmp	0 <_execute_line+0x10d>
100003bed: e9 00 00 00 00              	jmp	0 <_execute_line+0x112>
100003bf2: 48 8b 05 07 c4 00 00        	movq	50183(%rip), %rax
100003bf9: 48 8b 00                    	movq	(%rax), %rax
100003bfc: 48 8b 4d f8                 	movq	-8(%rbp), %rcx
100003c00: 48 39 c8                    	cmpq	%rcx, %rax
100003c03: 0f 85 06 00 00 00           	jne	6 <_execute_line+0x12f>
100003c09: 48 83 c4 20                 	addq	$32, %rsp
100003c0d: 5d                          	popq	%rbp
100003c0e: c3                          	retq
100003c0f: e8 c6 b8 00 00              	callq	47302 <dyld_stub_binder+0x10000f4da>
100003c14: 0f 0b                       	ud2
100003c16: 90                          	nop
100003c17: 90                          	nop
100003c18: 90                          	nop
100003c19: 90                          	nop
100003c1a: 90                          	nop
100003c1b: 90                          	nop
100003c1c: 90                          	nop
100003c1d: 90                          	nop
100003c1e: 90                          	nop
100003c1f: 90                          	nop

0000000100003c20 _find_files:
100003c20: 55                          	pushq	%rbp
100003c21: 48 89 e5                    	movq	%rsp, %rbp
100003c24: 48 83 ec 60                 	subq	$96, %rsp
100003c28: 48 89 7d f0                 	movq	%rdi, -16(%rbp)
100003c2c: 48 c7 45 d8 00 00 00 00     	movq	$0, -40(%rbp)
100003c34: 48 8d 3d ab ba 00 00        	leaq	47787(%rip), %rdi
100003c3b: e8 00 b9 00 00              	callq	47360 <dyld_stub_binder+0x10000f540>
100003c40: 48 89 45 e8                 	movq	%rax, -24(%rbp)
100003c44: 48 83 7d e8 00              	cmpq	$0, -24(%rbp)
100003c49: 0f 84 26 03 00 00           	je	806 <_find_files+0x355>
100003c4f: 48 8b 7d e8                 	movq	-24(%rbp), %rdi
100003c53: e8 06 b9 00 00              	callq	47366 <dyld_stub_binder+0x10000f55e>
100003c58: 48 89 45 e0                 	movq	%rax, -32(%rbp)
100003c5c: 48 83 7d e0 00              	cmpq	$0, -32(%rbp)
100003c61: 0f 84 05 03 00 00           	je	773 <_find_files+0x34c>
100003c67: c7 45 d4 00 00 00 00        	movl	$0, -44(%rbp)
100003c6e: c7 45 d0 00 00 00 00        	movl	$0, -48(%rbp)
100003c75: 48 8b 45 e0                 	movq	-32(%rbp), %rax
100003c79: 0f be 48 15                 	movsbl	21(%rax), %ecx
100003c7d: 83 f9 2e                    	cmpl	$46, %ecx
100003c80: 0f 85 0e 00 00 00           	jne	14 <_find_files+0x74>
100003c86: 48 8b 45 e0                 	movq	-32(%rbp), %rax
100003c8a: 80 78 16 00                 	cmpb	$0, 22(%rax)
100003c8e: 0f 84 51 00 00 00           	je	81 <_find_files+0xc5>
100003c94: 48 8b 45 e0                 	movq	-32(%rbp), %rax
100003c98: 0f be 48 15                 	movsbl	21(%rax), %ecx
100003c9c: 83 f9 2e                    	cmpl	$46, %ecx
100003c9f: 0f 85 1f 00 00 00           	jne	31 <_find_files+0xa4>
100003ca5: 48 8b 45 e0                 	movq	-32(%rbp), %rax
100003ca9: 0f be 48 16                 	movsbl	22(%rax), %ecx
100003cad: 83 f9 2e                    	cmpl	$46, %ecx
100003cb0: 0f 85 0e 00 00 00           	jne	14 <_find_files+0xa4>
100003cb6: 48 8b 45 e0                 	movq	-32(%rbp), %rax
100003cba: 80 78 17 00                 	cmpb	$0, 23(%rax)
100003cbe: 0f 84 21 00 00 00           	je	33 <_find_files+0xc5>
100003cc4: 48 8b 45 f0                 	movq	-16(%rbp), %rax
100003cc8: 0f be 08                    	movsbl	(%rax), %ecx
100003ccb: 83 f9 2e                    	cmpl	$46, %ecx
100003cce: 0f 84 23 00 00 00           	je	35 <_find_files+0xd7>
100003cd4: 48 8b 45 e0                 	movq	-32(%rbp), %rax
100003cd8: 0f be 48 15                 	movsbl	21(%rax), %ecx
100003cdc: 83 f9 2e                    	cmpl	$46, %ecx
100003cdf: 0f 85 12 00 00 00           	jne	18 <_find_files+0xd7>
100003ce5: 48 8b 7d e8                 	movq	-24(%rbp), %rdi
100003ce9: e8 70 b8 00 00              	callq	47216 <dyld_stub_binder+0x10000f55e>
100003cee: 48 89 45 e0                 	movq	%rax, -32(%rbp)
100003cf2: e9 65 ff ff ff              	jmp	-155 <_find_files+0x3c>
100003cf7: e9 00 00 00 00              	jmp	0 <_find_files+0xdc>
100003cfc: 48 8b 45 e0                 	movq	-32(%rbp), %rax
100003d00: 48 63 4d d4                 	movslq	-44(%rbp), %rcx
100003d04: 80 7c 08 15 00              	cmpb	$0, 21(%rax,%rcx)
100003d09: 0f 84 4b 02 00 00           	je	587 <_find_files+0x33a>
100003d0f: e9 00 00 00 00              	jmp	0 <_find_files+0xf4>
100003d14: 31 c0                       	xorl	%eax, %eax
100003d16: 48 8b 4d f0                 	movq	-16(%rbp), %rcx
100003d1a: 48 63 55 d4                 	movslq	-44(%rbp), %rdx
100003d1e: 0f be 34 11                 	movsbl	(%rcx,%rdx), %esi
100003d22: 83 fe 00                    	cmpl	$0, %esi
100003d25: 88 45 cf                    	movb	%al, -49(%rbp)
100003d28: 0f 84 58 00 00 00           	je	88 <_find_files+0x166>
100003d2e: 31 c0                       	xorl	%eax, %eax
100003d30: 48 8b 4d e0                 	movq	-32(%rbp), %rcx
100003d34: 48 63 55 d0                 	movslq	-48(%rbp), %rdx
100003d38: 0f be 74 11 15              	movsbl	21(%rcx,%rdx), %esi
100003d3d: 83 fe 00                    	cmpl	$0, %esi
100003d40: 88 45 cf                    	movb	%al, -49(%rbp)
100003d43: 0f 84 3d 00 00 00           	je	61 <_find_files+0x166>
100003d49: 31 c0                       	xorl	%eax, %eax
100003d4b: 48 8b 4d f0                 	movq	-16(%rbp), %rcx
100003d4f: 48 63 55 d4                 	movslq	-44(%rbp), %rdx
100003d53: 0f be 34 11                 	movsbl	(%rcx,%rdx), %esi
100003d57: 83 fe 2a                    	cmpl	$42, %esi
100003d5a: 88 45 cf                    	movb	%al, -49(%rbp)
100003d5d: 0f 84 23 00 00 00           	je	35 <_find_files+0x166>
100003d63: 48 8b 45 f0                 	movq	-16(%rbp), %rax
100003d67: 48 63 4d d4                 	movslq	-44(%rbp), %rcx
100003d6b: 0f be 14 08                 	movsbl	(%rax,%rcx), %edx
100003d6f: 48 8b 45 e0                 	movq	-32(%rbp), %rax
100003d73: 48 63 4d d0                 	movslq	-48(%rbp), %rcx
100003d77: 0f be 74 08 15              	movsbl	21(%rax,%rcx), %esi
100003d7c: 39 f2                       	cmpl	%esi, %edx
100003d7e: 40 0f 94 c7                 	sete	%dil
100003d82: 40 88 7d cf                 	movb	%dil, -49(%rbp)
100003d86: 8a 45 cf                    	movb	-49(%rbp), %al
100003d89: a8 01                       	testb	$1, %al
100003d8b: 0f 85 05 00 00 00           	jne	5 <_find_files+0x176>
100003d91: e9 17 00 00 00              	jmp	23 <_find_files+0x18d>
100003d96: 8b 45 d4                    	movl	-44(%rbp), %eax
100003d99: 83 c0 01                    	addl	$1, %eax
100003d9c: 89 45 d4                    	movl	%eax, -44(%rbp)
100003d9f: 8b 45 d0                    	movl	-48(%rbp), %eax
100003da2: 83 c0 01                    	addl	$1, %eax
100003da5: 89 45 d0                    	movl	%eax, -48(%rbp)
100003da8: e9 67 ff ff ff              	jmp	-153 <_find_files+0xf4>
100003dad: 48 8b 45 f0                 	movq	-16(%rbp), %rax
100003db1: 48 63 4d d4                 	movslq	-44(%rbp), %rcx
100003db5: 0f be 14 08                 	movsbl	(%rax,%rcx), %edx
100003db9: 83 fa 2a                    	cmpl	$42, %edx
100003dbc: 0f 85 e2 00 00 00           	jne	226 <_find_files+0x284>
100003dc2: 8b 45 d4                    	movl	-44(%rbp), %eax
100003dc5: 83 c0 01                    	addl	$1, %eax
100003dc8: 89 45 d4                    	movl	%eax, -44(%rbp)
100003dcb: 48 8b 4d f0                 	movq	-16(%rbp), %rcx
100003dcf: 48 63 55 d4                 	movslq	-44(%rbp), %rdx
100003dd3: 80 3c 11 00                 	cmpb	$0, (%rcx,%rdx)
100003dd7: 0f 85 61 00 00 00           	jne	97 <_find_files+0x21e>
100003ddd: 48 83 7d d8 00              	cmpq	$0, -40(%rbp)
100003de2: 0f 84 27 00 00 00           	je	39 <_find_files+0x1ef>
100003de8: 48 8b 7d d8                 	movq	-40(%rbp), %rdi
100003dec: 48 8d 05 f5 b8 00 00        	leaq	47349(%rip), %rax
100003df3: 48 89 7d c0                 	movq	%rdi, -64(%rbp)
100003df7: 48 89 c7                    	movq	%rax, %rdi
100003dfa: e8 41 ad 00 00              	callq	44353 <_ft_strdup>
100003dff: 48 8b 7d c0                 	movq	-64(%rbp), %rdi
100003e03: 48 89 c6                    	movq	%rax, %rsi
100003e06: e8 55 50 00 00              	callq	20565 <_ft_strjoin_free>
100003e0b: 48 89 45 d8                 	movq	%rax, -40(%rbp)
100003e0f: 48 8b 7d d8                 	movq	-40(%rbp), %rdi
100003e13: 48 8b 45 e0                 	movq	-32(%rbp), %rax
100003e17: 48 05 15 00 00 00           	addq	$21, %rax
100003e1d: 48 89 7d b8                 	movq	%rdi, -72(%rbp)
100003e21: 48 89 c7                    	movq	%rax, %rdi
100003e24: e8 17 ad 00 00              	callq	44311 <_ft_strdup>
100003e29: 48 8b 7d b8                 	movq	-72(%rbp), %rdi
100003e2d: 48 89 c6                    	movq	%rax, %rsi
100003e30: e8 2b 50 00 00              	callq	20523 <_ft_strjoin_free>
100003e35: 48 89 45 d8                 	movq	%rax, -40(%rbp)
100003e39: e9 1c 01 00 00              	jmp	284 <_find_files+0x33a>
100003e3e: e9 00 00 00 00              	jmp	0 <_find_files+0x223>
100003e43: 31 c0                       	xorl	%eax, %eax
100003e45: 48 8b 4d e0                 	movq	-32(%rbp), %rcx
100003e49: 48 63 55 d0                 	movslq	-48(%rbp), %rdx
100003e4d: 0f be 74 11 15              	movsbl	21(%rcx,%rdx), %esi
100003e52: 83 fe 00                    	cmpl	$0, %esi
100003e55: 88 45 b7                    	movb	%al, -73(%rbp)
100003e58: 0f 84 23 00 00 00           	je	35 <_find_files+0x261>
100003e5e: 48 8b 45 f0                 	movq	-16(%rbp), %rax
100003e62: 48 63 4d d4                 	movslq	-44(%rbp), %rcx
100003e66: 0f be 14 08                 	movsbl	(%rax,%rcx), %edx
100003e6a: 48 8b 45 e0                 	movq	-32(%rbp), %rax
100003e6e: 48 63 4d d0                 	movslq	-48(%rbp), %rcx
100003e72: 0f be 74 08 15              	movsbl	21(%rax,%rcx), %esi
100003e77: 39 f2                       	cmpl	%esi, %edx
100003e79: 40 0f 95 c7                 	setne	%dil
100003e7d: 40 88 7d b7                 	movb	%dil, -73(%rbp)
100003e81: 8a 45 b7                    	movb	-73(%rbp), %al
100003e84: a8 01                       	testb	$1, %al
100003e86: 0f 85 05 00 00 00           	jne	5 <_find_files+0x271>
100003e8c: e9 0e 00 00 00              	jmp	14 <_find_files+0x27f>
100003e91: 8b 45 d0                    	movl	-48(%rbp), %eax
100003e94: 83 c0 01                    	addl	$1, %eax
100003e97: 89 45 d0                    	movl	%eax, -48(%rbp)
100003e9a: e9 a4 ff ff ff              	jmp	-92 <_find_files+0x223>
100003e9f: e9 00 00 00 00              	jmp	0 <_find_files+0x284>
100003ea4: 48 8b 45 f0                 	movq	-16(%rbp), %rax
100003ea8: 48 63 4d d4                 	movslq	-44(%rbp), %rcx
100003eac: 80 3c 08 00                 	cmpb	$0, (%rax,%rcx)
100003eb0: 0f 85 74 00 00 00           	jne	116 <_find_files+0x30a>
100003eb6: 48 8b 45 e0                 	movq	-32(%rbp), %rax
100003eba: 48 63 4d d0                 	movslq	-48(%rbp), %rcx
100003ebe: 80 7c 08 15 00              	cmpb	$0, 21(%rax,%rcx)
100003ec3: 0f 85 61 00 00 00           	jne	97 <_find_files+0x30a>
100003ec9: 48 83 7d d8 00              	cmpq	$0, -40(%rbp)
100003ece: 0f 84 27 00 00 00           	je	39 <_find_files+0x2db>
100003ed4: 48 8b 7d d8                 	movq	-40(%rbp), %rdi
100003ed8: 48 8d 05 09 b8 00 00        	leaq	47113(%rip), %rax
100003edf: 48 89 7d a8                 	movq	%rdi, -88(%rbp)
100003ee3: 48 89 c7                    	movq	%rax, %rdi
100003ee6: e8 55 ac 00 00              	callq	44117 <_ft_strdup>
100003eeb: 48 8b 7d a8                 	movq	-88(%rbp), %rdi
100003eef: 48 89 c6                    	movq	%rax, %rsi
100003ef2: e8 69 4f 00 00              	callq	20329 <_ft_strjoin_free>
100003ef7: 48 89 45 d8                 	movq	%rax, -40(%rbp)
100003efb: 48 8b 7d d8                 	movq	-40(%rbp), %rdi
100003eff: 48 8b 45 e0                 	movq	-32(%rbp), %rax
100003f03: 48 05 15 00 00 00           	addq	$21, %rax
100003f09: 48 89 7d a0                 	movq	%rdi, -96(%rbp)
100003f0d: 48 89 c7                    	movq	%rax, %rdi
100003f10: e8 2b ac 00 00              	callq	44075 <_ft_strdup>
100003f15: 48 8b 7d a0                 	movq	-96(%rbp), %rdi
100003f19: 48 89 c6                    	movq	%rax, %rsi
100003f1c: e8 3f 4f 00 00              	callq	20287 <_ft_strjoin_free>
100003f21: 48 89 45 d8                 	movq	%rax, -40(%rbp)
100003f25: e9 30 00 00 00              	jmp	48 <_find_files+0x33a>
100003f2a: 48 8b 45 f0                 	movq	-16(%rbp), %rax
100003f2e: 48 63 4d d4                 	movslq	-44(%rbp), %rcx
100003f32: 0f be 14 08                 	movsbl	(%rax,%rcx), %edx
100003f36: 48 8b 45 e0                 	movq	-32(%rbp), %rax
100003f3a: 48 63 4d d0                 	movslq	-48(%rbp), %rcx
100003f3e: 0f be 74 08 15              	movsbl	21(%rax,%rcx), %esi
100003f43: 39 f2                       	cmpl	%esi, %edx
100003f45: 0f 84 05 00 00 00           	je	5 <_find_files+0x330>
100003f4b: e9 0a 00 00 00              	jmp	10 <_find_files+0x33a>
100003f50: e9 00 00 00 00              	jmp	0 <_find_files+0x335>
100003f55: e9 a2 fd ff ff              	jmp	-606 <_find_files+0xdc>
100003f5a: 48 8b 7d e8                 	movq	-24(%rbp), %rdi
100003f5e: e8 fb b5 00 00              	callq	46587 <dyld_stub_binder+0x10000f55e>
100003f63: 48 89 45 e0                 	movq	%rax, -32(%rbp)
100003f67: e9 f0 fc ff ff              	jmp	-784 <_find_files+0x3c>
100003f6c: 48 8b 7d e8                 	movq	-24(%rbp), %rdi
100003f70: e8 89 b5 00 00              	callq	46473 <dyld_stub_binder+0x10000f4fe>
100003f75: 48 83 7d d8 00              	cmpq	$0, -40(%rbp)
100003f7a: 0f 84 0d 00 00 00           	je	13 <_find_files+0x36d>
100003f80: 48 8b 45 d8                 	movq	-40(%rbp), %rax
100003f84: 48 89 45 f8                 	movq	%rax, -8(%rbp)
100003f88: e9 08 00 00 00              	jmp	8 <_find_files+0x375>
100003f8d: 48 8b 45 f0                 	movq	-16(%rbp), %rax
100003f91: 48 89 45 f8                 	movq	%rax, -8(%rbp)
100003f95: 48 8b 45 f8                 	movq	-8(%rbp), %rax
100003f99: 48 83 c4 60                 	addq	$96, %rsp
100003f9d: 5d                          	popq	%rbp
100003f9e: c3                          	retq
100003f9f: 90                          	nop

0000000100003fa0 _transform_new_files:
100003fa0: 55                          	pushq	%rbp
100003fa1: 48 89 e5                    	movq	%rsp, %rbp
100003fa4: 48 83 ec 20                 	subq	$32, %rsp
100003fa8: 48 89 7d f8                 	movq	%rdi, -8(%rbp)
100003fac: c7 45 ec 00 00 00 00        	movl	$0, -20(%rbp)
100003fb3: 48 c7 45 f0 00 00 00 00     	movq	$0, -16(%rbp)
100003fbb: 48 8b 45 f8                 	movq	-8(%rbp), %rax
100003fbf: 48 63 4d ec                 	movslq	-20(%rbp), %rcx
100003fc3: 48 83 3c c8 00              	cmpq	$0, (%rax,%rcx,8)
100003fc8: 0f 84 2c 00 00 00           	je	44 <_transform_new_files+0x5a>
100003fce: 48 8b 7d f0                 	movq	-16(%rbp), %rdi
100003fd2: 48 8b 45 f8                 	movq	-8(%rbp), %rax
100003fd6: 48 63 4d ec                 	movslq	-20(%rbp), %rcx
100003fda: 48 8b 34 c8                 	movq	(%rax,%rcx,8), %rsi
100003fde: ba 06 00 00 00              	movl	$6, %edx
100003fe3: e8 a8 94 00 00              	callq	38056 <_arguments_constructor>
100003fe8: 48 89 45 f0                 	movq	%rax, -16(%rbp)
100003fec: 8b 55 ec                    	movl	-20(%rbp), %edx
100003fef: 83 c2 01                    	addl	$1, %edx
100003ff2: 89 55 ec                    	movl	%edx, -20(%rbp)
100003ff5: e9 c1 ff ff ff              	jmp	-63 <_transform_new_files+0x1b>
100003ffa: 48 8b 45 f8                 	movq	-8(%rbp), %rax
100003ffe: 48 89 c7                    	movq	%rax, %rdi
100004001: e8 16 b5 00 00              	callq	46358 <dyld_stub_binder+0x10000f51c>
100004006: 48 8b 45 f0                 	movq	-16(%rbp), %rax
10000400a: 48 83 c4 20                 	addq	$32, %rsp
10000400e: 5d                          	popq	%rbp
10000400f: c3                          	retq

0000000100004010 _wild_cards:
100004010: 55                          	pushq	%rbp
100004011: 48 89 e5                    	movq	%rsp, %rbp
100004014: 48 83 ec 40                 	subq	$64, %rsp
100004018: 48 89 7d f0                 	movq	%rdi, -16(%rbp)
10000401c: 48 89 75 e8                 	movq	%rsi, -24(%rbp)
100004020: 48 83 7d e8 00              	cmpq	$0, -24(%rbp)
100004025: 0f 84 32 00 00 00           	je	50 <_wild_cards+0x4d>
10000402b: 48 8b 7d e8                 	movq	-24(%rbp), %rdi
10000402f: be 2a 00 00 00              	movl	$42, %esi
100004034: e8 77 aa 00 00              	callq	43639 <_ft_strchr>
100004039: 48 83 f8 00                 	cmpq	$0, %rax
10000403d: 0f 84 0d 00 00 00           	je	13 <_wild_cards+0x40>
100004043: 48 8b 7d e8                 	movq	-24(%rbp), %rdi
100004047: e8 d4 fb ff ff              	callq	-1068 <_find_files>
10000404c: 48 89 45 e8                 	movq	%rax, -24(%rbp)
100004050: 48 8b 45 e8                 	movq	-24(%rbp), %rax
100004054: 48 89 45 f8                 	movq	%rax, -8(%rbp)
100004058: e9 47 01 00 00              	jmp	327 <_wild_cards+0x194>
10000405d: 48 8b 45 f0                 	movq	-16(%rbp), %rax
100004061: 48 89 45 e0                 	movq	%rax, -32(%rbp)
100004065: 48 83 7d f0 00              	cmpq	$0, -16(%rbp)
10000406a: 0f 84 24 01 00 00           	je	292 <_wild_cards+0x184>
100004070: c7 45 c4 00 00 00 00        	movl	$0, -60(%rbp)
100004077: 48 8b 45 f0                 	movq	-16(%rbp), %rax
10000407b: 8a 48 08                    	movb	8(%rax), %cl
10000407e: 80 e1 0f                    	andb	$15, %cl
100004081: 0f b6 d1                    	movzbl	%cl, %edx
100004084: 0f b7 f2                    	movzwl	%dx, %esi
100004087: 83 e6 02                    	andl	$2, %esi
10000408a: 83 fe 00                    	cmpl	$0, %esi
10000408d: 0f 84 e8 00 00 00           	je	232 <_wild_cards+0x16b>
100004093: 48 8b 45 f0                 	movq	-16(%rbp), %rax
100004097: 48 8b 38                    	movq	(%rax), %rdi
10000409a: be 2a 00 00 00              	movl	$42, %esi
10000409f: e8 0c aa 00 00              	callq	43532 <_ft_strchr>
1000040a4: 48 83 f8 00                 	cmpq	$0, %rax
1000040a8: 0f 84 cd 00 00 00           	je	205 <_wild_cards+0x16b>
1000040ae: 48 8b 45 f0                 	movq	-16(%rbp), %rax
1000040b2: 48 8b 38                    	movq	(%rax), %rdi
1000040b5: e8 66 fb ff ff              	callq	-1178 <_find_files>
1000040ba: 48 89 45 c8                 	movq	%rax, -56(%rbp)
1000040be: 48 8b 45 c8                 	movq	-56(%rbp), %rax
1000040c2: 48 8b 4d f0                 	movq	-16(%rbp), %rcx
1000040c6: 48 3b 01                    	cmpq	(%rcx), %rax
1000040c9: 0f 84 a7 00 00 00           	je	167 <_wild_cards+0x166>
1000040cf: 48 8b 45 f0                 	movq	-16(%rbp), %rax
1000040d3: 48 8b 40 18                 	movq	24(%rax), %rax
1000040d7: 48 89 45 d8                 	movq	%rax, -40(%rbp)
1000040db: 48 8b 45 f0                 	movq	-16(%rbp), %rax
1000040df: 48 3b 45 e0                 	cmpq	-32(%rbp), %rax
1000040e3: 0f 85 07 00 00 00           	jne	7 <_wild_cards+0xe0>
1000040e9: c7 45 c4 ff ff ff ff        	movl	$4294967295, -60(%rbp)
1000040f0: 48 8b 45 f0                 	movq	-16(%rbp), %rax
1000040f4: 48 8b 38                    	movq	(%rax), %rdi
1000040f7: e8 20 b4 00 00              	callq	46112 <dyld_stub_binder+0x10000f51c>
1000040fc: 48 8b 45 f0                 	movq	-16(%rbp), %rax
100004100: 48 89 c7                    	movq	%rax, %rdi
100004103: e8 14 b4 00 00              	callq	46100 <dyld_stub_binder+0x10000f51c>
100004108: 48 8b 7d c8                 	movq	-56(%rbp), %rdi
10000410c: be 20 00 00 00              	movl	$32, %esi
100004111: e8 aa ae 00 00              	callq	44714 <_ft_split>
100004116: 48 89 c7                    	movq	%rax, %rdi
100004119: e8 82 fe ff ff              	callq	-382 <_transform_new_files>
10000411e: 48 89 45 f0                 	movq	%rax, -16(%rbp)
100004122: 83 7d c4 ff                 	cmpl	$-1, -60(%rbp)
100004126: 0f 85 0d 00 00 00           	jne	13 <_wild_cards+0x129>
10000412c: 48 8b 45 f0                 	movq	-16(%rbp), %rax
100004130: 48 89 45 e0                 	movq	%rax, -32(%rbp)
100004134: e9 0c 00 00 00              	jmp	12 <_wild_cards+0x135>
100004139: 48 8b 45 f0                 	movq	-16(%rbp), %rax
10000413d: 48 8b 4d d0                 	movq	-48(%rbp), %rcx
100004141: 48 89 41 18                 	movq	%rax, 24(%rcx)
100004145: e9 00 00 00 00              	jmp	0 <_wild_cards+0x13a>
10000414a: 48 8b 45 f0                 	movq	-16(%rbp), %rax
10000414e: 48 83 78 18 00              	cmpq	$0, 24(%rax)
100004153: 0f 84 11 00 00 00           	je	17 <_wild_cards+0x15a>
100004159: 48 8b 45 f0                 	movq	-16(%rbp), %rax
10000415d: 48 8b 40 18                 	movq	24(%rax), %rax
100004161: 48 89 45 f0                 	movq	%rax, -16(%rbp)
100004165: e9 e0 ff ff ff              	jmp	-32 <_wild_cards+0x13a>
10000416a: 48 8b 45 d8                 	movq	-40(%rbp), %rax
10000416e: 48 8b 4d f0                 	movq	-16(%rbp), %rcx
100004172: 48 89 41 18                 	movq	%rax, 24(%rcx)
100004176: e9 00 00 00 00              	jmp	0 <_wild_cards+0x16b>
10000417b: 48 8b 45 f0                 	movq	-16(%rbp), %rax
10000417f: 48 89 45 d0                 	movq	%rax, -48(%rbp)
100004183: 48 8b 45 f0                 	movq	-16(%rbp), %rax
100004187: 48 8b 40 18                 	movq	24(%rax), %rax
10000418b: 48 89 45 f0                 	movq	%rax, -16(%rbp)
10000418f: e9 d1 fe ff ff              	jmp	-303 <_wild_cards+0x55>
100004194: 48 8b 45 e0                 	movq	-32(%rbp), %rax
100004198: 48 89 45 f0                 	movq	%rax, -16(%rbp)
10000419c: 48 8b 45 f0                 	movq	-16(%rbp), %rax
1000041a0: 48 89 45 f8                 	movq	%rax, -8(%rbp)
1000041a4: 48 8b 45 f8                 	movq	-8(%rbp), %rax
1000041a8: 48 83 c4 40                 	addq	$64, %rsp
1000041ac: 5d                          	popq	%rbp
1000041ad: c3                          	retq
1000041ae: 90                          	nop
1000041af: 90                          	nop

00000001000041b0 _read_line:
1000041b0: 55                          	pushq	%rbp
1000041b1: 48 89 e5                    	movq	%rsp, %rbp
1000041b4: 48 83 ec 20                 	subq	$32, %rsp
1000041b8: b0 00                       	movb	$0, %al
1000041ba: e8 d1 37 00 00              	callq	14289 <_get_prompt_line>
1000041bf: 48 89 45 f8                 	movq	%rax, -8(%rbp)
1000041c3: 48 8d 3d 20 b5 00 00        	leaq	46368(%rip), %rdi
1000041ca: e8 95 b3 00 00              	callq	45973 <dyld_stub_binder+0x10000f564>
1000041cf: 48 89 45 f0                 	movq	%rax, -16(%rbp)
1000041d3: 48 8b 7d f8                 	movq	-8(%rbp), %rdi
1000041d7: e8 40 b3 00 00              	callq	45888 <dyld_stub_binder+0x10000f51c>
1000041dc: 48 83 7d f0 00              	cmpq	$0, -16(%rbp)
1000041e1: 0f 84 1e 00 00 00           	je	30 <_read_line+0x55>
1000041e7: 48 8b 7d f0                 	movq	-16(%rbp), %rdi
1000041eb: 48 8d 35 05 b5 00 00        	leaq	46341(%rip), %rsi
1000041f2: ba 05 00 00 00              	movl	$5, %edx
1000041f7: e8 44 aa 00 00              	callq	43588 <_ft_strncmp>
1000041fc: 83 f8 00                    	cmpl	$0, %eax
1000041ff: 0f 85 26 00 00 00           	jne	38 <_read_line+0x7b>
100004205: 48 8b 7d f0                 	movq	-16(%rbp), %rdi
100004209: e8 0e b3 00 00              	callq	45838 <dyld_stub_binder+0x10000f51c>
10000420e: 31 c0                       	xorl	%eax, %eax
100004210: 89 c7                       	movl	%eax, %edi
100004212: be ff 00 00 00              	movl	$255, %esi
100004217: 89 45 ec                    	movl	%eax, -20(%rbp)
10000421a: e8 d1 33 00 00              	callq	13265 <_set__get_option_variables>
10000421f: 8b 7d ec                    	movl	-20(%rbp), %edi
100004222: 48 89 45 e0                 	movq	%rax, -32(%rbp)
100004226: e8 e5 b2 00 00              	callq	45797 <dyld_stub_binder+0x10000f510>
10000422b: 48 8b 45 f0                 	movq	-16(%rbp), %rax
10000422f: 80 38 00                    	cmpb	$0, (%rax)
100004232: 0f 85 0e 00 00 00           	jne	14 <_read_line+0x96>
100004238: 48 8b 7d f0                 	movq	-16(%rbp), %rdi
10000423c: e8 db b2 00 00              	callq	45787 <dyld_stub_binder+0x10000f51c>
100004241: e9 72 ff ff ff              	jmp	-142 <_read_line+0x8>
100004246: 48 8d 7d f0                 	leaq	-16(%rbp), %rdi
10000424a: e8 91 4a 00 00              	callq	19089 <_controll_line>
10000424f: 48 8b 7d f0                 	movq	-16(%rbp), %rdi
100004253: e8 8e b2 00 00              	callq	45710 <dyld_stub_binder+0x10000f4e6>
100004258: 48 8b 7d f0                 	movq	-16(%rbp), %rdi
10000425c: e8 bb b2 00 00              	callq	45755 <dyld_stub_binder+0x10000f51c>
100004261: e9 52 ff ff ff              	jmp	-174 <_read_line+0x8>
100004266: 90                          	nop
100004267: 90                          	nop
100004268: 90                          	nop
100004269: 90                          	nop
10000426a: 90                          	nop
10000426b: 90                          	nop
10000426c: 90                          	nop
10000426d: 90                          	nop
10000426e: 90                          	nop
10000426f: 90                          	nop

0000000100004270 _free_line:
100004270: 55                          	pushq	%rbp
100004271: 48 89 e5                    	movq	%rsp, %rbp
100004274: 48 83 ec 10                 	subq	$16, %rsp
100004278: 48 89 7d f8                 	movq	%rdi, -8(%rbp)
10000427c: 48 8b 45 f8                 	movq	-8(%rbp), %rax
100004280: 83 38 04                    	cmpl	$4, (%rax)
100004283: 0f 85 46 00 00 00           	jne	70 <_free_line+0x5f>
100004289: 48 8b 45 f8                 	movq	-8(%rbp), %rax
10000428d: 48 83 78 08 00              	cmpq	$0, 8(%rax)
100004292: 0f 84 0d 00 00 00           	je	13 <_free_line+0x35>
100004298: 48 8b 45 f8                 	movq	-8(%rbp), %rax
10000429c: 48 8b 78 08                 	movq	8(%rax), %rdi
1000042a0: e8 cb ff ff ff              	callq	-53 <_free_line>
1000042a5: 48 8b 45 f8                 	movq	-8(%rbp), %rax
1000042a9: 48 83 78 10 00              	cmpq	$0, 16(%rax)
1000042ae: 0f 84 0d 00 00 00           	je	13 <_free_line+0x51>
1000042b4: 48 8b 45 f8                 	movq	-8(%rbp), %rax
1000042b8: 48 8b 78 10                 	movq	16(%rax), %rdi
1000042bc: e8 af ff ff ff              	callq	-81 <_free_line>
1000042c1: 48 8b 7d f8                 	movq	-8(%rbp), %rdi
1000042c5: e8 06 05 00 00              	callq	1286 <_and_destructor>
1000042ca: e9 b9 00 00 00              	jmp	185 <_free_line+0x118>
1000042cf: 48 8b 45 f8                 	movq	-8(%rbp), %rax
1000042d3: 83 38 05                    	cmpl	$5, (%rax)
1000042d6: 0f 85 46 00 00 00           	jne	70 <_free_line+0xb2>
1000042dc: 48 8b 45 f8                 	movq	-8(%rbp), %rax
1000042e0: 48 83 78 08 00              	cmpq	$0, 8(%rax)
1000042e5: 0f 84 0d 00 00 00           	je	13 <_free_line+0x88>
1000042eb: 48 8b 45 f8                 	movq	-8(%rbp), %rax
1000042ef: 48 8b 78 08                 	movq	8(%rax), %rdi
1000042f3: e8 78 ff ff ff              	callq	-136 <_free_line>
1000042f8: 48 8b 45 f8                 	movq	-8(%rbp), %rax
1000042fc: 48 83 78 10 00              	cmpq	$0, 16(%rax)
100004301: 0f 84 0d 00 00 00           	je	13 <_free_line+0xa4>
100004307: 48 8b 45 f8                 	movq	-8(%rbp), %rax
10000430b: 48 8b 78 10                 	movq	16(%rax), %rdi
10000430f: e8 5c ff ff ff              	callq	-164 <_free_line>
100004314: 48 8b 7d f8                 	movq	-8(%rbp), %rdi
100004318: e8 f3 04 00 00              	callq	1267 <_or_destructor>
10000431d: e9 61 00 00 00              	jmp	97 <_free_line+0x113>
100004322: 48 8b 45 f8                 	movq	-8(%rbp), %rax
100004326: 83 38 06                    	cmpl	$6, (%rax)
100004329: 0f 85 46 00 00 00           	jne	70 <_free_line+0x105>
10000432f: 48 8b 45 f8                 	movq	-8(%rbp), %rax
100004333: 48 83 78 08 00              	cmpq	$0, 8(%rax)
100004338: 0f 84 0d 00 00 00           	je	13 <_free_line+0xdb>
10000433e: 48 8b 45 f8                 	movq	-8(%rbp), %rax
100004342: 48 8b 78 08                 	movq	8(%rax), %rdi
100004346: e8 25 ff ff ff              	callq	-219 <_free_line>
10000434b: 48 8b 45 f8                 	movq	-8(%rbp), %rax
10000434f: 48 83 78 10 00              	cmpq	$0, 16(%rax)
100004354: 0f 84 0d 00 00 00           	je	13 <_free_line+0xf7>
10000435a: 48 8b 45 f8                 	movq	-8(%rbp), %rax
10000435e: 48 8b 78 10                 	movq	16(%rax), %rdi
100004362: e8 09 ff ff ff              	callq	-247 <_free_line>
100004367: 48 8b 7d f8                 	movq	-8(%rbp), %rdi
10000436b: e8 d0 00 00 00              	callq	208 <_pipe_destructor>
100004370: e9 09 00 00 00              	jmp	9 <_free_line+0x10e>
100004375: 48 8b 7d f8                 	movq	-8(%rbp), %rdi
100004379: e8 12 00 00 00              	callq	18 <_free_rest_of_line>
10000437e: e9 00 00 00 00              	jmp	0 <_free_line+0x113>
100004383: e9 00 00 00 00              	jmp	0 <_free_line+0x118>
100004388: 48 83 c4 10                 	addq	$16, %rsp
10000438c: 5d                          	popq	%rbp
10000438d: c3                          	retq
10000438e: 66 90                       	nop

0000000100004390 _free_rest_of_line:
100004390: 55                          	pushq	%rbp
100004391: 48 89 e5                    	movq	%rsp, %rbp
100004394: 48 83 ec 10                 	subq	$16, %rsp
100004398: 48 89 7d f8                 	movq	%rdi, -8(%rbp)
10000439c: 48 8b 45 f8                 	movq	-8(%rbp), %rax
1000043a0: 83 38 02                    	cmpl	$2, (%rax)
1000043a3: 0f 85 0e 00 00 00           	jne	14 <_free_rest_of_line+0x27>
1000043a9: 48 8b 7d f8                 	movq	-8(%rbp), %rdi
1000043ad: e8 2e 01 00 00              	callq	302 <_redir_destructor>
1000043b2: e9 7b 00 00 00              	jmp	123 <_free_rest_of_line+0xa2>
1000043b7: 48 8b 45 f8                 	movq	-8(%rbp), %rax
1000043bb: 83 38 01                    	cmpl	$1, (%rax)
1000043be: 0f 85 0e 00 00 00           	jne	14 <_free_rest_of_line+0x42>
1000043c4: 48 8b 7d f8                 	movq	-8(%rbp), %rdi
1000043c8: e8 b3 00 00 00              	callq	179 <_execcmd_destructor>
1000043cd: e9 5b 00 00 00              	jmp	91 <_free_rest_of_line+0x9d>
1000043d2: 48 8b 45 f8                 	movq	-8(%rbp), %rax
1000043d6: 83 38 03                    	cmpl	$3, (%rax)
1000043d9: 0f 85 0e 00 00 00           	jne	14 <_free_rest_of_line+0x5d>
1000043df: 48 8b 7d f8                 	movq	-8(%rbp), %rdi
1000043e3: e8 f8 02 00 00              	callq	760 <_builtin_destructor>
1000043e8: e9 3b 00 00 00              	jmp	59 <_free_rest_of_line+0x98>
1000043ed: 48 8b 45 f8                 	movq	-8(%rbp), %rax
1000043f1: 83 38 07                    	cmpl	$7, (%rax)
1000043f4: 0f 85 0e 00 00 00           	jne	14 <_free_rest_of_line+0x78>
1000043fa: 48 8b 7d f8                 	movq	-8(%rbp), %rdi
1000043fe: e8 4d 04 00 00              	callq	1101 <_assignement_destructor>
100004403: e9 1b 00 00 00              	jmp	27 <_free_rest_of_line+0x93>
100004408: 48 8b 45 f8                 	movq	-8(%rbp), %rax
10000440c: 83 38 08                    	cmpl	$8, (%rax)
10000440f: 0f 85 09 00 00 00           	jne	9 <_free_rest_of_line+0x8e>
100004415: 48 8b 7d f8                 	movq	-8(%rbp), %rdi
100004419: e8 62 03 00 00              	callq	866 <_invalid_destructor>
10000441e: e9 00 00 00 00              	jmp	0 <_free_rest_of_line+0x93>
100004423: e9 00 00 00 00              	jmp	0 <_free_rest_of_line+0x98>
100004428: e9 00 00 00 00              	jmp	0 <_free_rest_of_line+0x9d>
10000442d: e9 00 00 00 00              	jmp	0 <_free_rest_of_line+0xa2>
100004432: 48 83 c4 10                 	addq	$16, %rsp
100004436: 5d                          	popq	%rbp
100004437: c3                          	retq
100004438: 90                          	nop
100004439: 90                          	nop
10000443a: 90                          	nop
10000443b: 90                          	nop
10000443c: 90                          	nop
10000443d: 90                          	nop
10000443e: 90                          	nop
10000443f: 90                          	nop

0000000100004440 _pipe_destructor:
100004440: 55                          	pushq	%rbp
100004441: 48 89 e5                    	movq	%rsp, %rbp
100004444: 48 83 ec 20                 	subq	$32, %rsp
100004448: 48 89 7d f8                 	movq	%rdi, -8(%rbp)
10000444c: 48 8d 3d a9 b2 00 00        	leaq	45737(%rip), %rdi
100004453: b0 00                       	movb	$0, %al
100004455: e8 f8 b0 00 00              	callq	45304 <dyld_stub_binder+0x10000f552>
10000445a: 48 8b 4d f8                 	movq	-8(%rbp), %rcx
10000445e: 48 89 4d f0                 	movq	%rcx, -16(%rbp)
100004462: 48 8b 4d f0                 	movq	-16(%rbp), %rcx
100004466: 48 89 cf                    	movq	%rcx, %rdi
100004469: 89 45 ec                    	movl	%eax, -20(%rbp)
10000446c: e8 ab b0 00 00              	callq	45227 <dyld_stub_binder+0x10000f51c>
100004471: 48 83 c4 20                 	addq	$32, %rsp
100004475: 5d                          	popq	%rbp
100004476: c3                          	retq
100004477: 66 0f 1f 84 00 00 00 00 00  	nopw	(%rax,%rax)

0000000100004480 _execcmd_destructor:
100004480: 55                          	pushq	%rbp
100004481: 48 89 e5                    	movq	%rsp, %rbp
100004484: 48 83 ec 30                 	subq	$48, %rsp
100004488: 48 89 7d f8                 	movq	%rdi, -8(%rbp)
10000448c: 48 8d 3d 82 b2 00 00        	leaq	45698(%rip), %rdi
100004493: b0 00                       	movb	$0, %al
100004495: e8 b8 b0 00 00              	callq	45240 <dyld_stub_binder+0x10000f552>
10000449a: 48 8b 4d f8                 	movq	-8(%rbp), %rcx
10000449e: 48 89 4d e0                 	movq	%rcx, -32(%rbp)
1000044a2: 48 8b 4d e0                 	movq	-32(%rbp), %rcx
1000044a6: 48 81 c1 08 00 00 00        	addq	$8, %rcx
1000044ad: 48 89 cf                    	movq	%rcx, %rdi
1000044b0: 89 45 dc                    	movl	%eax, -36(%rbp)
1000044b3: e8 18 91 00 00              	callq	37144 <_arguments_destructor>
1000044b8: 48 8b 4d e0                 	movq	-32(%rbp), %rcx
1000044bc: 48 81 c1 10 00 00 00        	addq	$16, %rcx
1000044c3: 48 89 cf                    	movq	%rcx, %rdi
1000044c6: e8 05 91 00 00              	callq	37125 <_arguments_destructor>
1000044cb: 48 8b 4d e0                 	movq	-32(%rbp), %rcx
1000044cf: 48 89 cf                    	movq	%rcx, %rdi
1000044d2: e8 45 b0 00 00              	callq	45125 <dyld_stub_binder+0x10000f51c>
1000044d7: 48 83 c4 30                 	addq	$48, %rsp
1000044db: 5d                          	popq	%rbp
1000044dc: c3                          	retq
1000044dd: 0f 1f 00                    	nopl	(%rax)

00000001000044e0 _redir_destructor:
1000044e0: 55                          	pushq	%rbp
1000044e1: 48 89 e5                    	movq	%rsp, %rbp
1000044e4: 48 83 ec 20                 	subq	$32, %rsp
1000044e8: 48 89 7d f8                 	movq	%rdi, -8(%rbp)
1000044ec: 48 8d 3d 3e b2 00 00        	leaq	45630(%rip), %rdi
1000044f3: b0 00                       	movb	$0, %al
1000044f5: e8 58 b0 00 00              	callq	45144 <dyld_stub_binder+0x10000f552>
1000044fa: 48 8b 4d f8                 	movq	-8(%rbp), %rcx
1000044fe: 48 89 4d f0                 	movq	%rcx, -16(%rbp)
100004502: 48 8b 4d f0                 	movq	-16(%rbp), %rcx
100004506: 48 83 79 20 00              	cmpq	$0, 32(%rcx)
10000450b: 0f 84 23 00 00 00           	je	35 <_redir_destructor+0x54>
100004511: 48 8b 45 f0                 	movq	-16(%rbp), %rax
100004515: 48 8b 40 20                 	movq	32(%rax), %rax
100004519: 83 38 01                    	cmpl	$1, (%rax)
10000451c: 0f 85 12 00 00 00           	jne	18 <_redir_destructor+0x54>
100004522: 48 8b 45 f0                 	movq	-16(%rbp), %rax
100004526: 48 8b 78 20                 	movq	32(%rax), %rdi
10000452a: e8 51 ff ff ff              	callq	-175 <_execcmd_destructor>
10000452f: e9 45 01 00 00              	jmp	325 <_redir_destructor+0x199>
100004534: 48 8b 45 f0                 	movq	-16(%rbp), %rax
100004538: 48 83 78 20 00              	cmpq	$0, 32(%rax)
10000453d: 0f 84 23 00 00 00           	je	35 <_redir_destructor+0x86>
100004543: 48 8b 45 f0                 	movq	-16(%rbp), %rax
100004547: 48 8b 40 20                 	movq	32(%rax), %rax
10000454b: 83 38 03                    	cmpl	$3, (%rax)
10000454e: 0f 85 12 00 00 00           	jne	18 <_redir_destructor+0x86>
100004554: 48 8b 45 f0                 	movq	-16(%rbp), %rax
100004558: 48 8b 78 20                 	movq	32(%rax), %rdi
10000455c: e8 7f 01 00 00              	callq	383 <_builtin_destructor>
100004561: e9 0e 01 00 00              	jmp	270 <_redir_destructor+0x194>
100004566: 48 8b 45 f0                 	movq	-16(%rbp), %rax
10000456a: 48 83 78 20 00              	cmpq	$0, 32(%rax)
10000456f: 0f 84 23 00 00 00           	je	35 <_redir_destructor+0xb8>
100004575: 48 8b 45 f0                 	movq	-16(%rbp), %rax
100004579: 48 8b 40 20                 	movq	32(%rax), %rax
10000457d: 83 38 08                    	cmpl	$8, (%rax)
100004580: 0f 85 12 00 00 00           	jne	18 <_redir_destructor+0xb8>
100004586: 48 8b 45 f0                 	movq	-16(%rbp), %rax
10000458a: 48 8b 78 20                 	movq	32(%rax), %rdi
10000458e: e8 ed 01 00 00              	callq	493 <_invalid_destructor>
100004593: e9 d7 00 00 00              	jmp	215 <_redir_destructor+0x18f>
100004598: 48 8b 45 f0                 	movq	-16(%rbp), %rax
10000459c: 48 83 78 20 00              	cmpq	$0, 32(%rax)
1000045a1: 0f 84 23 00 00 00           	je	35 <_redir_destructor+0xea>
1000045a7: 48 8b 45 f0                 	movq	-16(%rbp), %rax
1000045ab: 48 8b 40 20                 	movq	32(%rax), %rax
1000045af: 83 38 02                    	cmpl	$2, (%rax)
1000045b2: 0f 85 12 00 00 00           	jne	18 <_redir_destructor+0xea>
1000045b8: 48 8b 45 f0                 	movq	-16(%rbp), %rax
1000045bc: 48 8b 78 20                 	movq	32(%rax), %rdi
1000045c0: e8 1b ff ff ff              	callq	-229 <_redir_destructor>
1000045c5: e9 a0 00 00 00              	jmp	160 <_redir_destructor+0x18a>
1000045ca: 48 8b 45 f0                 	movq	-16(%rbp), %rax
1000045ce: 48 83 78 20 00              	cmpq	$0, 32(%rax)
1000045d3: 0f 84 23 00 00 00           	je	35 <_redir_destructor+0x11c>
1000045d9: 48 8b 45 f0                 	movq	-16(%rbp), %rax
1000045dd: 48 8b 40 20                 	movq	32(%rax), %rax
1000045e1: 83 38 04                    	cmpl	$4, (%rax)
1000045e4: 0f 85 12 00 00 00           	jne	18 <_redir_destructor+0x11c>
1000045ea: 48 8b 45 f0                 	movq	-16(%rbp), %rax
1000045ee: 48 8b 78 20                 	movq	32(%rax), %rdi
1000045f2: e8 79 fc ff ff              	callq	-903 <_free_line>
1000045f7: e9 69 00 00 00              	jmp	105 <_redir_destructor+0x185>
1000045fc: 48 8b 45 f0                 	movq	-16(%rbp), %rax
100004600: 48 83 78 20 00              	cmpq	$0, 32(%rax)
100004605: 0f 84 23 00 00 00           	je	35 <_redir_destructor+0x14e>
10000460b: 48 8b 45 f0                 	movq	-16(%rbp), %rax
10000460f: 48 8b 40 20                 	movq	32(%rax), %rax
100004613: 83 38 05                    	cmpl	$5, (%rax)
100004616: 0f 85 12 00 00 00           	jne	18 <_redir_destructor+0x14e>
10000461c: 48 8b 45 f0                 	movq	-16(%rbp), %rax
100004620: 48 8b 78 20                 	movq	32(%rax), %rdi
100004624: e8 47 fc ff ff              	callq	-953 <_free_line>
100004629: e9 32 00 00 00              	jmp	50 <_redir_destructor+0x180>
10000462e: 48 8b 45 f0                 	movq	-16(%rbp), %rax
100004632: 48 83 78 20 00              	cmpq	$0, 32(%rax)
100004637: 0f 84 1e 00 00 00           	je	30 <_redir_destructor+0x17b>
10000463d: 48 8b 45 f0                 	movq	-16(%rbp), %rax
100004641: 48 8b 40 20                 	movq	32(%rax), %rax
100004645: 83 38 06                    	cmpl	$6, (%rax)
100004648: 0f 85 0d 00 00 00           	jne	13 <_redir_destructor+0x17b>
10000464e: 48 8b 45 f0                 	movq	-16(%rbp), %rax
100004652: 48 8b 78 20                 	movq	32(%rax), %rdi
100004656: e8 15 fc ff ff              	callq	-1003 <_free_line>
10000465b: e9 00 00 00 00              	jmp	0 <_redir_destructor+0x180>
100004660: e9 00 00 00 00              	jmp	0 <_redir_destructor+0x185>
100004665: e9 00 00 00 00              	jmp	0 <_redir_destructor+0x18a>
10000466a: e9 00 00 00 00              	jmp	0 <_redir_destructor+0x18f>
10000466f: e9 00 00 00 00              	jmp	0 <_redir_destructor+0x194>
100004674: e9 00 00 00 00              	jmp	0 <_redir_destructor+0x199>
100004679: 48 8b 45 f0                 	movq	-16(%rbp), %rax
10000467d: 48 8b 40 10                 	movq	16(%rax), %rax
100004681: 48 89 45 e8                 	movq	%rax, -24(%rbp)
100004685: 48 8b 45 f0                 	movq	-16(%rbp), %rax
100004689: 48 8b 40 10                 	movq	16(%rax), %rax
10000468d: 48 89 45 e0                 	movq	%rax, -32(%rbp)
100004691: 48 83 7d e8 00              	cmpq	$0, -24(%rbp)
100004696: 0f 84 31 00 00 00           	je	49 <_redir_destructor+0x1ed>
10000469c: 48 8b 45 e8                 	movq	-24(%rbp), %rax
1000046a0: 48 89 45 e0                 	movq	%rax, -32(%rbp)
1000046a4: 48 8b 45 e8                 	movq	-24(%rbp), %rax
1000046a8: 48 8b 40 18                 	movq	24(%rax), %rax
1000046ac: 48 89 45 e8                 	movq	%rax, -24(%rbp)
1000046b0: 48 8b 45 e0                 	movq	-32(%rbp), %rax
1000046b4: 48 8b 38                    	movq	(%rax), %rdi
1000046b7: e8 60 ae 00 00              	callq	44640 <dyld_stub_binder+0x10000f51c>
1000046bc: 48 8b 45 e0                 	movq	-32(%rbp), %rax
1000046c0: 48 89 c7                    	movq	%rax, %rdi
1000046c3: e8 54 ae 00 00              	callq	44628 <dyld_stub_binder+0x10000f51c>
1000046c8: e9 c4 ff ff ff              	jmp	-60 <_redir_destructor+0x1b1>
1000046cd: 48 8b 45 f0                 	movq	-16(%rbp), %rax
1000046d1: 48 89 c7                    	movq	%rax, %rdi
1000046d4: e8 43 ae 00 00              	callq	44611 <dyld_stub_binder+0x10000f51c>
1000046d9: 48 83 c4 20                 	addq	$32, %rsp
1000046dd: 5d                          	popq	%rbp
1000046de: c3                          	retq
1000046df: 90                          	nop

00000001000046e0 _builtin_destructor:
1000046e0: 55                          	pushq	%rbp
1000046e1: 48 89 e5                    	movq	%rsp, %rbp
1000046e4: 48 83 ec 20                 	subq	$32, %rsp
1000046e8: 48 89 7d f8                 	movq	%rdi, -8(%rbp)
1000046ec: 48 8d 3d a4 b0 00 00        	leaq	45220(%rip), %rdi
1000046f3: b0 00                       	movb	$0, %al
1000046f5: e8 58 ae 00 00              	callq	44632 <dyld_stub_binder+0x10000f552>
1000046fa: 48 8b 4d f8                 	movq	-8(%rbp), %rcx
1000046fe: 48 89 4d f0                 	movq	%rcx, -16(%rbp)
100004702: 48 8b 4d f0                 	movq	-16(%rbp), %rcx
100004706: 48 8b 49 10                 	movq	16(%rcx), %rcx
10000470a: 48 89 4d e8                 	movq	%rcx, -24(%rbp)
10000470e: 48 8b 4d f0                 	movq	-16(%rbp), %rcx
100004712: 48 8b 49 10                 	movq	16(%rcx), %rcx
100004716: 48 89 4d e0                 	movq	%rcx, -32(%rbp)
10000471a: 48 83 7d e8 00              	cmpq	$0, -24(%rbp)
10000471f: 0f 84 31 00 00 00           	je	49 <_builtin_destructor+0x76>
100004725: 48 8b 45 e8                 	movq	-24(%rbp), %rax
100004729: 48 89 45 e0                 	movq	%rax, -32(%rbp)
10000472d: 48 8b 45 e8                 	movq	-24(%rbp), %rax
100004731: 48 8b 40 18                 	movq	24(%rax), %rax
100004735: 48 89 45 e8                 	movq	%rax, -24(%rbp)
100004739: 48 8b 45 e0                 	movq	-32(%rbp), %rax
10000473d: 48 8b 38                    	movq	(%rax), %rdi
100004740: e8 d7 ad 00 00              	callq	44503 <dyld_stub_binder+0x10000f51c>
100004745: 48 8b 45 e0                 	movq	-32(%rbp), %rax
100004749: 48 89 c7                    	movq	%rax, %rdi
10000474c: e8 cb ad 00 00              	callq	44491 <dyld_stub_binder+0x10000f51c>
100004751: e9 c4 ff ff ff              	jmp	-60 <_builtin_destructor+0x3a>
100004756: 48 8b 45 f0                 	movq	-16(%rbp), %rax
10000475a: 48 8b 78 08                 	movq	8(%rax), %rdi
10000475e: e8 b9 ad 00 00              	callq	44473 <dyld_stub_binder+0x10000f51c>
100004763: 48 8b 45 f0                 	movq	-16(%rbp), %rax
100004767: 48 89 c7                    	movq	%rax, %rdi
10000476a: e8 ad ad 00 00              	callq	44461 <dyld_stub_binder+0x10000f51c>
10000476f: 48 83 c4 20                 	addq	$32, %rsp
100004773: 5d                          	popq	%rbp
100004774: c3                          	retq
100004775: 66 2e 0f 1f 84 00 00 00 00 00       	nopw	%cs:(%rax,%rax)
10000477f: 90                          	nop

0000000100004780 _invalid_destructor:
100004780: 55                          	pushq	%rbp
100004781: 48 89 e5                    	movq	%rsp, %rbp
100004784: 48 83 ec 20                 	subq	$32, %rsp
100004788: 48 89 7d f8                 	movq	%rdi, -8(%rbp)
10000478c: 48 8d 3d e7 af 00 00        	leaq	45031(%rip), %rdi
100004793: b0 00                       	movb	$0, %al
100004795: e8 b8 ad 00 00              	callq	44472 <dyld_stub_binder+0x10000f552>
10000479a: 48 8b 4d f8                 	movq	-8(%rbp), %rcx
10000479e: 48 89 4d f0                 	movq	%rcx, -16(%rbp)
1000047a2: 48 8b 4d f0                 	movq	-16(%rbp), %rcx
1000047a6: 48 8b 79 08                 	movq	8(%rcx), %rdi
1000047aa: 89 45 ec                    	movl	%eax, -20(%rbp)
1000047ad: e8 6a ad 00 00              	callq	44394 <dyld_stub_binder+0x10000f51c>
1000047b2: 48 8b 4d f0                 	movq	-16(%rbp), %rcx
1000047b6: 48 89 cf                    	movq	%rcx, %rdi
1000047b9: e8 5e ad 00 00              	callq	44382 <dyld_stub_binder+0x10000f51c>
1000047be: 48 83 c4 20                 	addq	$32, %rsp
1000047c2: 5d                          	popq	%rbp
1000047c3: c3                          	retq
1000047c4: 66 2e 0f 1f 84 00 00 00 00 00       	nopw	%cs:(%rax,%rax)
1000047ce: 66 90                       	nop

00000001000047d0 _and_destructor:
1000047d0: 55                          	pushq	%rbp
1000047d1: 48 89 e5                    	movq	%rsp, %rbp
1000047d4: 48 83 ec 20                 	subq	$32, %rsp
1000047d8: 48 89 7d f8                 	movq	%rdi, -8(%rbp)
1000047dc: 48 8d 3d 68 af 00 00        	leaq	44904(%rip), %rdi
1000047e3: b0 00                       	movb	$0, %al
1000047e5: e8 68 ad 00 00              	callq	44392 <dyld_stub_binder+0x10000f552>
1000047ea: 48 8b 4d f8                 	movq	-8(%rbp), %rcx
1000047ee: 48 89 4d f0                 	movq	%rcx, -16(%rbp)
1000047f2: 48 8b 4d f0                 	movq	-16(%rbp), %rcx
1000047f6: 48 89 cf                    	movq	%rcx, %rdi
1000047f9: 89 45 ec                    	movl	%eax, -20(%rbp)
1000047fc: e8 1b ad 00 00              	callq	44315 <dyld_stub_binder+0x10000f51c>
100004801: 48 83 c4 20                 	addq	$32, %rsp
100004805: 5d                          	popq	%rbp
100004806: c3                          	retq
100004807: 66 0f 1f 84 00 00 00 00 00  	nopw	(%rax,%rax)

0000000100004810 _or_destructor:
100004810: 55                          	pushq	%rbp
100004811: 48 89 e5                    	movq	%rsp, %rbp
100004814: 48 83 ec 20                 	subq	$32, %rsp
100004818: 48 89 7d f8                 	movq	%rdi, -8(%rbp)
10000481c: 48 8d 3d 40 af 00 00        	leaq	44864(%rip), %rdi
100004823: b0 00                       	movb	$0, %al
100004825: e8 28 ad 00 00              	callq	44328 <dyld_stub_binder+0x10000f552>
10000482a: 48 8b 4d f8                 	movq	-8(%rbp), %rcx
10000482e: 48 89 4d f0                 	movq	%rcx, -16(%rbp)
100004832: 48 8b 4d f0                 	movq	-16(%rbp), %rcx
100004836: 48 89 cf                    	movq	%rcx, %rdi
100004839: 89 45 ec                    	movl	%eax, -20(%rbp)
10000483c: e8 db ac 00 00              	callq	44251 <dyld_stub_binder+0x10000f51c>
100004841: 48 83 c4 20                 	addq	$32, %rsp
100004845: 5d                          	popq	%rbp
100004846: c3                          	retq
100004847: 66 0f 1f 84 00 00 00 00 00  	nopw	(%rax,%rax)

0000000100004850 _assignement_destructor:
100004850: 55                          	pushq	%rbp
100004851: 48 89 e5                    	movq	%rsp, %rbp
100004854: 48 83 ec 20                 	subq	$32, %rsp
100004858: 48 89 7d f8                 	movq	%rdi, -8(%rbp)
10000485c: 48 8d 3d 50 af 00 00        	leaq	44880(%rip), %rdi
100004863: b0 00                       	movb	$0, %al
100004865: e8 e8 ac 00 00              	callq	44264 <dyld_stub_binder+0x10000f552>
10000486a: 48 8b 4d f8                 	movq	-8(%rbp), %rcx
10000486e: 48 89 4d f0                 	movq	%rcx, -16(%rbp)
100004872: 48 8b 4d f0                 	movq	-16(%rbp), %rcx
100004876: 48 8b 79 08                 	movq	8(%rcx), %rdi
10000487a: 89 45 ec                    	movl	%eax, -20(%rbp)
10000487d: e8 9a ac 00 00              	callq	44186 <dyld_stub_binder+0x10000f51c>
100004882: 48 8b 4d f0                 	movq	-16(%rbp), %rcx
100004886: 48 8b 79 10                 	movq	16(%rcx), %rdi
10000488a: e8 8d ac 00 00              	callq	44173 <dyld_stub_binder+0x10000f51c>
10000488f: 48 8b 4d f0                 	movq	-16(%rbp), %rcx
100004893: 48 89 cf                    	movq	%rcx, %rdi
100004896: e8 81 ac 00 00              	callq	44161 <dyld_stub_binder+0x10000f51c>
10000489b: 48 83 c4 20                 	addq	$32, %rsp
10000489f: 5d                          	popq	%rbp
1000048a0: c3                          	retq
1000048a1: 90                          	nop
1000048a2: 90                          	nop
1000048a3: 90                          	nop
1000048a4: 90                          	nop
1000048a5: 90                          	nop
1000048a6: 90                          	nop
1000048a7: 90                          	nop
1000048a8: 90                          	nop
1000048a9: 90                          	nop
1000048aa: 90                          	nop
1000048ab: 90                          	nop
1000048ac: 90                          	nop
1000048ad: 90                          	nop
1000048ae: 90                          	nop
1000048af: 90                          	nop

00000001000048b0 _stat_check:
1000048b0: 55                          	pushq	%rbp
1000048b1: 48 89 e5                    	movq	%rsp, %rbp
1000048b4: 48 81 ec a0 00 00 00        	subq	$160, %rsp
1000048bb: 48 89 7d f0                 	movq	%rdi, -16(%rbp)
1000048bf: 48 8b 7d f0                 	movq	-16(%rbp), %rdi
1000048c3: 48 8d b5 60 ff ff ff        	leaq	-160(%rbp), %rsi
1000048ca: e8 9b ac 00 00              	callq	44187 <dyld_stub_binder+0x10000f56a>
1000048cf: 83 f8 00                    	cmpl	$0, %eax
1000048d2: 0f 85 3f 00 00 00           	jne	63 <_stat_check+0x67>
1000048d8: 0f b7 85 64 ff ff ff        	movzwl	-156(%rbp), %eax
1000048df: 25 00 01 00 00              	andl	$256, %eax
1000048e4: 83 f8 00                    	cmpl	$0, %eax
1000048e7: 0f 85 1e 00 00 00           	jne	30 <_stat_check+0x5b>
1000048ed: 48 8b 75 f0                 	movq	-16(%rbp), %rsi
1000048f1: 48 8d 3d db ae 00 00        	leaq	44763(%rip), %rdi
1000048f8: b0 00                       	movb	$0, %al
1000048fa: e8 53 ac 00 00              	callq	44115 <dyld_stub_binder+0x10000f552>
1000048ff: c7 45 fc 00 00 00 00        	movl	$0, -4(%rbp)
100004906: e9 13 00 00 00              	jmp	19 <_stat_check+0x6e>
10000490b: c7 45 fc 01 00 00 00        	movl	$1, -4(%rbp)
100004912: e9 07 00 00 00              	jmp	7 <_stat_check+0x6e>
100004917: c7 45 fc 01 00 00 00        	movl	$1, -4(%rbp)
10000491e: 8b 45 fc                    	movl	-4(%rbp), %eax
100004921: 48 81 c4 a0 00 00 00        	addq	$160, %rsp
100004928: 5d                          	popq	%rbp
100004929: c3                          	retq
10000492a: 66 0f 1f 44 00 00           	nopw	(%rax,%rax)

0000000100004930 _get_owd:
100004930: 55                          	pushq	%rbp
100004931: 48 89 e5                    	movq	%rsp, %rbp
100004934: 48 83 ec 30                 	subq	$48, %rsp
100004938: 48 89 7d f0                 	movq	%rdi, -16(%rbp)
10000493c: 48 8b 7d f0                 	movq	-16(%rbp), %rdi
100004940: e8 9b a2 00 00              	callq	41627 <_ft_strlen>
100004945: 31 c9                       	xorl	%ecx, %ecx
100004947: 89 cf                       	movl	%ecx, %edi
100004949: 48 89 45 d8                 	movq	%rax, -40(%rbp)
10000494d: be 03 00 00 00              	movl	$3, %esi
100004952: e8 99 2c 00 00              	callq	11417 <_set__get_option_variables>
100004957: 48 89 45 e8                 	movq	%rax, -24(%rbp)
10000495b: 48 8b 45 e8                 	movq	-24(%rbp), %rax
10000495f: 48 8b 00                    	movq	(%rax), %rax
100004962: 48 89 45 e0                 	movq	%rax, -32(%rbp)
100004966: 48 83 7d e0 00              	cmpq	$0, -32(%rbp)
10000496b: 0f 84 42 00 00 00           	je	66 <_get_owd+0x83>
100004971: 48 8b 7d f0                 	movq	-16(%rbp), %rdi
100004975: 48 8b 45 e0                 	movq	-32(%rbp), %rax
100004979: 48 8b 30                    	movq	(%rax), %rsi
10000497c: 48 8b 55 d8                 	movq	-40(%rbp), %rdx
100004980: e8 bb a2 00 00              	callq	41659 <_ft_strncmp>
100004985: 83 f8 00                    	cmpl	$0, %eax
100004988: 0f 85 14 00 00 00           	jne	20 <_get_owd+0x72>
10000498e: 48 8b 45 e0                 	movq	-32(%rbp), %rax
100004992: 48 8b 00                    	movq	(%rax), %rax
100004995: 48 03 45 d8                 	addq	-40(%rbp), %rax
100004999: 48 89 45 f8                 	movq	%rax, -8(%rbp)
10000499d: e9 19 00 00 00              	jmp	25 <_get_owd+0x8b>
1000049a2: 48 8b 45 e0                 	movq	-32(%rbp), %rax
1000049a6: 48 8b 40 08                 	movq	8(%rax), %rax
1000049aa: 48 89 45 e0                 	movq	%rax, -32(%rbp)
1000049ae: e9 b3 ff ff ff              	jmp	-77 <_get_owd+0x36>
1000049b3: 48 c7 45 f8 00 00 00 00     	movq	$0, -8(%rbp)
1000049bb: 48 8b 45 f8                 	movq	-8(%rbp), %rax
1000049bf: 48 83 c4 30                 	addq	$48, %rsp
1000049c3: 5d                          	popq	%rbp
1000049c4: c3                          	retq
1000049c5: 66 2e 0f 1f 84 00 00 00 00 00       	nopw	%cs:(%rax,%rax)
1000049cf: 90                          	nop

00000001000049d0 _reset_env:
1000049d0: 55                          	pushq	%rbp
1000049d1: 48 89 e5                    	movq	%rsp, %rbp
1000049d4: 48 83 ec 40                 	subq	$64, %rsp
1000049d8: 31 c0                       	xorl	%eax, %eax
1000049da: 89 c1                       	movl	%eax, %ecx
1000049dc: 48 89 7d f8                 	movq	%rdi, -8(%rbp)
1000049e0: 48 89 75 f0                 	movq	%rsi, -16(%rbp)
1000049e4: 66 c7 45 de 00 00           	movw	$0, -34(%rbp)
1000049ea: 66 c7 45 dc 00 00           	movw	$0, -36(%rbp)
1000049f0: 48 89 cf                    	movq	%rcx, %rdi
1000049f3: be 03 00 00 00              	movl	$3, %esi
1000049f8: e8 f3 2b 00 00              	callq	11251 <_set__get_option_variables>
1000049fd: 48 89 45 e8                 	movq	%rax, -24(%rbp)
100004a01: 48 8b 45 e8                 	movq	-24(%rbp), %rax
100004a05: 48 8b 00                    	movq	(%rax), %rax
100004a08: 48 89 45 e0                 	movq	%rax, -32(%rbp)
100004a0c: 48 83 7d e0 00              	cmpq	$0, -32(%rbp)
100004a11: 0f 84 a5 00 00 00           	je	165 <_reset_env+0xec>
100004a17: 48 8b 45 e0                 	movq	-32(%rbp), %rax
100004a1b: 48 8b 30                    	movq	(%rax), %rsi
100004a1e: 48 8d 3d c9 ad 00 00        	leaq	44489(%rip), %rdi
100004a25: ba 04 00 00 00              	movl	$4, %edx
100004a2a: e8 11 a2 00 00              	callq	41489 <_ft_strncmp>
100004a2f: 83 f8 00                    	cmpl	$0, %eax
100004a32: 0f 85 29 00 00 00           	jne	41 <_reset_env+0x91>
100004a38: 66 c7 45 dc 01 00           	movw	$1, -36(%rbp)
100004a3e: 48 8b 45 e0                 	movq	-32(%rbp), %rax
100004a42: 48 8b 38                    	movq	(%rax), %rdi
100004a45: e8 d2 aa 00 00              	callq	43730 <dyld_stub_binder+0x10000f51c>
100004a4a: 48 8b 75 f8                 	movq	-8(%rbp), %rsi
100004a4e: 48 8d 3d 99 ad 00 00        	leaq	44441(%rip), %rdi
100004a55: e8 c6 a4 00 00              	callq	42182 <_ft_strjoin>
100004a5a: 48 8b 4d e0                 	movq	-32(%rbp), %rcx
100004a5e: 48 89 01                    	movq	%rax, (%rcx)
100004a61: 48 8b 45 e0                 	movq	-32(%rbp), %rax
100004a65: 48 8b 30                    	movq	(%rax), %rsi
100004a68: 48 8d 3d 84 ad 00 00        	leaq	44420(%rip), %rdi
100004a6f: ba 07 00 00 00              	movl	$7, %edx
100004a74: e8 c7 a1 00 00              	callq	41415 <_ft_strncmp>
100004a79: 83 f8 00                    	cmpl	$0, %eax
100004a7c: 0f 85 29 00 00 00           	jne	41 <_reset_env+0xdb>
100004a82: 66 c7 45 de 01 00           	movw	$1, -34(%rbp)
100004a88: 48 8b 45 e0                 	movq	-32(%rbp), %rax
100004a8c: 48 8b 38                    	movq	(%rax), %rdi
100004a8f: e8 88 aa 00 00              	callq	43656 <dyld_stub_binder+0x10000f51c>
100004a94: 48 8b 75 f0                 	movq	-16(%rbp), %rsi
100004a98: 48 8d 3d 54 ad 00 00        	leaq	44372(%rip), %rdi
100004a9f: e8 7c a4 00 00              	callq	42108 <_ft_strjoin>
100004aa4: 48 8b 4d e0                 	movq	-32(%rbp), %rcx
100004aa8: 48 89 01                    	movq	%rax, (%rcx)
100004aab: 48 8b 45 e0                 	movq	-32(%rbp), %rax
100004aaf: 48 8b 40 08                 	movq	8(%rax), %rax
100004ab3: 48 89 45 e0                 	movq	%rax, -32(%rbp)
100004ab7: e9 50 ff ff ff              	jmp	-176 <_reset_env+0x3c>
100004abc: 66 83 7d de 00              	cmpw	$0, -34(%rbp)
100004ac1: 0f 85 3e 00 00 00           	jne	62 <_reset_env+0x135>
100004ac7: 48 8b 7d e8                 	movq	-24(%rbp), %rdi
100004acb: 48 8b 75 f0                 	movq	-16(%rbp), %rsi
100004acf: 48 8d 05 1d ad 00 00        	leaq	44317(%rip), %rax
100004ad6: 48 89 7d d0                 	movq	%rdi, -48(%rbp)
100004ada: 48 89 c7                    	movq	%rax, %rdi
100004add: e8 3e a4 00 00              	callq	42046 <_ft_strjoin>
100004ae2: 48 89 c7                    	movq	%rax, %rdi
100004ae5: e8 06 a8 00 00              	callq	43014 <_ft_lstnew>
100004aea: 48 8b 7d d0                 	movq	-48(%rbp), %rdi
100004aee: 48 89 c6                    	movq	%rax, %rsi
100004af1: e8 9a a8 00 00              	callq	43162 <_ft_lstadd_back>
100004af6: 48 8b 45 e8                 	movq	-24(%rbp), %rax
100004afa: 0f bf 48 08                 	movswl	8(%rax), %ecx
100004afe: 83 c1 01                    	addl	$1, %ecx
100004b01: 66 89 48 08                 	movw	%cx, 8(%rax)
100004b05: 66 83 7d dc 00              	cmpw	$0, -36(%rbp)
100004b0a: 0f 85 3e 00 00 00           	jne	62 <_reset_env+0x17e>
100004b10: 48 8b 7d e8                 	movq	-24(%rbp), %rdi
100004b14: 48 8b 75 f8                 	movq	-8(%rbp), %rsi
100004b18: 48 8d 05 cf ac 00 00        	leaq	44239(%rip), %rax
100004b1f: 48 89 7d c8                 	movq	%rdi, -56(%rbp)
100004b23: 48 89 c7                    	movq	%rax, %rdi
100004b26: e8 f5 a3 00 00              	callq	41973 <_ft_strjoin>
100004b2b: 48 89 c7                    	movq	%rax, %rdi
100004b2e: e8 bd a7 00 00              	callq	42941 <_ft_lstnew>
100004b33: 48 8b 7d c8                 	movq	-56(%rbp), %rdi
100004b37: 48 89 c6                    	movq	%rax, %rsi
100004b3a: e8 51 a8 00 00              	callq	43089 <_ft_lstadd_back>
100004b3f: 48 8b 45 e8                 	movq	-24(%rbp), %rax
100004b43: 0f bf 48 08                 	movswl	8(%rax), %ecx
100004b47: 83 c1 01                    	addl	$1, %ecx
100004b4a: 66 89 48 08                 	movw	%cx, 8(%rax)
100004b4e: 48 83 c4 40                 	addq	$64, %rsp
100004b52: 5d                          	popq	%rbp
100004b53: c3                          	retq
100004b54: 66 2e 0f 1f 84 00 00 00 00 00       	nopw	%cs:(%rax,%rax)
100004b5e: 66 90                       	nop

0000000100004b60 _extend_option:
100004b60: 55                          	pushq	%rbp
100004b61: 48 89 e5                    	movq	%rsp, %rbp
100004b64: 48 83 ec 50                 	subq	$80, %rsp
100004b68: 48 89 7d f8                 	movq	%rdi, -8(%rbp)
100004b6c: 48 89 75 f0                 	movq	%rsi, -16(%rbp)
100004b70: 89 55 ec                    	movl	%edx, -20(%rbp)
100004b73: 48 c7 45 e0 00 00 00 00     	movq	$0, -32(%rbp)
100004b7b: 48 c7 45 d8 00 00 00 00     	movq	$0, -40(%rbp)
100004b83: 83 7d ec 00                 	cmpl	$0, -20(%rbp)
100004b87: 0f 85 46 00 00 00           	jne	70 <_extend_option+0x73>
100004b8d: 48 8b 7d f8                 	movq	-8(%rbp), %rdi
100004b91: 48 8b 45 f8                 	movq	-8(%rbp), %rax
100004b95: 48 89 7d c8                 	movq	%rdi, -56(%rbp)
100004b99: 48 89 c7                    	movq	%rax, %rdi
100004b9c: e8 3f a0 00 00              	callq	41023 <_ft_strlen>
100004ba1: 48 2d 02 00 00 00           	subq	$2, %rax
100004ba7: 48 8b 7d c8                 	movq	-56(%rbp), %rdi
100004bab: be 02 00 00 00              	movl	$2, %esi
100004bb0: 48 89 c2                    	movq	%rax, %rdx
100004bb3: e8 58 a1 00 00              	callq	41304 <_ft_substr>
100004bb8: 48 89 45 d0                 	movq	%rax, -48(%rbp)
100004bbc: 48 8b 75 d0                 	movq	-48(%rbp), %rsi
100004bc0: 48 8d 3d 34 ac 00 00        	leaq	44084(%rip), %rdi
100004bc7: b0 00                       	movb	$0, %al
100004bc9: e8 84 a9 00 00              	callq	43396 <dyld_stub_binder+0x10000f552>
100004bce: e9 3e 00 00 00              	jmp	62 <_extend_option+0xb1>
100004bd3: 83 7d ec 01                 	cmpl	$1, -20(%rbp)
100004bd7: 0f 85 2f 00 00 00           	jne	47 <_extend_option+0xac>
100004bdd: 48 8b 7d f8                 	movq	-8(%rbp), %rdi
100004be1: 48 8b 45 f8                 	movq	-8(%rbp), %rax
100004be5: 48 89 7d c0                 	movq	%rdi, -64(%rbp)
100004be9: 48 89 c7                    	movq	%rax, %rdi
100004bec: e8 ef 9f 00 00              	callq	40943 <_ft_strlen>
100004bf1: 48 2d 01 00 00 00           	subq	$1, %rax
100004bf7: 48 8b 7d c0                 	movq	-64(%rbp), %rdi
100004bfb: be 01 00 00 00              	movl	$1, %esi
100004c00: 48 89 c2                    	movq	%rax, %rdx
100004c03: e8 08 a1 00 00              	callq	41224 <_ft_substr>
100004c08: 48 89 45 d0                 	movq	%rax, -48(%rbp)
100004c0c: e9 00 00 00 00              	jmp	0 <_extend_option+0xb1>
100004c11: 48 8b 7d f0                 	movq	-16(%rbp), %rdi
100004c15: 48 8b 75 d0                 	movq	-48(%rbp), %rsi
100004c19: e8 42 42 00 00              	callq	16962 <_ft_strjoin_free>
100004c1e: 48 89 45 e0                 	movq	%rax, -32(%rbp)
100004c22: 48 8b 75 e0                 	movq	-32(%rbp), %rsi
100004c26: 48 8d 3d ce ab 00 00        	leaq	43982(%rip), %rdi
100004c2d: b0 00                       	movb	$0, %al
100004c2f: e8 1e a9 00 00              	callq	43294 <dyld_stub_binder+0x10000f552>
100004c34: 48 8b 7d f8                 	movq	-8(%rbp), %rdi
100004c38: 89 45 bc                    	movl	%eax, -68(%rbp)
100004c3b: e8 dc a8 00 00              	callq	43228 <dyld_stub_binder+0x10000f51c>
100004c40: 48 8b 45 e0                 	movq	-32(%rbp), %rax
100004c44: 48 83 c4 50                 	addq	$80, %rsp
100004c48: 5d                          	popq	%rbp
100004c49: c3                          	retq
100004c4a: 66 0f 1f 44 00 00           	nopw	(%rax,%rax)

0000000100004c50 _get_prev_path:
100004c50: 55                          	pushq	%rbp
100004c51: 48 89 e5                    	movq	%rsp, %rbp
100004c54: 48 83 ec 30                 	subq	$48, %rsp
100004c58: 48 89 7d f0                 	movq	%rdi, -16(%rbp)
100004c5c: 48 8b 7d f0                 	movq	-16(%rbp), %rdi
100004c60: e8 7b 9f 00 00              	callq	40827 <_ft_strlen>
100004c65: 89 45 e8                    	movl	%eax, -24(%rbp)
100004c68: 8b 45 e8                    	movl	-24(%rbp), %eax
100004c6b: 83 c0 ff                    	addl	$-1, %eax
100004c6e: 89 45 e8                    	movl	%eax, -24(%rbp)
100004c71: 8b 45 e8                    	movl	-24(%rbp), %eax
100004c74: 89 45 ec                    	movl	%eax, -20(%rbp)
100004c77: 31 c0                       	xorl	%eax, %eax
100004c79: 48 8b 4d f0                 	movq	-16(%rbp), %rcx
100004c7d: 48 63 55 ec                 	movslq	-20(%rbp), %rdx
100004c81: 0f be 34 11                 	movsbl	(%rcx,%rdx), %esi
100004c85: 83 fe 2f                    	cmpl	$47, %esi
100004c88: 88 45 df                    	movb	%al, -33(%rbp)
100004c8b: 0f 84 0a 00 00 00           	je	10 <_get_prev_path+0x4b>
100004c91: 83 7d ec 00                 	cmpl	$0, -20(%rbp)
100004c95: 0f 9d c0                    	setge	%al
100004c98: 88 45 df                    	movb	%al, -33(%rbp)
100004c9b: 8a 45 df                    	movb	-33(%rbp), %al
100004c9e: a8 01                       	testb	$1, %al
100004ca0: 0f 85 05 00 00 00           	jne	5 <_get_prev_path+0x5b>
100004ca6: e9 0e 00 00 00              	jmp	14 <_get_prev_path+0x69>
100004cab: 8b 45 ec                    	movl	-20(%rbp), %eax
100004cae: 83 c0 ff                    	addl	$-1, %eax
100004cb1: 89 45 ec                    	movl	%eax, -20(%rbp)
100004cb4: e9 be ff ff ff              	jmp	-66 <_get_prev_path+0x27>
100004cb9: 48 8b 45 f0                 	movq	-16(%rbp), %rax
100004cbd: 48 63 4d ec                 	movslq	-20(%rbp), %rcx
100004cc1: 0f be 14 08                 	movsbl	(%rax,%rcx), %edx
100004cc5: 83 fa 2f                    	cmpl	$47, %edx
100004cc8: 0f 85 1f 00 00 00           	jne	31 <_get_prev_path+0x9d>
100004cce: 83 7d ec 00                 	cmpl	$0, -20(%rbp)
100004cd2: 0f 85 15 00 00 00           	jne	21 <_get_prev_path+0x9d>
100004cd8: 48 8d 3d 24 ab 00 00        	leaq	43812(%rip), %rdi
100004cdf: e8 5c 9e 00 00              	callq	40540 <_ft_strdup>
100004ce4: 48 89 45 f8                 	movq	%rax, -8(%rbp)
100004ce8: e9 2c 00 00 00              	jmp	44 <_get_prev_path+0xc9>
100004ced: 8b 45 ec                    	movl	-20(%rbp), %eax
100004cf0: 3b 45 e8                    	cmpl	-24(%rbp), %eax
100004cf3: 0f 84 13 00 00 00           	je	19 <_get_prev_path+0xbc>
100004cf9: 31 f6                       	xorl	%esi, %esi
100004cfb: 48 8b 7d f0                 	movq	-16(%rbp), %rdi
100004cff: 48 63 55 ec                 	movslq	-20(%rbp), %rdx
100004d03: e8 08 a0 00 00              	callq	40968 <_ft_substr>
100004d08: 48 89 45 e0                 	movq	%rax, -32(%rbp)
100004d0c: e9 00 00 00 00              	jmp	0 <_get_prev_path+0xc1>
100004d11: 48 8b 45 e0                 	movq	-32(%rbp), %rax
100004d15: 48 89 45 f8                 	movq	%rax, -8(%rbp)
100004d19: 48 8b 45 f8                 	movq	-8(%rbp), %rax
100004d1d: 48 83 c4 30                 	addq	$48, %rsp
100004d21: 5d                          	popq	%rbp
100004d22: c3                          	retq
100004d23: 66 2e 0f 1f 84 00 00 00 00 00       	nopw	%cs:(%rax,%rax)
100004d2d: 0f 1f 00                    	nopl	(%rax)

0000000100004d30 _ft_go_to:
100004d30: 55                          	pushq	%rbp
100004d31: 48 89 e5                    	movq	%rsp, %rbp
100004d34: 48 83 ec 40                 	subq	$64, %rsp
100004d38: 89 7d f8                    	movl	%edi, -8(%rbp)
100004d3b: 48 89 75 f0                 	movq	%rsi, -16(%rbp)
100004d3f: 48 89 55 e8                 	movq	%rdx, -24(%rbp)
100004d43: 48 c7 45 e0 00 00 00 00     	movq	$0, -32(%rbp)
100004d4b: 48 8b 45 f0                 	movq	-16(%rbp), %rax
100004d4f: 48 89 45 e0                 	movq	%rax, -32(%rbp)
100004d53: 83 7d f8 00                 	cmpl	$0, -8(%rbp)
100004d57: 0f 85 9d 00 00 00           	jne	157 <_ft_go_to+0xca>
100004d5d: 48 8d 3d a1 aa 00 00        	leaq	43681(%rip), %rdi
100004d64: e8 c7 fb ff ff              	callq	-1081 <_get_owd>
100004d69: 48 89 45 e0                 	movq	%rax, -32(%rbp)
100004d6d: 48 8b 7d e0                 	movq	-32(%rbp), %rdi
100004d71: e8 3a fb ff ff              	callq	-1222 <_stat_check>
100004d76: 83 f8 00                    	cmpl	$0, %eax
100004d79: 0f 85 0c 00 00 00           	jne	12 <_ft_go_to+0x5b>
100004d7f: c7 45 fc ff ff ff ff        	movl	$4294967295, -4(%rbp)
100004d86: e9 7f 01 00 00              	jmp	383 <_ft_go_to+0x1da>
100004d8b: 48 83 7d e0 00              	cmpq	$0, -32(%rbp)
100004d90: 0f 85 1d 00 00 00           	jne	29 <_ft_go_to+0x83>
100004d96: 48 8d 3d 6e aa 00 00        	leaq	43630(%rip), %rdi
100004d9d: be 02 00 00 00              	movl	$2, %esi
100004da2: e8 d9 a4 00 00              	callq	42201 <_ft_putendl_fd>
100004da7: c7 45 fc ff ff ff ff        	movl	$4294967295, -4(%rbp)
100004dae: e9 57 01 00 00              	jmp	343 <_ft_go_to+0x1da>
100004db3: 48 8b 45 e8                 	movq	-24(%rbp), %rax
100004db7: 80 38 00                    	cmpb	$0, (%rax)
100004dba: 0f 85 28 00 00 00           	jne	40 <_ft_go_to+0xb8>
100004dc0: 48 8b 7d e0                 	movq	-32(%rbp), %rdi
100004dc4: 48 8d 05 23 aa 00 00        	leaq	43555(%rip), %rax
100004dcb: 48 89 7d d0                 	movq	%rdi, -48(%rbp)
100004dcf: 48 89 c7                    	movq	%rax, %rdi
100004dd2: e8 59 fb ff ff              	callq	-1191 <_get_owd>
100004dd7: 48 8b 7d d0                 	movq	-48(%rbp), %rdi
100004ddb: 48 89 c6                    	movq	%rax, %rsi
100004dde: e8 ed fb ff ff              	callq	-1043 <_reset_env>
100004de3: e9 0d 00 00 00              	jmp	13 <_ft_go_to+0xc5>
100004de8: 48 8b 7d e0                 	movq	-32(%rbp), %rdi
100004dec: 48 8b 75 e8                 	movq	-24(%rbp), %rsi
100004df0: e8 db fb ff ff              	callq	-1061 <_reset_env>
100004df5: e9 fe 00 00 00              	jmp	254 <_ft_go_to+0x1c8>
100004dfa: 83 7d f8 01                 	cmpl	$1, -8(%rbp)
100004dfe: 0f 85 ef 00 00 00           	jne	239 <_ft_go_to+0x1c3>
100004e04: 48 8d 3d e8 a9 00 00        	leaq	43496(%rip), %rdi
100004e0b: e8 20 fb ff ff              	callq	-1248 <_get_owd>
100004e10: 48 89 45 e0                 	movq	%rax, -32(%rbp)
100004e14: 48 8b 7d e0                 	movq	-32(%rbp), %rdi
100004e18: e8 93 fa ff ff              	callq	-1389 <_stat_check>
100004e1d: 83 f8 00                    	cmpl	$0, %eax
100004e20: 0f 85 0c 00 00 00           	jne	12 <_ft_go_to+0x102>
100004e26: c7 45 fc ff ff ff ff        	movl	$4294967295, -4(%rbp)
100004e2d: e9 d8 00 00 00              	jmp	216 <_ft_go_to+0x1da>
100004e32: 48 83 7d e0 00              	cmpq	$0, -32(%rbp)
100004e37: 0f 85 1d 00 00 00           	jne	29 <_ft_go_to+0x12a>
100004e3d: 48 8d 3d e4 a9 00 00        	leaq	43492(%rip), %rdi
100004e44: be 02 00 00 00              	movl	$2, %esi
100004e49: e8 32 a4 00 00              	callq	42034 <_ft_putendl_fd>
100004e4e: c7 45 fc ff ff ff ff        	movl	$4294967295, -4(%rbp)
100004e55: e9 b0 00 00 00              	jmp	176 <_ft_go_to+0x1da>
100004e5a: 48 8b 7d e0                 	movq	-32(%rbp), %rdi
100004e5e: be 04 00 00 00              	movl	$4, %esi
100004e63: e8 78 a6 00 00              	callq	42616 <dyld_stub_binder+0x10000f4e0>
100004e68: 83 f8 00                    	cmpl	$0, %eax
100004e6b: 0f 84 25 00 00 00           	je	37 <_ft_go_to+0x166>
100004e71: 48 8b 75 f0                 	movq	-16(%rbp), %rsi
100004e75: 48 8d 3d cb a9 00 00        	leaq	43467(%rip), %rdi
100004e7c: 48 8d 15 d0 a9 00 00        	leaq	43472(%rip), %rdx
100004e83: b0 00                       	movb	$0, %al
100004e85: e8 c8 a6 00 00              	callq	42696 <dyld_stub_binder+0x10000f552>
100004e8a: c7 45 fc ff ff ff ff        	movl	$4294967295, -4(%rbp)
100004e91: e9 74 00 00 00              	jmp	116 <_ft_go_to+0x1da>
100004e96: 48 8d 3d 51 a9 00 00        	leaq	43345(%rip), %rdi
100004e9d: e8 8e fa ff ff              	callq	-1394 <_get_owd>
100004ea2: 48 83 f8 00                 	cmpq	$0, %rax
100004ea6: 0f 84 35 00 00 00           	je	53 <_ft_go_to+0x1b1>
100004eac: 48 8b 45 e8                 	movq	-24(%rbp), %rax
100004eb0: 80 38 00                    	cmpb	$0, (%rax)
100004eb3: 0f 85 28 00 00 00           	jne	40 <_ft_go_to+0x1b1>
100004eb9: 48 8b 7d e0                 	movq	-32(%rbp), %rdi
100004ebd: 48 8d 05 2a a9 00 00        	leaq	43306(%rip), %rax
100004ec4: 48 89 7d c8                 	movq	%rdi, -56(%rbp)
100004ec8: 48 89 c7                    	movq	%rax, %rdi
100004ecb: e8 60 fa ff ff              	callq	-1440 <_get_owd>
100004ed0: 48 8b 7d c8                 	movq	-56(%rbp), %rdi
100004ed4: 48 89 c6                    	movq	%rax, %rsi
100004ed7: e8 f4 fa ff ff              	callq	-1292 <_reset_env>
100004edc: e9 0d 00 00 00              	jmp	13 <_ft_go_to+0x1be>
100004ee1: 48 8b 7d e0                 	movq	-32(%rbp), %rdi
100004ee5: 48 8b 75 e8                 	movq	-24(%rbp), %rsi
100004ee9: e8 e2 fa ff ff              	callq	-1310 <_reset_env>
100004eee: e9 00 00 00 00              	jmp	0 <_ft_go_to+0x1c3>
100004ef3: e9 00 00 00 00              	jmp	0 <_ft_go_to+0x1c8>
100004ef8: 48 8b 7d e0                 	movq	-32(%rbp), %rdi
100004efc: e8 f1 a5 00 00              	callq	42481 <dyld_stub_binder+0x10000f4f2>
100004f01: 89 45 dc                    	movl	%eax, -36(%rbp)
100004f04: 8b 45 dc                    	movl	-36(%rbp), %eax
100004f07: 89 45 fc                    	movl	%eax, -4(%rbp)
100004f0a: 8b 45 fc                    	movl	-4(%rbp), %eax
100004f0d: 48 83 c4 40                 	addq	$64, %rsp
100004f11: 5d                          	popq	%rbp
100004f12: c3                          	retq
100004f13: 66 2e 0f 1f 84 00 00 00 00 00       	nopw	%cs:(%rax,%rax)
100004f1d: 0f 1f 00                    	nopl	(%rax)

0000000100004f20 _prev_drictory_count:
100004f20: 55                          	pushq	%rbp
100004f21: 48 89 e5                    	movq	%rsp, %rbp
100004f24: 48 83 ec 20                 	subq	$32, %rsp
100004f28: 48 89 7d f8                 	movq	%rdi, -8(%rbp)
100004f2c: c7 45 f4 00 00 00 00        	movl	$0, -12(%rbp)
100004f33: c7 45 f0 00 00 00 00        	movl	$0, -16(%rbp)
100004f3a: 48 8b 7d f8                 	movq	-8(%rbp), %rdi
100004f3e: be 2f 00 00 00              	movl	$47, %esi
100004f43: e8 78 a0 00 00              	callq	41080 <_ft_split>
100004f48: 48 89 45 e8                 	movq	%rax, -24(%rbp)
100004f4c: 31 c0                       	xorl	%eax, %eax
100004f4e: 48 83 7d e8 00              	cmpq	$0, -24(%rbp)
100004f53: 88 45 e7                    	movb	%al, -25(%rbp)
100004f56: 0f 84 13 00 00 00           	je	19 <_prev_drictory_count+0x4f>
100004f5c: 48 8b 45 e8                 	movq	-24(%rbp), %rax
100004f60: 48 63 4d f0                 	movslq	-16(%rbp), %rcx
100004f64: 48 83 3c c8 00              	cmpq	$0, (%rax,%rcx,8)
100004f69: 0f 95 c2                    	setne	%dl
100004f6c: 88 55 e7                    	movb	%dl, -25(%rbp)
100004f6f: 8a 45 e7                    	movb	-25(%rbp), %al
100004f72: a8 01                       	testb	$1, %al
100004f74: 0f 85 05 00 00 00           	jne	5 <_prev_drictory_count+0x5f>
100004f7a: e9 3d 00 00 00              	jmp	61 <_prev_drictory_count+0x9c>
100004f7f: 48 8b 45 e8                 	movq	-24(%rbp), %rax
100004f83: 48 63 4d f0                 	movslq	-16(%rbp), %rcx
100004f87: 48 8b 3c c8                 	movq	(%rax,%rcx,8), %rdi
100004f8b: 48 8d 35 db a8 00 00        	leaq	43227(%rip), %rsi
100004f92: ba 02 00 00 00              	movl	$2, %edx
100004f97: e8 a4 99 00 00              	callq	39332 <_ft_memcmp>
100004f9c: 83 f8 00                    	cmpl	$0, %eax
100004f9f: 0f 85 09 00 00 00           	jne	9 <_prev_drictory_count+0x8e>
100004fa5: 8b 45 f4                    	movl	-12(%rbp), %eax
100004fa8: 83 c0 01                    	addl	$1, %eax
100004fab: 89 45 f4                    	movl	%eax, -12(%rbp)
100004fae: 8b 45 f0                    	movl	-16(%rbp), %eax
100004fb1: 83 c0 01                    	addl	$1, %eax
100004fb4: 89 45 f0                    	movl	%eax, -16(%rbp)
100004fb7: e9 90 ff ff ff              	jmp	-112 <_prev_drictory_count+0x2c>
100004fbc: 48 8b 7d e8                 	movq	-24(%rbp), %rdi
100004fc0: e8 0b 1c 00 00              	callq	7179 <_sp_free>
100004fc5: 8b 45 f4                    	movl	-12(%rbp), %eax
100004fc8: 48 83 c4 20                 	addq	$32, %rsp
100004fcc: 5d                          	popq	%rbp
100004fcd: c3                          	retq
100004fce: 66 90                       	nop

0000000100004fd0 _d_point_check:
100004fd0: 55                          	pushq	%rbp
100004fd1: 48 89 e5                    	movq	%rsp, %rbp
100004fd4: 48 83 ec 20                 	subq	$32, %rsp
100004fd8: 48 89 7d f8                 	movq	%rdi, -8(%rbp)
100004fdc: c7 45 f4 01 00 00 00        	movl	$1, -12(%rbp)
100004fe3: c7 45 f0 00 00 00 00        	movl	$0, -16(%rbp)
100004fea: 48 8b 7d f8                 	movq	-8(%rbp), %rdi
100004fee: be 2f 00 00 00              	movl	$47, %esi
100004ff3: e8 c8 9f 00 00              	callq	40904 <_ft_split>
100004ff8: 48 89 45 e8                 	movq	%rax, -24(%rbp)
100004ffc: 31 c0                       	xorl	%eax, %eax
100004ffe: 48 83 7d e8 00              	cmpq	$0, -24(%rbp)
100005003: 88 45 e7                    	movb	%al, -25(%rbp)
100005006: 0f 84 13 00 00 00           	je	19 <_d_point_check+0x4f>
10000500c: 48 8b 45 e8                 	movq	-24(%rbp), %rax
100005010: 48 63 4d f0                 	movslq	-16(%rbp), %rcx
100005014: 48 83 3c c8 00              	cmpq	$0, (%rax,%rcx,8)
100005019: 0f 95 c2                    	setne	%dl
10000501c: 88 55 e7                    	movb	%dl, -25(%rbp)
10000501f: 8a 45 e7                    	movb	-25(%rbp), %al
100005022: a8 01                       	testb	$1, %al
100005024: 0f 85 05 00 00 00           	jne	5 <_d_point_check+0x5f>
10000502a: e9 61 00 00 00              	jmp	97 <_d_point_check+0xc0>
10000502f: 48 8b 45 e8                 	movq	-24(%rbp), %rax
100005033: 48 63 4d f0                 	movslq	-16(%rbp), %rcx
100005037: 48 8b 3c c8                 	movq	(%rax,%rcx,8), %rdi
10000503b: 48 8d 35 a4 a6 00 00        	leaq	42660(%rip), %rsi
100005042: ba 01 00 00 00              	movl	$1, %edx
100005047: e8 f4 98 00 00              	callq	39156 <_ft_memcmp>
10000504c: 83 f8 00                    	cmpl	$0, %eax
10000504f: 0f 84 2d 00 00 00           	je	45 <_d_point_check+0xb2>
100005055: 48 8b 45 e8                 	movq	-24(%rbp), %rax
100005059: 48 63 4d f0                 	movslq	-16(%rbp), %rcx
10000505d: 48 8b 3c c8                 	movq	(%rax,%rcx,8), %rdi
100005061: 48 8d 35 05 a8 00 00        	leaq	43013(%rip), %rsi
100005068: ba 02 00 00 00              	movl	$2, %edx
10000506d: e8 ce 98 00 00              	callq	39118 <_ft_memcmp>
100005072: 83 f8 00                    	cmpl	$0, %eax
100005075: 0f 84 07 00 00 00           	je	7 <_d_point_check+0xb2>
10000507b: c7 45 f4 00 00 00 00        	movl	$0, -12(%rbp)
100005082: 8b 45 f0                    	movl	-16(%rbp), %eax
100005085: 83 c0 01                    	addl	$1, %eax
100005088: 89 45 f0                    	movl	%eax, -16(%rbp)
10000508b: e9 6c ff ff ff              	jmp	-148 <_d_point_check+0x2c>
100005090: 48 8b 7d e8                 	movq	-24(%rbp), %rdi
100005094: e8 37 1b 00 00              	callq	6967 <_sp_free>
100005099: 8b 45 f4                    	movl	-12(%rbp), %eax
10000509c: 48 83 c4 20                 	addq	$32, %rsp
1000050a0: 5d                          	popq	%rbp
1000050a1: c3                          	retq
1000050a2: 66 2e 0f 1f 84 00 00 00 00 00       	nopw	%cs:(%rax,%rax)
1000050ac: 0f 1f 40 00                 	nopl	(%rax)

00000001000050b0 _d_point_validat:
1000050b0: 55                          	pushq	%rbp
1000050b1: 48 89 e5                    	movq	%rsp, %rbp
1000050b4: 48 83 ec 30                 	subq	$48, %rsp
1000050b8: 48 89 7d f8                 	movq	%rdi, -8(%rbp)
1000050bc: 48 89 75 f0                 	movq	%rsi, -16(%rbp)
1000050c0: 89 55 ec                    	movl	%edx, -20(%rbp)
1000050c3: 48 8b 7d f8                 	movq	-8(%rbp), %rdi
1000050c7: e8 14 9b 00 00              	callq	39700 <_ft_strlen>
1000050cc: 89 45 dc                    	movl	%eax, -36(%rbp)
1000050cf: 83 7d dc 00                 	cmpl	$0, -36(%rbp)
1000050d3: 0f 8e b9 00 00 00           	jle	185 <_d_point_validat+0xe2>
1000050d9: 83 7d dc 00                 	cmpl	$0, -36(%rbp)
1000050dd: 0f 8e 23 00 00 00           	jle	35 <_d_point_validat+0x56>
1000050e3: 48 8b 45 f8                 	movq	-8(%rbp), %rax
1000050e7: 8b 4d dc                    	movl	-36(%rbp), %ecx
1000050ea: 83 e9 01                    	subl	$1, %ecx
1000050ed: 48 63 d1                    	movslq	%ecx, %rdx
1000050f0: 0f be 0c 10                 	movsbl	(%rax,%rdx), %ecx
1000050f4: 83 f9 2f                    	cmpl	$47, %ecx
1000050f7: 0f 85 09 00 00 00           	jne	9 <_d_point_validat+0x56>
1000050fd: 8b 45 dc                    	movl	-36(%rbp), %eax
100005100: 83 c0 ff                    	addl	$-1, %eax
100005103: 89 45 dc                    	movl	%eax, -36(%rbp)
100005106: e9 00 00 00 00              	jmp	0 <_d_point_validat+0x5b>
10000510b: 31 c0                       	xorl	%eax, %eax
10000510d: 83 7d dc 00                 	cmpl	$0, -36(%rbp)
100005111: 88 45 d7                    	movb	%al, -41(%rbp)
100005114: 0f 8e 1c 00 00 00           	jle	28 <_d_point_validat+0x86>
10000511a: 48 8b 45 f8                 	movq	-8(%rbp), %rax
10000511e: 8b 4d dc                    	movl	-36(%rbp), %ecx
100005121: 83 e9 01                    	subl	$1, %ecx
100005124: 48 63 d1                    	movslq	%ecx, %rdx
100005127: 0f be 0c 10                 	movsbl	(%rax,%rdx), %ecx
10000512b: 83 f9 2e                    	cmpl	$46, %ecx
10000512e: 40 0f 94 c6                 	sete	%sil
100005132: 40 88 75 d7                 	movb	%sil, -41(%rbp)
100005136: 8a 45 d7                    	movb	-41(%rbp), %al
100005139: a8 01                       	testb	$1, %al
10000513b: 0f 85 05 00 00 00           	jne	5 <_d_point_validat+0x96>
100005141: e9 0e 00 00 00              	jmp	14 <_d_point_validat+0xa4>
100005146: 8b 45 dc                    	movl	-36(%rbp), %eax
100005149: 83 c0 ff                    	addl	$-1, %eax
10000514c: 89 45 dc                    	movl	%eax, -36(%rbp)
10000514f: e9 b7 ff ff ff              	jmp	-73 <_d_point_validat+0x5b>
100005154: 48 8b 45 f8                 	movq	-8(%rbp), %rax
100005158: 8b 4d dc                    	movl	-36(%rbp), %ecx
10000515b: 83 e9 01                    	subl	$1, %ecx
10000515e: 48 63 d1                    	movslq	%ecx, %rdx
100005161: 0f be 0c 10                 	movsbl	(%rax,%rdx), %ecx
100005165: 83 f9 2f                    	cmpl	$47, %ecx
100005168: 0f 84 1f 00 00 00           	je	31 <_d_point_validat+0xdd>
10000516e: 48 8b 45 f8                 	movq	-8(%rbp), %rax
100005172: 8b 4d dc                    	movl	-36(%rbp), %ecx
100005175: 83 e9 01                    	subl	$1, %ecx
100005178: 48 63 d1                    	movslq	%ecx, %rdx
10000517b: 0f be 0c 10                 	movsbl	(%rax,%rdx), %ecx
10000517f: 83 f9 2e                    	cmpl	$46, %ecx
100005182: 0f 84 05 00 00 00           	je	5 <_d_point_validat+0xdd>
100005188: e9 05 00 00 00              	jmp	5 <_d_point_validat+0xe2>
10000518d: e9 3d ff ff ff              	jmp	-195 <_d_point_validat+0x1f>
100005192: e9 00 00 00 00              	jmp	0 <_d_point_validat+0xe7>
100005197: 83 7d ec 00                 	cmpl	$0, -20(%rbp)
10000519b: 0f 84 89 00 00 00           	je	137 <_d_point_validat+0x17a>
1000051a1: 83 7d dc 00                 	cmpl	$0, -36(%rbp)
1000051a5: 0f 8e 23 00 00 00           	jle	35 <_d_point_validat+0x11e>
1000051ab: 48 8b 45 f8                 	movq	-8(%rbp), %rax
1000051af: 8b 4d dc                    	movl	-36(%rbp), %ecx
1000051b2: 83 e9 01                    	subl	$1, %ecx
1000051b5: 48 63 d1                    	movslq	%ecx, %rdx
1000051b8: 0f be 0c 10                 	movsbl	(%rax,%rdx), %ecx
1000051bc: 83 f9 2f                    	cmpl	$47, %ecx
1000051bf: 0f 85 09 00 00 00           	jne	9 <_d_point_validat+0x11e>
1000051c5: 8b 45 dc                    	movl	-36(%rbp), %eax
1000051c8: 83 c0 ff                    	addl	$-1, %eax
1000051cb: 89 45 dc                    	movl	%eax, -36(%rbp)
1000051ce: e9 00 00 00 00              	jmp	0 <_d_point_validat+0x123>
1000051d3: 31 c0                       	xorl	%eax, %eax
1000051d5: 83 7d dc 00                 	cmpl	$0, -36(%rbp)
1000051d9: 88 45 d6                    	movb	%al, -42(%rbp)
1000051dc: 0f 8e 1c 00 00 00           	jle	28 <_d_point_validat+0x14e>
1000051e2: 48 8b 45 f8                 	movq	-8(%rbp), %rax
1000051e6: 8b 4d dc                    	movl	-36(%rbp), %ecx
1000051e9: 83 e9 01                    	subl	$1, %ecx
1000051ec: 48 63 d1                    	movslq	%ecx, %rdx
1000051ef: 0f be 0c 10                 	movsbl	(%rax,%rdx), %ecx
1000051f3: 83 f9 2f                    	cmpl	$47, %ecx
1000051f6: 40 0f 95 c6                 	setne	%sil
1000051fa: 40 88 75 d6                 	movb	%sil, -42(%rbp)
1000051fe: 8a 45 d6                    	movb	-42(%rbp), %al
100005201: a8 01                       	testb	$1, %al
100005203: 0f 85 05 00 00 00           	jne	5 <_d_point_validat+0x15e>
100005209: e9 0e 00 00 00              	jmp	14 <_d_point_validat+0x16c>
10000520e: 8b 45 dc                    	movl	-36(%rbp), %eax
100005211: 83 c0 ff                    	addl	$-1, %eax
100005214: 89 45 dc                    	movl	%eax, -36(%rbp)
100005217: e9 b7 ff ff ff              	jmp	-73 <_d_point_validat+0x123>
10000521c: 8b 45 ec                    	movl	-20(%rbp), %eax
10000521f: 83 c0 ff                    	addl	$-1, %eax
100005222: 89 45 ec                    	movl	%eax, -20(%rbp)
100005225: e9 6d ff ff ff              	jmp	-147 <_d_point_validat+0xe7>
10000522a: 31 f6                       	xorl	%esi, %esi
10000522c: 48 8b 7d f8                 	movq	-8(%rbp), %rdi
100005230: 48 63 55 dc                 	movslq	-36(%rbp), %rdx
100005234: e8 d7 9a 00 00              	callq	39639 <_ft_substr>
100005239: 48 89 45 e0                 	movq	%rax, -32(%rbp)
10000523d: 48 8b 7d e0                 	movq	-32(%rbp), %rdi
100005241: e8 ac a2 00 00              	callq	41644 <dyld_stub_binder+0x10000f4f2>
100005246: 89 45 d8                    	movl	%eax, -40(%rbp)
100005249: 83 7d d8 00                 	cmpl	$0, -40(%rbp)
10000524d: 0f 85 0d 00 00 00           	jne	13 <_d_point_validat+0x1b0>
100005253: 48 8b 7d e0                 	movq	-32(%rbp), %rdi
100005257: 48 8b 75 f0                 	movq	-16(%rbp), %rsi
10000525b: e8 70 f7 ff ff              	callq	-2192 <_reset_env>
100005260: 48 8b 75 e0                 	movq	-32(%rbp), %rsi
100005264: 8b 55 d8                    	movl	-40(%rbp), %edx
100005267: 48 8d 3d 02 a6 00 00        	leaq	42498(%rip), %rdi
10000526e: b0 00                       	movb	$0, %al
100005270: e8 dd a2 00 00              	callq	41693 <dyld_stub_binder+0x10000f552>
100005275: 48 8b 7d e0                 	movq	-32(%rbp), %rdi
100005279: 89 45 d0                    	movl	%eax, -48(%rbp)
10000527c: e8 9b a2 00 00              	callq	41627 <dyld_stub_binder+0x10000f51c>
100005281: 8b 45 d8                    	movl	-40(%rbp), %eax
100005284: 48 83 c4 30                 	addq	$48, %rsp
100005288: 5d                          	popq	%rbp
100005289: c3                          	retq
10000528a: 66 0f 1f 44 00 00           	nopw	(%rax,%rax)

0000000100005290 _d_point_extend:
100005290: 55                          	pushq	%rbp
100005291: 48 89 e5                    	movq	%rsp, %rbp
100005294: 48 81 ec 90 04 00 00        	subq	$1168, %rsp
10000529b: 48 8b 05 5e ad 00 00        	movq	44382(%rip), %rax
1000052a2: 48 8b 00                    	movq	(%rax), %rax
1000052a5: 48 89 45 f8                 	movq	%rax, -8(%rbp)
1000052a9: 48 89 bd e0 fb ff ff        	movq	%rdi, -1056(%rbp)
1000052b0: 48 89 b5 d8 fb ff ff        	movq	%rsi, -1064(%rbp)
1000052b7: 48 8d 3d 30 a5 00 00        	leaq	42288(%rip), %rdi
1000052be: e8 6d f6 ff ff              	callq	-2451 <_get_owd>
1000052c3: 48 89 85 d0 fb ff ff        	movq	%rax, -1072(%rbp)
1000052ca: 48 83 bd d0 fb ff ff 00     	cmpq	$0, -1072(%rbp)
1000052d2: 0f 85 22 00 00 00           	jne	34 <_d_point_extend+0x6a>
1000052d8: 31 c0                       	xorl	%eax, %eax
1000052da: 89 c7                       	movl	%eax, %edi
1000052dc: be 11 00 00 00              	movl	$17, %esi
1000052e1: e8 0a 23 00 00              	callq	8970 <_set__get_option_variables>
1000052e6: 48 89 c7                    	movq	%rax, %rdi
1000052e9: e8 52 98 00 00              	callq	38994 <_ft_strdup>
1000052ee: 48 89 85 d0 fb ff ff        	movq	%rax, -1072(%rbp)
1000052f5: e9 13 00 00 00              	jmp	19 <_d_point_extend+0x7d>
1000052fa: 48 8b bd d0 fb ff ff        	movq	-1072(%rbp), %rdi
100005301: e8 3a 98 00 00              	callq	38970 <_ft_strdup>
100005306: 48 89 85 d0 fb ff ff        	movq	%rax, -1072(%rbp)
10000530d: 48 8b 85 d8 fb ff ff        	movq	-1064(%rbp), %rax
100005314: 80 38 00                    	cmpb	$0, (%rax)
100005317: 0f 85 f8 01 00 00           	jne	504 <_d_point_extend+0x285>
10000531d: 48 8b bd e0 fb ff ff        	movq	-1056(%rbp), %rdi
100005324: e8 a7 fc ff ff              	callq	-857 <_d_point_check>
100005329: 83 f8 00                    	cmpl	$0, %eax
10000532c: 0f 84 e3 01 00 00           	je	483 <_d_point_extend+0x285>
100005332: 48 8d 3d 47 a5 00 00        	leaq	42311(%rip), %rdi
100005339: e8 1a a2 00 00              	callq	41498 <dyld_stub_binder+0x10000f558>
10000533e: 48 83 bd d0 fb ff ff 00     	cmpq	$0, -1072(%rbp)
100005346: 0f 84 67 00 00 00           	je	103 <_d_point_extend+0x123>
10000534c: 48 8b 85 d0 fb ff ff        	movq	-1072(%rbp), %rax
100005353: 48 8b bd d0 fb ff ff        	movq	-1072(%rbp), %rdi
10000535a: 48 89 85 b8 fb ff ff        	movq	%rax, -1096(%rbp)
100005361: e8 7a 98 00 00              	callq	39034 <_ft_strlen>
100005366: 48 2d 01 00 00 00           	subq	$1, %rax
10000536c: 48 8b 8d b8 fb ff ff        	movq	-1096(%rbp), %rcx
100005373: 0f be 14 01                 	movsbl	(%rcx,%rax), %edx
100005377: 83 fa 2f                    	cmpl	$47, %edx
10000537a: 0f 84 33 00 00 00           	je	51 <_d_point_extend+0x123>
100005380: 48 8b bd d0 fb ff ff        	movq	-1072(%rbp), %rdi
100005387: 48 8d 05 75 a4 00 00        	leaq	42101(%rip), %rax
10000538e: 48 89 bd b0 fb ff ff        	movq	%rdi, -1104(%rbp)
100005395: 48 89 c7                    	movq	%rax, %rdi
100005398: e8 a3 97 00 00              	callq	38819 <_ft_strdup>
10000539d: 48 8b bd b0 fb ff ff        	movq	-1104(%rbp), %rdi
1000053a4: 48 89 c6                    	movq	%rax, %rsi
1000053a7: e8 b4 3a 00 00              	callq	15028 <_ft_strjoin_free>
1000053ac: 48 89 85 d0 fb ff ff        	movq	%rax, -1072(%rbp)
1000053b3: 48 8b bd e0 fb ff ff        	movq	-1056(%rbp), %rdi
1000053ba: e8 61 fb ff ff              	callq	-1183 <_prev_drictory_count>
1000053bf: 89 85 c8 fb ff ff           	movl	%eax, -1080(%rbp)
1000053c5: 83 bd c8 fb ff ff 03        	cmpl	$3, -1080(%rbp)
1000053cc: 0f 8c 30 00 00 00           	jl	48 <_d_point_extend+0x172>
1000053d2: 48 8b bd d0 fb ff ff        	movq	-1072(%rbp), %rdi
1000053d9: e8 3e a1 00 00              	callq	41278 <dyld_stub_binder+0x10000f51c>
1000053de: 48 8b b5 e0 fb ff ff        	movq	-1056(%rbp), %rsi
1000053e5: 48 8d 3d 98 a4 00 00        	leaq	42136(%rip), %rdi
1000053ec: b0 00                       	movb	$0, %al
1000053ee: e8 5f a1 00 00              	callq	41311 <dyld_stub_binder+0x10000f552>
1000053f3: c7 85 ec fb ff ff ff ff ff ff       	movl	$4294967295, -1044(%rbp)
1000053fd: e9 08 02 00 00              	jmp	520 <_d_point_extend+0x37a>
100005402: 48 8b bd d0 fb ff ff        	movq	-1072(%rbp), %rdi
100005409: e8 12 fb ff ff              	callq	-1262 <_prev_drictory_count>
10000540e: 03 85 c8 fb ff ff           	addl	-1080(%rbp), %eax
100005414: 89 85 c8 fb ff ff           	movl	%eax, -1080(%rbp)
10000541a: 8b b5 c8 fb ff ff           	movl	-1080(%rbp), %esi
100005420: 48 8d 3d 7f a4 00 00        	leaq	42111(%rip), %rdi
100005427: b0 00                       	movb	$0, %al
100005429: e8 24 a1 00 00              	callq	41252 <dyld_stub_binder+0x10000f552>
10000542e: 48 8b bd d0 fb ff ff        	movq	-1072(%rbp), %rdi
100005435: 48 8d 0d b7 a3 00 00        	leaq	41911(%rip), %rcx
10000543c: 48 89 bd a8 fb ff ff        	movq	%rdi, -1112(%rbp)
100005443: 48 89 cf                    	movq	%rcx, %rdi
100005446: 89 85 a4 fb ff ff           	movl	%eax, -1116(%rbp)
10000544c: e8 df f4 ff ff              	callq	-2849 <_get_owd>
100005451: 8b 95 c8 fb ff ff           	movl	-1080(%rbp), %edx
100005457: 48 8b bd a8 fb ff ff        	movq	-1112(%rbp), %rdi
10000545e: 48 89 c6                    	movq	%rax, %rsi
100005461: e8 4a fc ff ff              	callq	-950 <_d_point_validat>
100005466: 89 85 cc fb ff ff           	movl	%eax, -1076(%rbp)
10000546c: 83 bd cc fb ff ff ff        	cmpl	$-1, -1076(%rbp)
100005473: 0f 85 97 00 00 00           	jne	151 <_d_point_extend+0x280>
100005479: 48 8b bd d0 fb ff ff        	movq	-1072(%rbp), %rdi
100005480: 48 8b 85 e0 fb ff ff        	movq	-1056(%rbp), %rax
100005487: 48 89 bd 98 fb ff ff        	movq	%rdi, -1128(%rbp)
10000548e: 48 89 c7                    	movq	%rax, %rdi
100005491: e8 aa 96 00 00              	callq	38570 <_ft_strdup>
100005496: 48 8b bd 98 fb ff ff        	movq	-1128(%rbp), %rdi
10000549d: 48 89 c6                    	movq	%rax, %rsi
1000054a0: e8 bb 39 00 00              	callq	14779 <_ft_strjoin_free>
1000054a5: 48 89 85 d0 fb ff ff        	movq	%rax, -1072(%rbp)
1000054ac: 48 8b bd d0 fb ff ff        	movq	-1072(%rbp), %rdi
1000054b3: 48 8d 05 34 a3 00 00        	leaq	41780(%rip), %rax
1000054ba: 48 89 bd 90 fb ff ff        	movq	%rdi, -1136(%rbp)
1000054c1: 48 89 c7                    	movq	%rax, %rdi
1000054c4: e8 67 f4 ff ff              	callq	-2969 <_get_owd>
1000054c9: 48 8b bd 90 fb ff ff        	movq	-1136(%rbp), %rdi
1000054d0: 48 89 c6                    	movq	%rax, %rsi
1000054d3: e8 f8 f4 ff ff              	callq	-2824 <_reset_env>
1000054d8: 48 8b bd d0 fb ff ff        	movq	-1072(%rbp), %rdi
1000054df: e8 38 a0 00 00              	callq	41016 <dyld_stub_binder+0x10000f51c>
1000054e4: e8 eb 9f 00 00              	callq	40939 <dyld_stub_binder+0x10000f4d4>
1000054e9: 8b 38                       	movl	(%rax), %edi
1000054eb: e8 80 a0 00 00              	callq	41088 <dyld_stub_binder+0x10000f570>
1000054f0: 48 8d 3d bf a3 00 00        	leaq	41919(%rip), %rdi
1000054f7: 48 89 c6                    	movq	%rax, %rsi
1000054fa: b0 00                       	movb	$0, %al
1000054fc: e8 51 a0 00 00              	callq	41041 <dyld_stub_binder+0x10000f552>
100005501: c7 85 ec fb ff ff ff ff ff ff       	movl	$4294967295, -1044(%rbp)
10000550b: e9 fa 00 00 00              	jmp	250 <_d_point_extend+0x37a>
100005510: e9 eb 00 00 00              	jmp	235 <_d_point_extend+0x370>
100005515: 48 83 bd d8 fb ff ff 00     	cmpq	$0, -1064(%rbp)
10000551d: 0f 84 d8 00 00 00           	je	216 <_d_point_extend+0x36b>
100005523: 48 8b bd e0 fb ff ff        	movq	-1056(%rbp), %rdi
10000552a: e8 81 f3 ff ff              	callq	-3199 <_stat_check>
10000552f: 83 f8 00                    	cmpl	$0, %eax
100005532: 0f 85 0f 00 00 00           	jne	15 <_d_point_extend+0x2b7>
100005538: c7 85 ec fb ff ff ff ff ff ff       	movl	$4294967295, -1044(%rbp)
100005542: e9 c3 00 00 00              	jmp	195 <_d_point_extend+0x37a>
100005547: 48 8b bd e0 fb ff ff        	movq	-1056(%rbp), %rdi
10000554e: e8 9f 9f 00 00              	callq	40863 <dyld_stub_binder+0x10000f4f2>
100005553: 89 85 cc fb ff ff           	movl	%eax, -1076(%rbp)
100005559: 83 bd cc fb ff ff ff        	cmpl	$-1, -1076(%rbp)
100005560: 0f 85 4d 00 00 00           	jne	77 <_d_point_extend+0x323>
100005566: 48 8b bd d0 fb ff ff        	movq	-1072(%rbp), %rdi
10000556d: e8 aa 9f 00 00              	callq	40874 <dyld_stub_binder+0x10000f51c>
100005572: 48 8b b5 e0 fb ff ff        	movq	-1056(%rbp), %rsi
100005579: 48 89 b5 88 fb ff ff        	movq	%rsi, -1144(%rbp)
100005580: e8 4f 9f 00 00              	callq	40783 <dyld_stub_binder+0x10000f4d4>
100005585: 8b 38                       	movl	(%rax), %edi
100005587: e8 e4 9f 00 00              	callq	40932 <dyld_stub_binder+0x10000f570>
10000558c: 48 8d 3d b4 a2 00 00        	leaq	41652(%rip), %rdi
100005593: 48 8b b5 88 fb ff ff        	movq	-1144(%rbp), %rsi
10000559a: 48 89 c2                    	movq	%rax, %rdx
10000559d: b0 00                       	movb	$0, %al
10000559f: e8 ae 9f 00 00              	callq	40878 <dyld_stub_binder+0x10000f552>
1000055a4: c7 85 ec fb ff ff ff ff ff ff       	movl	$4294967295, -1044(%rbp)
1000055ae: e9 57 00 00 00              	jmp	87 <_d_point_extend+0x37a>
1000055b3: 48 8d bd f0 fb ff ff        	leaq	-1040(%rbp), %rdi
1000055ba: be 00 04 00 00              	movl	$1024, %esi
1000055bf: e8 5e 9f 00 00              	callq	40798 <dyld_stub_binder+0x10000f522>
1000055c4: 48 8d bd f0 fb ff ff        	leaq	-1040(%rbp), %rdi
1000055cb: 48 8b b5 d0 fb ff ff        	movq	-1072(%rbp), %rsi
1000055d2: 48 89 85 80 fb ff ff        	movq	%rax, -1152(%rbp)
1000055d9: e8 f2 f3 ff ff              	callq	-3086 <_reset_env>
1000055de: 48 8b bd d0 fb ff ff        	movq	-1072(%rbp), %rdi
1000055e5: e8 32 9f 00 00              	callq	40754 <dyld_stub_binder+0x10000f51c>
1000055ea: 8b 8d cc fb ff ff           	movl	-1076(%rbp), %ecx
1000055f0: 89 8d ec fb ff ff           	movl	%ecx, -1044(%rbp)
1000055f6: e9 0f 00 00 00              	jmp	15 <_d_point_extend+0x37a>
1000055fb: e9 00 00 00 00              	jmp	0 <_d_point_extend+0x370>
100005600: c7 85 ec fb ff ff 01 00 00 00       	movl	$1, -1044(%rbp)
10000560a: 8b 85 ec fb ff ff           	movl	-1044(%rbp), %eax
100005610: 48 8b 0d e9 a9 00 00        	movq	43497(%rip), %rcx
100005617: 48 8b 09                    	movq	(%rcx), %rcx
10000561a: 48 8b 55 f8                 	movq	-8(%rbp), %rdx
10000561e: 48 39 d1                    	cmpq	%rdx, %rcx
100005621: 89 85 7c fb ff ff           	movl	%eax, -1156(%rbp)
100005627: 0f 85 0f 00 00 00           	jne	15 <_d_point_extend+0x3ac>
10000562d: 8b 85 7c fb ff ff           	movl	-1156(%rbp), %eax
100005633: 48 81 c4 90 04 00 00        	addq	$1168, %rsp
10000563a: 5d                          	popq	%rbp
10000563b: c3                          	retq
10000563c: e8 99 9e 00 00              	callq	40601 <dyld_stub_binder+0x10000f4da>
100005641: 0f 0b                       	ud2
100005643: 66 2e 0f 1f 84 00 00 00 00 00       	nopw	%cs:(%rax,%rax)
10000564d: 0f 1f 00                    	nopl	(%rax)

0000000100005650 _tt_cd:
100005650: 55                          	pushq	%rbp
100005651: 48 89 e5                    	movq	%rsp, %rbp
100005654: 48 81 ec 70 08 00 00        	subq	$2160, %rsp
10000565b: 48 8d 85 f0 fb ff ff        	leaq	-1040(%rbp), %rax
100005662: 48 8b 0d 97 a9 00 00        	movq	43415(%rip), %rcx
100005669: 48 8b 09                    	movq	(%rcx), %rcx
10000566c: 48 89 4d f8                 	movq	%rcx, -8(%rbp)
100005670: 48 89 bd e0 f7 ff ff        	movq	%rdi, -2080(%rbp)
100005677: c7 85 cc f7 ff ff 00 00 00 00       	movl	$0, -2100(%rbp)
100005681: 48 8b 8d e0 f7 ff ff        	movq	-2080(%rbp), %rcx
100005688: 48 89 8d d8 f7 ff ff        	movq	%rcx, -2088(%rbp)
10000568f: 48 89 c7                    	movq	%rax, %rdi
100005692: be 00 04 00 00              	movl	$1024, %esi
100005697: e8 86 9e 00 00              	callq	40582 <dyld_stub_binder+0x10000f522>
10000569c: 48 83 f8 00                 	cmpq	$0, %rax
1000056a0: 0f 85 07 00 00 00           	jne	7 <_tt_cd+0x5d>
1000056a6: c6 85 f0 fb ff ff 00        	movb	$0, -1040(%rbp)
1000056ad: 48 8b 85 d8 f7 ff ff        	movq	-2088(%rbp), %rax
1000056b4: 48 8b 78 10                 	movq	16(%rax), %rdi
1000056b8: e8 c3 0a 00 00              	callq	2755 <_expand_line>
1000056bd: 48 8b 8d d8 f7 ff ff        	movq	-2088(%rbp), %rcx
1000056c4: 48 8b 79 10                 	movq	16(%rcx), %rdi
1000056c8: 48 89 85 b0 f7 ff ff        	movq	%rax, -2128(%rbp)
1000056cf: e8 5c 27 00 00              	callq	10076 <_nodes_join_b>
1000056d4: 48 89 85 d0 f7 ff ff        	movq	%rax, -2096(%rbp)
1000056db: 48 8b 85 d0 f7 ff ff        	movq	-2096(%rbp), %rax
1000056e2: 80 38 00                    	cmpb	$0, (%rax)
1000056e5: 0f 85 20 00 00 00           	jne	32 <_tt_cd+0xbb>
1000056eb: 31 ff                       	xorl	%edi, %edi
1000056ed: 48 8d 95 f0 fb ff ff        	leaq	-1040(%rbp), %rdx
1000056f4: 48 8b b5 d0 f7 ff ff        	movq	-2096(%rbp), %rsi
1000056fb: e8 30 f6 ff ff              	callq	-2512 <_ft_go_to>
100005700: 89 85 cc f7 ff ff           	movl	%eax, -2100(%rbp)
100005706: e9 58 01 00 00              	jmp	344 <_tt_cd+0x213>
10000570b: 48 8b bd d0 f7 ff ff        	movq	-2096(%rbp), %rdi
100005712: 48 8d 35 f3 a1 00 00        	leaq	41459(%rip), %rsi
100005719: ba 02 00 00 00              	movl	$2, %edx
10000571e: e8 1d 92 00 00              	callq	37405 <_ft_memcmp>
100005723: 83 f8 00                    	cmpl	$0, %eax
100005726: 0f 85 23 00 00 00           	jne	35 <_tt_cd+0xff>
10000572c: 48 8d 95 f0 fb ff ff        	leaq	-1040(%rbp), %rdx
100005733: 48 8b b5 d0 f7 ff ff        	movq	-2096(%rbp), %rsi
10000573a: bf 01 00 00 00              	movl	$1, %edi
10000573f: e8 ec f5 ff ff              	callq	-2580 <_ft_go_to>
100005744: 89 85 cc f7 ff ff           	movl	%eax, -2100(%rbp)
10000574a: e9 0f 01 00 00              	jmp	271 <_tt_cd+0x20e>
10000574f: 48 8b bd d0 f7 ff ff        	movq	-2096(%rbp), %rdi
100005756: 48 8d 35 10 a1 00 00        	leaq	41232(%rip), %rsi
10000575d: ba 02 00 00 00              	movl	$2, %edx
100005762: e8 d9 91 00 00              	callq	37337 <_ft_memcmp>
100005767: 83 f8 00                    	cmpl	$0, %eax
10000576a: 0f 84 21 00 00 00           	je	33 <_tt_cd+0x141>
100005770: 48 8b bd d0 f7 ff ff        	movq	-2096(%rbp), %rdi
100005777: 48 8d 35 68 9f 00 00        	leaq	40808(%rip), %rsi
10000577e: ba 01 00 00 00              	movl	$1, %edx
100005783: e8 b8 91 00 00              	callq	37304 <_ft_memcmp>
100005788: 83 f8 00                    	cmpl	$0, %eax
10000578b: 0f 85 1e 00 00 00           	jne	30 <_tt_cd+0x15f>
100005791: 48 8d b5 f0 fb ff ff        	leaq	-1040(%rbp), %rsi
100005798: 48 8b bd d0 f7 ff ff        	movq	-2096(%rbp), %rdi
10000579f: e8 ec fa ff ff              	callq	-1300 <_d_point_extend>
1000057a4: 89 85 cc f7 ff ff           	movl	%eax, -2100(%rbp)
1000057aa: e9 aa 00 00 00              	jmp	170 <_tt_cd+0x209>
1000057af: 48 8b bd d0 f7 ff ff        	movq	-2096(%rbp), %rdi
1000057b6: e8 f5 f0 ff ff              	callq	-3851 <_stat_check>
1000057bb: 83 f8 00                    	cmpl	$0, %eax
1000057be: 0f 85 0f 00 00 00           	jne	15 <_tt_cd+0x183>
1000057c4: c7 85 ec f7 ff ff 01 00 00 00       	movl	$1, -2068(%rbp)
1000057ce: e9 3c 01 00 00              	jmp	316 <_tt_cd+0x2bf>
1000057d3: 48 8b bd d0 f7 ff ff        	movq	-2096(%rbp), %rdi
1000057da: e8 13 9d 00 00              	callq	40211 <dyld_stub_binder+0x10000f4f2>
1000057df: 89 85 cc f7 ff ff           	movl	%eax, -2100(%rbp)
1000057e5: 83 bd cc f7 ff ff ff        	cmpl	$-1, -2100(%rbp)
1000057ec: 0f 85 37 00 00 00           	jne	55 <_tt_cd+0x1d9>
1000057f2: 48 8b b5 d0 f7 ff ff        	movq	-2096(%rbp), %rsi
1000057f9: 48 89 b5 a8 f7 ff ff        	movq	%rsi, -2136(%rbp)
100005800: e8 cf 9c 00 00              	callq	40143 <dyld_stub_binder+0x10000f4d4>
100005805: 8b 38                       	movl	(%rax), %edi
100005807: e8 64 9d 00 00              	callq	40292 <dyld_stub_binder+0x10000f570>
10000580c: 48 8d 3d 34 a0 00 00        	leaq	41012(%rip), %rdi
100005813: 48 8b b5 a8 f7 ff ff        	movq	-2136(%rbp), %rsi
10000581a: 48 89 c2                    	movq	%rax, %rdx
10000581d: b0 00                       	movb	$0, %al
10000581f: e8 2e 9d 00 00              	callq	40238 <dyld_stub_binder+0x10000f552>
100005824: e9 2b 00 00 00              	jmp	43 <_tt_cd+0x204>
100005829: 48 8d bd f0 f7 ff ff        	leaq	-2064(%rbp), %rdi
100005830: be 00 04 00 00              	movl	$1024, %esi
100005835: e8 e8 9c 00 00              	callq	40168 <dyld_stub_binder+0x10000f522>
10000583a: 48 8d b5 f0 fb ff ff        	leaq	-1040(%rbp), %rsi
100005841: 48 8d bd f0 f7 ff ff        	leaq	-2064(%rbp), %rdi
100005848: 48 89 85 a0 f7 ff ff        	movq	%rax, -2144(%rbp)
10000584f: e8 7c f1 ff ff              	callq	-3716 <_reset_env>
100005854: e9 00 00 00 00              	jmp	0 <_tt_cd+0x209>
100005859: e9 00 00 00 00              	jmp	0 <_tt_cd+0x20e>
10000585e: e9 00 00 00 00              	jmp	0 <_tt_cd+0x213>
100005863: 31 c0                       	xorl	%eax, %eax
100005865: 89 c7                       	movl	%eax, %edi
100005867: be 03 00 00 00              	movl	$3, %esi
10000586c: e8 7f 1d 00 00              	callq	7551 <_set__get_option_variables>
100005871: 48 89 85 c0 f7 ff ff        	movq	%rax, -2112(%rbp)
100005878: 48 8b 85 c0 f7 ff ff        	movq	-2112(%rbp), %rax
10000587f: 48 8b 00                    	movq	(%rax), %rax
100005882: 48 89 85 b8 f7 ff ff        	movq	%rax, -2120(%rbp)
100005889: 48 83 bd b8 f7 ff ff 00     	cmpq	$0, -2120(%rbp)
100005891: 0f 84 2f 00 00 00           	je	47 <_tt_cd+0x276>
100005897: 48 8b 85 b8 f7 ff ff        	movq	-2120(%rbp), %rax
10000589e: 48 8b 30                    	movq	(%rax), %rsi
1000058a1: 48 8d 3d 66 a0 00 00        	leaq	41062(%rip), %rdi
1000058a8: b0 00                       	movb	$0, %al
1000058aa: e8 a3 9c 00 00              	callq	40099 <dyld_stub_binder+0x10000f552>
1000058af: 48 8b 8d b8 f7 ff ff        	movq	-2120(%rbp), %rcx
1000058b6: 48 8b 49 08                 	movq	8(%rcx), %rcx
1000058ba: 48 89 8d b8 f7 ff ff        	movq	%rcx, -2120(%rbp)
1000058c1: e9 c3 ff ff ff              	jmp	-61 <_tt_cd+0x239>
1000058c6: 48 8d 3d 47 a0 00 00        	leaq	41031(%rip), %rdi
1000058cd: e8 86 9c 00 00              	callq	40070 <dyld_stub_binder+0x10000f558>
1000058d2: 89 85 9c f7 ff ff           	movl	%eax, -2148(%rbp)
1000058d8: b0 00                       	movb	$0, %al
1000058da: e8 11 09 00 00              	callq	2321 <_tt_pwd>
1000058df: 48 8d 3d 2e a0 00 00        	leaq	41006(%rip), %rdi
1000058e6: 89 85 98 f7 ff ff           	movl	%eax, -2152(%rbp)
1000058ec: e8 67 9c 00 00              	callq	40039 <dyld_stub_binder+0x10000f558>
1000058f1: 48 8b bd d0 f7 ff ff        	movq	-2096(%rbp), %rdi
1000058f8: 89 85 94 f7 ff ff           	movl	%eax, -2156(%rbp)
1000058fe: e8 19 9c 00 00              	callq	39961 <dyld_stub_binder+0x10000f51c>
100005903: 8b 85 cc f7 ff ff           	movl	-2100(%rbp), %eax
100005909: 89 85 ec f7 ff ff           	movl	%eax, -2068(%rbp)
10000590f: 8b 85 ec f7 ff ff           	movl	-2068(%rbp), %eax
100005915: 48 8b 0d e4 a6 00 00        	movq	42724(%rip), %rcx
10000591c: 48 8b 09                    	movq	(%rcx), %rcx
10000591f: 48 8b 55 f8                 	movq	-8(%rbp), %rdx
100005923: 48 39 d1                    	cmpq	%rdx, %rcx
100005926: 89 85 90 f7 ff ff           	movl	%eax, -2160(%rbp)
10000592c: 0f 85 0f 00 00 00           	jne	15 <_tt_cd+0x2f1>
100005932: 8b 85 90 f7 ff ff           	movl	-2160(%rbp), %eax
100005938: 48 81 c4 70 08 00 00        	addq	$2160, %rsp
10000593f: 5d                          	popq	%rbp
100005940: c3                          	retq
100005941: e8 94 9b 00 00              	callq	39828 <dyld_stub_binder+0x10000f4da>
100005946: 0f 0b                       	ud2
100005948: 90                          	nop
100005949: 90                          	nop
10000594a: 90                          	nop
10000594b: 90                          	nop
10000594c: 90                          	nop
10000594d: 90                          	nop
10000594e: 90                          	nop
10000594f: 90                          	nop

0000000100005950 _tilde_replace:
100005950: 55                          	pushq	%rbp
100005951: 48 89 e5                    	movq	%rsp, %rbp
100005954: 48 83 ec 30                 	subq	$48, %rsp
100005958: 48 89 7d f0                 	movq	%rdi, -16(%rbp)
10000595c: 48 8b 7d f0                 	movq	-16(%rbp), %rdi
100005960: e8 7b 92 00 00              	callq	37499 <_ft_strlen>
100005965: 48 89 45 d8                 	movq	%rax, -40(%rbp)
100005969: 48 8d 3d d9 9f 00 00        	leaq	40921(%rip), %rdi
100005970: e8 b3 9b 00 00              	callq	39859 <dyld_stub_binder+0x10000f528>
100005975: 48 89 45 e0                 	movq	%rax, -32(%rbp)
100005979: 48 83 7d d8 01              	cmpq	$1, -40(%rbp)
10000597e: 0f 85 32 00 00 00           	jne	50 <_tilde_replace+0x66>
100005984: 48 83 7d e0 00              	cmpq	$0, -32(%rbp)
100005989: 0f 84 12 00 00 00           	je	18 <_tilde_replace+0x51>
10000598f: 48 8b 7d e0                 	movq	-32(%rbp), %rdi
100005993: e8 a8 91 00 00              	callq	37288 <_ft_strdup>
100005998: 48 89 45 f8                 	movq	%rax, -8(%rbp)
10000599c: e9 04 02 00 00              	jmp	516 <_tilde_replace+0x255>
1000059a1: 48 8d 3d a6 9f 00 00        	leaq	40870(%rip), %rdi
1000059a8: e8 93 91 00 00              	callq	37267 <_ft_strdup>
1000059ad: 48 89 45 f8                 	movq	%rax, -8(%rbp)
1000059b1: e9 ef 01 00 00              	jmp	495 <_tilde_replace+0x255>
1000059b6: 48 83 7d d8 01              	cmpq	$1, -40(%rbp)
1000059bb: 0f 86 5d 00 00 00           	jbe	93 <_tilde_replace+0xce>
1000059c1: 48 8b 45 f0                 	movq	-16(%rbp), %rax
1000059c5: 0f be 48 01                 	movsbl	1(%rax), %ecx
1000059c9: 83 f9 2f                    	cmpl	$47, %ecx
1000059cc: 0f 85 4c 00 00 00           	jne	76 <_tilde_replace+0xce>
1000059d2: 48 83 7d e0 00              	cmpq	$0, -32(%rbp)
1000059d7: 0f 84 1f 00 00 00           	je	31 <_tilde_replace+0xac>
1000059dd: 48 8b 7d e0                 	movq	-32(%rbp), %rdi
1000059e1: 48 8b 45 f0                 	movq	-16(%rbp), %rax
1000059e5: 48 05 01 00 00 00           	addq	$1, %rax
1000059eb: 48 89 c6                    	movq	%rax, %rsi
1000059ee: e8 2d 95 00 00              	callq	38189 <_ft_strjoin>
1000059f3: 48 89 45 f8                 	movq	%rax, -8(%rbp)
1000059f7: e9 a9 01 00 00              	jmp	425 <_tilde_replace+0x255>
1000059fc: 48 8b 45 f0                 	movq	-16(%rbp), %rax
100005a00: 48 05 01 00 00 00           	addq	$1, %rax
100005a06: 48 8d 3d 41 9f 00 00        	leaq	40769(%rip), %rdi
100005a0d: 48 89 c6                    	movq	%rax, %rsi
100005a10: e8 0b 95 00 00              	callq	38155 <_ft_strjoin>
100005a15: 48 89 45 f8                 	movq	%rax, -8(%rbp)
100005a19: e9 87 01 00 00              	jmp	391 <_tilde_replace+0x255>
100005a1e: 48 83 7d d8 01              	cmpq	$1, -40(%rbp)
100005a23: 0f 86 6a 01 00 00           	jbe	362 <_tilde_replace+0x243>
100005a29: 48 8b 45 f0                 	movq	-16(%rbp), %rax
100005a2d: 0f be 48 01                 	movsbl	1(%rax), %ecx
100005a31: 83 f9 2b                    	cmpl	$43, %ecx
100005a34: 0f 84 11 00 00 00           	je	17 <_tilde_replace+0xfb>
100005a3a: 48 8b 45 f0                 	movq	-16(%rbp), %rax
100005a3e: 0f be 48 01                 	movsbl	1(%rax), %ecx
100005a42: 83 f9 2d                    	cmpl	$45, %ecx
100005a45: 0f 85 48 01 00 00           	jne	328 <_tilde_replace+0x243>
100005a4b: 48 8b 45 f0                 	movq	-16(%rbp), %rax
100005a4f: 0f be 48 01                 	movsbl	1(%rax), %ecx
100005a53: 83 f9 2b                    	cmpl	$43, %ecx
100005a56: 0f 85 0e 00 00 00           	jne	14 <_tilde_replace+0x11a>
100005a5c: 48 8b 45 f0                 	movq	-16(%rbp), %rax
100005a60: 80 78 02 00                 	cmpb	$0, 2(%rax)
100005a64: 0f 84 2d 00 00 00           	je	45 <_tilde_replace+0x147>
100005a6a: 48 83 7d d8 02              	cmpq	$2, -40(%rbp)
100005a6f: 0f 82 71 00 00 00           	jb	113 <_tilde_replace+0x196>
100005a75: 48 8b 45 f0                 	movq	-16(%rbp), %rax
100005a79: 0f be 48 01                 	movsbl	1(%rax), %ecx
100005a7d: 83 f9 2b                    	cmpl	$43, %ecx
100005a80: 0f 85 60 00 00 00           	jne	96 <_tilde_replace+0x196>
100005a86: 48 8b 45 f0                 	movq	-16(%rbp), %rax
100005a8a: 0f be 48 02                 	movsbl	2(%rax), %ecx
100005a8e: 83 f9 2f                    	cmpl	$47, %ecx
100005a91: 0f 85 4f 00 00 00           	jne	79 <_tilde_replace+0x196>
100005a97: 48 8d 3d 50 9d 00 00        	leaq	40272(%rip), %rdi
100005a9e: e8 8d ee ff ff              	callq	-4467 <_get_owd>
100005aa3: 48 89 45 e0                 	movq	%rax, -32(%rbp)
100005aa7: 48 83 7d e0 00              	cmpq	$0, -32(%rbp)
100005aac: 0f 84 1f 00 00 00           	je	31 <_tilde_replace+0x181>
100005ab2: 48 8b 7d e0                 	movq	-32(%rbp), %rdi
100005ab6: 48 8b 45 f0                 	movq	-16(%rbp), %rax
100005aba: 48 05 02 00 00 00           	addq	$2, %rax
100005ac0: 48 89 c6                    	movq	%rax, %rsi
100005ac3: e8 58 94 00 00              	callq	37976 <_ft_strjoin>
100005ac8: 48 89 45 f8                 	movq	%rax, -8(%rbp)
100005acc: e9 d4 00 00 00              	jmp	212 <_tilde_replace+0x255>
100005ad1: 48 8d 3d 76 9e 00 00        	leaq	40566(%rip), %rdi
100005ad8: e8 63 90 00 00              	callq	36963 <_ft_strdup>
100005add: 48 89 45 f8                 	movq	%rax, -8(%rbp)
100005ae1: e9 bf 00 00 00              	jmp	191 <_tilde_replace+0x255>
100005ae6: 48 8b 45 f0                 	movq	-16(%rbp), %rax
100005aea: 0f be 48 01                 	movsbl	1(%rax), %ecx
100005aee: 83 f9 2d                    	cmpl	$45, %ecx
100005af1: 0f 85 0e 00 00 00           	jne	14 <_tilde_replace+0x1b5>
100005af7: 48 8b 45 f0                 	movq	-16(%rbp), %rax
100005afb: 80 78 02 00                 	cmpb	$0, 2(%rax)
100005aff: 0f 84 2d 00 00 00           	je	45 <_tilde_replace+0x1e2>
100005b05: 48 83 7d d8 02              	cmpq	$2, -40(%rbp)
100005b0a: 0f 86 71 00 00 00           	jbe	113 <_tilde_replace+0x231>
100005b10: 48 8b 45 f0                 	movq	-16(%rbp), %rax
100005b14: 0f be 48 01                 	movsbl	1(%rax), %ecx
100005b18: 83 f9 2d                    	cmpl	$45, %ecx
100005b1b: 0f 85 60 00 00 00           	jne	96 <_tilde_replace+0x231>
100005b21: 48 8b 45 f0                 	movq	-16(%rbp), %rax
100005b25: 0f be 48 02                 	movsbl	2(%rax), %ecx
100005b29: 83 f9 2f                    	cmpl	$47, %ecx
100005b2c: 0f 85 4f 00 00 00           	jne	79 <_tilde_replace+0x231>
100005b32: 48 8d 3d ba 9c 00 00        	leaq	40122(%rip), %rdi
100005b39: e8 f2 ed ff ff              	callq	-4622 <_get_owd>
100005b3e: 48 89 45 e0                 	movq	%rax, -32(%rbp)
100005b42: 48 83 7d e0 00              	cmpq	$0, -32(%rbp)
100005b47: 0f 84 1f 00 00 00           	je	31 <_tilde_replace+0x21c>
100005b4d: 48 8b 7d e0                 	movq	-32(%rbp), %rdi
100005b51: 48 8b 45 f0                 	movq	-16(%rbp), %rax
100005b55: 48 05 02 00 00 00           	addq	$2, %rax
100005b5b: 48 89 c6                    	movq	%rax, %rsi
100005b5e: e8 bd 93 00 00              	callq	37821 <_ft_strjoin>
100005b63: 48 89 45 f8                 	movq	%rax, -8(%rbp)
100005b67: e9 39 00 00 00              	jmp	57 <_tilde_replace+0x255>
100005b6c: 48 8d 3d db 9d 00 00        	leaq	40411(%rip), %rdi
100005b73: e8 c8 8f 00 00              	callq	36808 <_ft_strdup>
100005b78: 48 89 45 f8                 	movq	%rax, -8(%rbp)
100005b7c: e9 24 00 00 00              	jmp	36 <_tilde_replace+0x255>
100005b81: 48 8b 7d f0                 	movq	-16(%rbp), %rdi
100005b85: e8 b6 8f 00 00              	callq	36790 <_ft_strdup>
100005b8a: 48 89 45 f8                 	movq	%rax, -8(%rbp)
100005b8e: e9 12 00 00 00              	jmp	18 <_tilde_replace+0x255>
100005b93: e9 00 00 00 00              	jmp	0 <_tilde_replace+0x248>
100005b98: e9 00 00 00 00              	jmp	0 <_tilde_replace+0x24d>
100005b9d: 48 c7 45 f8 00 00 00 00     	movq	$0, -8(%rbp)
100005ba5: 48 8b 45 f8                 	movq	-8(%rbp), %rax
100005ba9: 48 83 c4 30                 	addq	$48, %rsp
100005bad: 5d                          	popq	%rbp
100005bae: c3                          	retq
100005baf: 90                          	nop

0000000100005bb0 _space_skip:
100005bb0: 55                          	pushq	%rbp
100005bb1: 48 89 e5                    	movq	%rsp, %rbp
100005bb4: 48 89 7d f8                 	movq	%rdi, -8(%rbp)
100005bb8: c7 45 f4 00 00 00 00        	movl	$0, -12(%rbp)
100005bbf: 31 c0                       	xorl	%eax, %eax
100005bc1: 48 8b 4d f8                 	movq	-8(%rbp), %rcx
100005bc5: 48 63 55 f4                 	movslq	-12(%rbp), %rdx
100005bc9: 0f be 34 11                 	movsbl	(%rcx,%rdx), %esi
100005bcd: 83 fe 00                    	cmpl	$0, %esi
100005bd0: 88 45 f3                    	movb	%al, -13(%rbp)
100005bd3: 0f 84 17 00 00 00           	je	23 <_space_skip+0x40>
100005bd9: 48 8b 45 f8                 	movq	-8(%rbp), %rax
100005bdd: 48 63 4d f4                 	movslq	-12(%rbp), %rcx
100005be1: 0f be 14 08                 	movsbl	(%rax,%rcx), %edx
100005be5: 83 fa 20                    	cmpl	$32, %edx
100005be8: 40 0f 94 c6                 	sete	%sil
100005bec: 40 88 75 f3                 	movb	%sil, -13(%rbp)
100005bf0: 8a 45 f3                    	movb	-13(%rbp), %al
100005bf3: a8 01                       	testb	$1, %al
100005bf5: 0f 85 05 00 00 00           	jne	5 <_space_skip+0x50>
100005bfb: e9 0e 00 00 00              	jmp	14 <_space_skip+0x5e>
100005c00: 8b 45 f4                    	movl	-12(%rbp), %eax
100005c03: 83 c0 01                    	addl	$1, %eax
100005c06: 89 45 f4                    	movl	%eax, -12(%rbp)
100005c09: e9 b1 ff ff ff              	jmp	-79 <_space_skip+0xf>
100005c0e: 8b 45 f4                    	movl	-12(%rbp), %eax
100005c11: 5d                          	popq	%rbp
100005c12: c3                          	retq
100005c13: 66 2e 0f 1f 84 00 00 00 00 00       	nopw	%cs:(%rax,%rax)
100005c1d: 0f 1f 00                    	nopl	(%rax)

0000000100005c20 _is_env_var:
100005c20: 55                          	pushq	%rbp
100005c21: 48 89 e5                    	movq	%rsp, %rbp
100005c24: 48 83 ec 30                 	subq	$48, %rsp
100005c28: 31 c0                       	xorl	%eax, %eax
100005c2a: 89 c1                       	movl	%eax, %ecx
100005c2c: 48 89 7d f0                 	movq	%rdi, -16(%rbp)
100005c30: 48 89 cf                    	movq	%rcx, %rdi
100005c33: be 03 00 00 00              	movl	$3, %esi
100005c38: e8 b3 19 00 00              	callq	6579 <_set__get_option_variables>
100005c3d: 48 89 45 e8                 	movq	%rax, -24(%rbp)
100005c41: 48 8b 45 e8                 	movq	-24(%rbp), %rax
100005c45: 48 8b 00                    	movq	(%rax), %rax
100005c48: 48 89 45 e0                 	movq	%rax, -32(%rbp)
100005c4c: 48 8b 7d f0                 	movq	-16(%rbp), %rdi
100005c50: e8 8b 8f 00 00              	callq	36747 <_ft_strlen>
100005c55: 48 2d 01 00 00 00           	subq	$1, %rax
100005c5b: 48 89 45 d8                 	movq	%rax, -40(%rbp)
100005c5f: 48 8b 45 e8                 	movq	-24(%rbp), %rax
100005c63: 0f bf 50 08                 	movswl	8(%rax), %edx
100005c67: 89 55 d4                    	movl	%edx, -44(%rbp)
100005c6a: 8b 45 d4                    	movl	-44(%rbp), %eax
100005c6d: 89 c1                       	movl	%eax, %ecx
100005c6f: 83 c1 ff                    	addl	$-1, %ecx
100005c72: 89 4d d4                    	movl	%ecx, -44(%rbp)
100005c75: 83 f8 00                    	cmpl	$0, %eax
100005c78: 0f 84 71 00 00 00           	je	113 <_is_env_var+0xcf>
100005c7e: 48 8b 45 f0                 	movq	-16(%rbp), %rax
100005c82: 48 05 01 00 00 00           	addq	$1, %rax
100005c88: 48 8b 4d e0                 	movq	-32(%rbp), %rcx
100005c8c: 48 8b 31                    	movq	(%rcx), %rsi
100005c8f: 48 8b 55 d8                 	movq	-40(%rbp), %rdx
100005c93: 48 89 c7                    	movq	%rax, %rdi
100005c96: e8 a5 8f 00 00              	callq	36773 <_ft_strncmp>
100005c9b: 83 f8 00                    	cmpl	$0, %eax
100005c9e: 0f 85 3a 00 00 00           	jne	58 <_is_env_var+0xbe>
100005ca4: 48 8b 45 e0                 	movq	-32(%rbp), %rax
100005ca8: 48 8b 00                    	movq	(%rax), %rax
100005cab: 48 8b 4d d8                 	movq	-40(%rbp), %rcx
100005caf: 0f be 14 08                 	movsbl	(%rax,%rcx), %edx
100005cb3: 83 fa 3d                    	cmpl	$61, %edx
100005cb6: 0f 85 22 00 00 00           	jne	34 <_is_env_var+0xbe>
100005cbc: 48 8b 45 e0                 	movq	-32(%rbp), %rax
100005cc0: 48 8b 00                    	movq	(%rax), %rax
100005cc3: 48 03 45 d8                 	addq	-40(%rbp), %rax
100005cc7: 48 05 01 00 00 00           	addq	$1, %rax
100005ccd: 48 89 c7                    	movq	%rax, %rdi
100005cd0: e8 6b 8e 00 00              	callq	36459 <_ft_strdup>
100005cd5: 48 89 45 f8                 	movq	%rax, -8(%rbp)
100005cd9: e9 21 00 00 00              	jmp	33 <_is_env_var+0xdf>
100005cde: 48 8b 45 e0                 	movq	-32(%rbp), %rax
100005ce2: 48 8b 40 08                 	movq	8(%rax), %rax
100005ce6: 48 89 45 e0                 	movq	%rax, -32(%rbp)
100005cea: e9 7b ff ff ff              	jmp	-133 <_is_env_var+0x4a>
100005cef: 48 8d 3d 58 9c 00 00        	leaq	40024(%rip), %rdi
100005cf6: e8 45 8e 00 00              	callq	36421 <_ft_strdup>
100005cfb: 48 89 45 f8                 	movq	%rax, -8(%rbp)
100005cff: 48 8b 45 f8                 	movq	-8(%rbp), %rax
100005d03: 48 83 c4 30                 	addq	$48, %rsp
100005d07: 5d                          	popq	%rbp
100005d08: c3                          	retq
100005d09: 0f 1f 80 00 00 00 00        	nopl	(%rax)

0000000100005d10 _var_len:
100005d10: 55                          	pushq	%rbp
100005d11: 48 89 e5                    	movq	%rsp, %rbp
100005d14: 48 83 ec 10                 	subq	$16, %rsp
100005d18: 48 89 7d f8                 	movq	%rdi, -8(%rbp)
100005d1c: c7 45 f4 00 00 00 00        	movl	$0, -12(%rbp)
100005d23: 31 c0                       	xorl	%eax, %eax
100005d25: 48 8b 4d f8                 	movq	-8(%rbp), %rcx
100005d29: 48 63 55 f4                 	movslq	-12(%rbp), %rdx
100005d2d: 0f be 34 11                 	movsbl	(%rcx,%rdx), %esi
100005d31: 83 fe 00                    	cmpl	$0, %esi
100005d34: 88 45 f3                    	movb	%al, -13(%rbp)
100005d37: 0f 84 3c 00 00 00           	je	60 <_var_len+0x69>
100005d3d: 48 8b 45 f8                 	movq	-8(%rbp), %rax
100005d41: 48 63 4d f4                 	movslq	-12(%rbp), %rcx
100005d45: 0f be 3c 08                 	movsbl	(%rax,%rcx), %edi
100005d49: e8 72 8a 00 00              	callq	35442 <_ft_isalnum>
100005d4e: 83 f8 00                    	cmpl	$0, %eax
100005d51: b2 01                       	movb	$1, %dl
100005d53: 88 55 f2                    	movb	%dl, -14(%rbp)
100005d56: 0f 85 17 00 00 00           	jne	23 <_var_len+0x63>
100005d5c: 48 8b 45 f8                 	movq	-8(%rbp), %rax
100005d60: 48 63 4d f4                 	movslq	-12(%rbp), %rcx
100005d64: 0f be 14 08                 	movsbl	(%rax,%rcx), %edx
100005d68: 83 fa 5f                    	cmpl	$95, %edx
100005d6b: 40 0f 94 c6                 	sete	%sil
100005d6f: 40 88 75 f2                 	movb	%sil, -14(%rbp)
100005d73: 8a 45 f2                    	movb	-14(%rbp), %al
100005d76: 88 45 f3                    	movb	%al, -13(%rbp)
100005d79: 8a 45 f3                    	movb	-13(%rbp), %al
100005d7c: a8 01                       	testb	$1, %al
100005d7e: 0f 85 05 00 00 00           	jne	5 <_var_len+0x79>
100005d84: e9 0e 00 00 00              	jmp	14 <_var_len+0x87>
100005d89: 8b 45 f4                    	movl	-12(%rbp), %eax
100005d8c: 83 c0 01                    	addl	$1, %eax
100005d8f: 89 45 f4                    	movl	%eax, -12(%rbp)
100005d92: e9 8c ff ff ff              	jmp	-116 <_var_len+0x13>
100005d97: 8b 45 f4                    	movl	-12(%rbp), %eax
100005d9a: 48 83 c4 10                 	addq	$16, %rsp
100005d9e: 5d                          	popq	%rbp
100005d9f: c3                          	retq

0000000100005da0 _data_manipulate:
100005da0: 55                          	pushq	%rbp
100005da1: 48 89 e5                    	movq	%rsp, %rbp
100005da4: 48 83 ec 30                 	subq	$48, %rsp
100005da8: 48 89 7d f0                 	movq	%rdi, -16(%rbp)
100005dac: c7 45 ec 00 00 00 00        	movl	$0, -20(%rbp)
100005db3: 48 8b 45 f0                 	movq	-16(%rbp), %rax
100005db7: 48 05 01 00 00 00           	addq	$1, %rax
100005dbd: 48 89 45 e0                 	movq	%rax, -32(%rbp)
100005dc1: 31 c0                       	xorl	%eax, %eax
100005dc3: 48 8b 4d e0                 	movq	-32(%rbp), %rcx
100005dc7: 48 63 55 ec                 	movslq	-20(%rbp), %rdx
100005dcb: 0f be 34 11                 	movsbl	(%rcx,%rdx), %esi
100005dcf: 83 fe 00                    	cmpl	$0, %esi
100005dd2: 88 45 df                    	movb	%al, -33(%rbp)
100005dd5: 0f 84 36 00 00 00           	je	54 <_data_manipulate+0x71>
100005ddb: 48 8b 45 e0                 	movq	-32(%rbp), %rax
100005ddf: 48 63 4d ec                 	movslq	-20(%rbp), %rcx
100005de3: 0f be 3c 08                 	movsbl	(%rax,%rcx), %edi
100005de7: e8 14 8a 00 00              	callq	35348 <_ft_isalpha>
100005dec: 31 d2                       	xorl	%edx, %edx
100005dee: 83 f8 00                    	cmpl	$0, %eax
100005df1: 88 55 df                    	movb	%dl, -33(%rbp)
100005df4: 0f 85 17 00 00 00           	jne	23 <_data_manipulate+0x71>
100005dfa: 48 8b 45 e0                 	movq	-32(%rbp), %rax
100005dfe: 48 63 4d ec                 	movslq	-20(%rbp), %rcx
100005e02: 0f be 14 08                 	movsbl	(%rax,%rcx), %edx
100005e06: 83 fa 5f                    	cmpl	$95, %edx
100005e09: 40 0f 95 c6                 	setne	%sil
100005e0d: 40 88 75 df                 	movb	%sil, -33(%rbp)
100005e11: 8a 45 df                    	movb	-33(%rbp), %al
100005e14: a8 01                       	testb	$1, %al
100005e16: 0f 85 05 00 00 00           	jne	5 <_data_manipulate+0x81>
100005e1c: e9 0e 00 00 00              	jmp	14 <_data_manipulate+0x8f>
100005e21: 8b 45 ec                    	movl	-20(%rbp), %eax
100005e24: 83 c0 01                    	addl	$1, %eax
100005e27: 89 45 ec                    	movl	%eax, -20(%rbp)
100005e2a: e9 92 ff ff ff              	jmp	-110 <_data_manipulate+0x21>
100005e2f: 48 8b 45 e0                 	movq	-32(%rbp), %rax
100005e33: 48 63 4d ec                 	movslq	-20(%rbp), %rcx
100005e37: 80 3c 08 00                 	cmpb	$0, (%rax,%rcx)
100005e3b: 0f 85 26 00 00 00           	jne	38 <_data_manipulate+0xc7>
100005e41: 48 8d 3d 06 9b 00 00        	leaq	39686(%rip), %rdi
100005e48: e8 f3 8c 00 00              	callq	36083 <_ft_strdup>
100005e4d: 48 89 45 e0                 	movq	%rax, -32(%rbp)
100005e51: 48 8b 7d f0                 	movq	-16(%rbp), %rdi
100005e55: e8 c2 96 00 00              	callq	38594 <dyld_stub_binder+0x10000f51c>
100005e5a: 48 8b 45 e0                 	movq	-32(%rbp), %rax
100005e5e: 48 89 45 f8                 	movq	%rax, -8(%rbp)
100005e62: e9 70 00 00 00              	jmp	112 <_data_manipulate+0x137>
100005e67: 83 7d ec 00                 	cmpl	$0, -20(%rbp)
100005e6b: 0f 84 48 00 00 00           	je	72 <_data_manipulate+0x119>
100005e71: 48 8b 45 e0                 	movq	-32(%rbp), %rax
100005e75: 48 63 4d ec                 	movslq	-20(%rbp), %rcx
100005e79: 48 01 c8                    	addq	%rcx, %rax
100005e7c: 48 8b 4d e0                 	movq	-32(%rbp), %rcx
100005e80: 48 63 55 ec                 	movslq	-20(%rbp), %rdx
100005e84: 48 01 d1                    	addq	%rdx, %rcx
100005e87: 48 89 cf                    	movq	%rcx, %rdi
100005e8a: 48 89 45 d0                 	movq	%rax, -48(%rbp)
100005e8e: e8 4d 8d 00 00              	callq	36173 <_ft_strlen>
100005e93: 48 8b 7d d0                 	movq	-48(%rbp), %rdi
100005e97: 48 89 c6                    	movq	%rax, %rsi
100005e9a: e8 81 0f 00 00              	callq	3969 <_ft_strndup>
100005e9f: 48 89 45 e0                 	movq	%rax, -32(%rbp)
100005ea3: 48 8b 7d f0                 	movq	-16(%rbp), %rdi
100005ea7: e8 70 96 00 00              	callq	38512 <dyld_stub_binder+0x10000f51c>
100005eac: 48 8b 45 e0                 	movq	-32(%rbp), %rax
100005eb0: 48 89 45 f8                 	movq	%rax, -8(%rbp)
100005eb4: e9 1e 00 00 00              	jmp	30 <_data_manipulate+0x137>
100005eb9: 48 8b 7d f0                 	movq	-16(%rbp), %rdi
100005ebd: e8 5e fd ff ff              	callq	-674 <_is_env_var>
100005ec2: 48 89 45 e0                 	movq	%rax, -32(%rbp)
100005ec6: 48 8b 7d f0                 	movq	-16(%rbp), %rdi
100005eca: e8 4d 96 00 00              	callq	38477 <dyld_stub_binder+0x10000f51c>
100005ecf: 48 8b 45 e0                 	movq	-32(%rbp), %rax
100005ed3: 48 89 45 f8                 	movq	%rax, -8(%rbp)
100005ed7: 48 8b 45 f8                 	movq	-8(%rbp), %rax
100005edb: 48 83 c4 30                 	addq	$48, %rsp
100005edf: 5d                          	popq	%rbp
100005ee0: c3                          	retq
100005ee1: 66 2e 0f 1f 84 00 00 00 00 00       	nopw	%cs:(%rax,%rax)
100005eeb: 0f 1f 44 00 00              	nopl	(%rax,%rax)

0000000100005ef0 _data_analyse:
100005ef0: 55                          	pushq	%rbp
100005ef1: 48 89 e5                    	movq	%rsp, %rbp
100005ef4: 48 83 ec 50                 	subq	$80, %rsp
100005ef8: 48 89 7d f0                 	movq	%rdi, -16(%rbp)
100005efc: 48 c7 45 d8 00 00 00 00     	movq	$0, -40(%rbp)
100005f04: 48 8b 45 f0                 	movq	-16(%rbp), %rax
100005f08: 48 89 45 e8                 	movq	%rax, -24(%rbp)
100005f0c: 48 8b 7d e8                 	movq	-24(%rbp), %rdi
100005f10: be 24 00 00 00              	movl	$36, %esi
100005f15: e8 96 8b 00 00              	callq	35734 <_ft_strchr>
100005f1a: 48 89 45 e0                 	movq	%rax, -32(%rbp)
100005f1e: 48 83 7d e0 00              	cmpq	$0, -32(%rbp)
100005f23: 0f 85 0d 00 00 00           	jne	13 <_data_analyse+0x46>
100005f29: 48 8b 45 f0                 	movq	-16(%rbp), %rax
100005f2d: 48 89 45 f8                 	movq	%rax, -8(%rbp)
100005f31: e9 76 01 00 00              	jmp	374 <_data_analyse+0x1bc>
100005f36: 48 c7 45 d0 00 00 00 00     	movq	$0, -48(%rbp)
100005f3e: 48 8b 45 d0                 	movq	-48(%rbp), %rax
100005f42: 48 8b 7d f0                 	movq	-16(%rbp), %rdi
100005f46: 48 89 45 c8                 	movq	%rax, -56(%rbp)
100005f4a: e8 91 8c 00 00              	callq	35985 <_ft_strlen>
100005f4f: 48 8b 4d c8                 	movq	-56(%rbp), %rcx
100005f53: 48 39 c1                    	cmpq	%rax, %rcx
100005f56: 0f 83 3a 01 00 00           	jae	314 <_data_analyse+0x1a6>
100005f5c: 48 8b 45 e8                 	movq	-24(%rbp), %rax
100005f60: 48 03 45 d0                 	addq	-48(%rbp), %rax
100005f64: 48 89 c7                    	movq	%rax, %rdi
100005f67: be 24 00 00 00              	movl	$36, %esi
100005f6c: e8 3f 8b 00 00              	callq	35647 <_ft_strchr>
100005f71: 48 89 45 e0                 	movq	%rax, -32(%rbp)
100005f75: 48 83 7d e0 00              	cmpq	$0, -32(%rbp)
100005f7a: 0f 84 95 00 00 00           	je	149 <_data_analyse+0x125>
100005f80: 48 8b 45 e0                 	movq	-32(%rbp), %rax
100005f84: 48 8b 4d e8                 	movq	-24(%rbp), %rcx
100005f88: 48 03 4d d0                 	addq	-48(%rbp), %rcx
100005f8c: 48 39 c8                    	cmpq	%rcx, %rax
100005f8f: 0f 84 36 00 00 00           	je	54 <_data_analyse+0xdb>
100005f95: 48 8b 45 e8                 	movq	-24(%rbp), %rax
100005f99: 48 03 45 d0                 	addq	-48(%rbp), %rax
100005f9d: 48 8b 4d e0                 	movq	-32(%rbp), %rcx
100005fa1: 48 8b 55 e8                 	movq	-24(%rbp), %rdx
100005fa5: 48 03 55 d0                 	addq	-48(%rbp), %rdx
100005fa9: 48 29 d1                    	subq	%rdx, %rcx
100005fac: 48 89 c7                    	movq	%rax, %rdi
100005faf: 48 89 ce                    	movq	%rcx, %rsi
100005fb2: e8 69 0e 00 00              	callq	3689 <_ft_strndup>
100005fb7: 48 89 c7                    	movq	%rax, %rdi
100005fba: e8 31 93 00 00              	callq	37681 <_ft_lstnew>
100005fbf: 48 8d 7d d8                 	leaq	-40(%rbp), %rdi
100005fc3: 48 89 c6                    	movq	%rax, %rsi
100005fc6: e8 c5 93 00 00              	callq	37829 <_ft_lstadd_back>
100005fcb: 48 8b 7d e0                 	movq	-32(%rbp), %rdi
100005fcf: 48 8b 45 e0                 	movq	-32(%rbp), %rax
100005fd3: 48 05 01 00 00 00           	addq	$1, %rax
100005fd9: 48 89 7d c0                 	movq	%rdi, -64(%rbp)
100005fdd: 48 89 c7                    	movq	%rax, %rdi
100005fe0: e8 2b fd ff ff              	callq	-725 <_var_len>
100005fe5: 83 c0 01                    	addl	$1, %eax
100005fe8: 48 63 f0                    	movslq	%eax, %rsi
100005feb: 48 8b 7d c0                 	movq	-64(%rbp), %rdi
100005fef: e8 2c 0e 00 00              	callq	3628 <_ft_strndup>
100005ff4: 48 89 c7                    	movq	%rax, %rdi
100005ff7: e8 a4 fd ff ff              	callq	-604 <_data_manipulate>
100005ffc: 48 89 c7                    	movq	%rax, %rdi
100005fff: e8 ec 92 00 00              	callq	37612 <_ft_lstnew>
100006004: 48 8d 7d d8                 	leaq	-40(%rbp), %rdi
100006008: 48 89 c6                    	movq	%rax, %rsi
10000600b: e8 80 93 00 00              	callq	37760 <_ft_lstadd_back>
100006010: e9 41 00 00 00              	jmp	65 <_data_analyse+0x166>
100006015: 48 8b 45 e8                 	movq	-24(%rbp), %rax
100006019: 48 03 45 d0                 	addq	-48(%rbp), %rax
10000601d: 48 8b 4d e8                 	movq	-24(%rbp), %rcx
100006021: 48 03 4d d0                 	addq	-48(%rbp), %rcx
100006025: 48 89 cf                    	movq	%rcx, %rdi
100006028: 48 89 45 b8                 	movq	%rax, -72(%rbp)
10000602c: e8 af 8b 00 00              	callq	35759 <_ft_strlen>
100006031: 48 8b 7d b8                 	movq	-72(%rbp), %rdi
100006035: 48 89 c6                    	movq	%rax, %rsi
100006038: e8 e3 0d 00 00              	callq	3555 <_ft_strndup>
10000603d: 48 89 c7                    	movq	%rax, %rdi
100006040: e8 ab 92 00 00              	callq	37547 <_ft_lstnew>
100006045: 48 8d 7d d8                 	leaq	-40(%rbp), %rdi
100006049: 48 89 c6                    	movq	%rax, %rsi
10000604c: e8 3f 93 00 00              	callq	37695 <_ft_lstadd_back>
100006051: e9 40 00 00 00              	jmp	64 <_data_analyse+0x1a6>
100006056: 48 8b 45 e0                 	movq	-32(%rbp), %rax
10000605a: 48 8b 4d e8                 	movq	-24(%rbp), %rcx
10000605e: 48 03 4d d0                 	addq	-48(%rbp), %rcx
100006062: 48 29 c8                    	subq	%rcx, %rax
100006065: 48 8b 4d e0                 	movq	-32(%rbp), %rcx
100006069: 48 81 c1 01 00 00 00        	addq	$1, %rcx
100006070: 48 89 cf                    	movq	%rcx, %rdi
100006073: 48 89 45 b0                 	movq	%rax, -80(%rbp)
100006077: e8 94 fc ff ff              	callq	-876 <_var_len>
10000607c: 83 c0 01                    	addl	$1, %eax
10000607f: 48 63 c8                    	movslq	%eax, %rcx
100006082: 48 8b 55 b0                 	movq	-80(%rbp), %rdx
100006086: 48 01 ca                    	addq	%rcx, %rdx
100006089: 48 03 55 d0                 	addq	-48(%rbp), %rdx
10000608d: 48 89 55 d0                 	movq	%rdx, -48(%rbp)
100006091: e9 a8 fe ff ff              	jmp	-344 <_data_analyse+0x4e>
100006096: 48 8b 7d f0                 	movq	-16(%rbp), %rdi
10000609a: e8 7d 94 00 00              	callq	38013 <dyld_stub_binder+0x10000f51c>
10000609f: 48 8b 7d d8                 	movq	-40(%rbp), %rdi
1000060a3: e8 08 1e 00 00              	callq	7688 <_nodes_join>
1000060a8: 48 89 45 f8                 	movq	%rax, -8(%rbp)
1000060ac: 48 8b 45 f8                 	movq	-8(%rbp), %rax
1000060b0: 48 83 c4 50                 	addq	$80, %rsp
1000060b4: 5d                          	popq	%rbp
1000060b5: c3                          	retq
1000060b6: 66 2e 0f 1f 84 00 00 00 00 00       	nopw	%cs:(%rax,%rax)

00000001000060c0 _var_expand:
1000060c0: 55                          	pushq	%rbp
1000060c1: 48 89 e5                    	movq	%rsp, %rbp
1000060c4: 48 83 ec 30                 	subq	$48, %rsp
1000060c8: 48 89 7d f8                 	movq	%rdi, -8(%rbp)
1000060cc: 48 8b 45 f8                 	movq	-8(%rbp), %rax
1000060d0: 48 89 45 f0                 	movq	%rax, -16(%rbp)
1000060d4: 48 83 7d f0 00              	cmpq	$0, -16(%rbp)
1000060d9: 0f 84 92 00 00 00           	je	146 <_var_expand+0xb1>
1000060df: 48 8b 45 f0                 	movq	-16(%rbp), %rax
1000060e3: 48 8b 00                    	movq	(%rax), %rax
1000060e6: 48 89 45 e0                 	movq	%rax, -32(%rbp)
1000060ea: 48 83 7d e0 00              	cmpq	$0, -32(%rbp)
1000060ef: 0f 84 3d 00 00 00           	je	61 <_var_expand+0x72>
1000060f5: 48 8b 45 f0                 	movq	-16(%rbp), %rax
1000060f9: 8a 48 08                    	movb	8(%rax), %cl
1000060fc: 80 e1 0f                    	andb	$15, %cl
1000060ff: 0f b6 d1                    	movzbl	%cl, %edx
100006102: 0f b7 f2                    	movzwl	%dx, %esi
100006105: 83 e6 04                    	andl	$4, %esi
100006108: 83 fe 00                    	cmpl	$0, %esi
10000610b: 0f 84 21 00 00 00           	je	33 <_var_expand+0x72>
100006111: 48 8b 45 f0                 	movq	-16(%rbp), %rax
100006115: 48 8b 38                    	movq	(%rax), %rdi
100006118: e8 03 fb ff ff              	callq	-1277 <_is_env_var>
10000611d: 48 8b 4d f0                 	movq	-16(%rbp), %rcx
100006121: 48 89 01                    	movq	%rax, (%rcx)
100006124: 48 8b 7d e0                 	movq	-32(%rbp), %rdi
100006128: e8 ef 93 00 00              	callq	37871 <dyld_stub_binder+0x10000f51c>
10000612d: e9 2e 00 00 00              	jmp	46 <_var_expand+0xa0>
100006132: 48 8b 45 f0                 	movq	-16(%rbp), %rax
100006136: 8a 48 08                    	movb	8(%rax), %cl
100006139: 80 e1 0f                    	andb	$15, %cl
10000613c: 0f b6 d1                    	movzbl	%cl, %edx
10000613f: 0f b7 f2                    	movzwl	%dx, %esi
100006142: 83 e6 08                    	andl	$8, %esi
100006145: 83 fe 00                    	cmpl	$0, %esi
100006148: 0f 84 0d 00 00 00           	je	13 <_var_expand+0x9b>
10000614e: 48 8b 45 f0                 	movq	-16(%rbp), %rax
100006152: 48 8b 78 10                 	movq	16(%rax), %rdi
100006156: e8 65 ff ff ff              	callq	-155 <_var_expand>
10000615b: e9 00 00 00 00              	jmp	0 <_var_expand+0xa0>
100006160: 48 8b 45 f0                 	movq	-16(%rbp), %rax
100006164: 48 8b 40 18                 	movq	24(%rax), %rax
100006168: 48 89 45 f0                 	movq	%rax, -16(%rbp)
10000616c: e9 63 ff ff ff              	jmp	-157 <_var_expand+0x14>
100006171: 48 83 c4 30                 	addq	$48, %rsp
100006175: 5d                          	popq	%rbp
100006176: c3                          	retq
100006177: 66 0f 1f 84 00 00 00 00 00  	nopw	(%rax,%rax)

0000000100006180 _expand_line:
100006180: 55                          	pushq	%rbp
100006181: 48 89 e5                    	movq	%rsp, %rbp
100006184: 48 83 ec 20                 	subq	$32, %rsp
100006188: 48 89 7d f8                 	movq	%rdi, -8(%rbp)
10000618c: 48 8b 45 f8                 	movq	-8(%rbp), %rax
100006190: 48 89 45 f0                 	movq	%rax, -16(%rbp)
100006194: 48 83 7d f8 00              	cmpq	$0, -8(%rbp)
100006199: 0f 84 3d 00 00 00           	je	61 <_expand_line+0x5c>
10000619f: 48 8b 45 f8                 	movq	-8(%rbp), %rax
1000061a3: 8a 48 08                    	movb	8(%rax), %cl
1000061a6: 80 e1 0f                    	andb	$15, %cl
1000061a9: 0f b6 d1                    	movzbl	%cl, %edx
1000061ac: 0f b7 f2                    	movzwl	%dx, %esi
1000061af: 48 8b 45 f8                 	movq	-8(%rbp), %rax
1000061b3: 48 8b 10                    	movq	(%rax), %rdx
1000061b6: 48 8d 3d 92 97 00 00        	leaq	38802(%rip), %rdi
1000061bd: b0 00                       	movb	$0, %al
1000061bf: e8 8e 93 00 00              	callq	37774 <dyld_stub_binder+0x10000f552>
1000061c4: 48 8b 7d f8                 	movq	-8(%rbp), %rdi
1000061c8: 89 45 ec                    	movl	%eax, -20(%rbp)
1000061cb: e8 f0 fe ff ff              	callq	-272 <_var_expand>
1000061d0: 48 8d 3d 89 97 00 00        	leaq	38793(%rip), %rdi
1000061d7: e8 7c 93 00 00              	callq	37756 <dyld_stub_binder+0x10000f558>
1000061dc: 31 c0                       	xorl	%eax, %eax
1000061de: 48 83 c4 20                 	addq	$32, %rsp
1000061e2: 5d                          	popq	%rbp
1000061e3: c3                          	retq
1000061e4: 90                          	nop
1000061e5: 90                          	nop
1000061e6: 90                          	nop
1000061e7: 90                          	nop
1000061e8: 90                          	nop
1000061e9: 90                          	nop
1000061ea: 90                          	nop
1000061eb: 90                          	nop
1000061ec: 90                          	nop
1000061ed: 90                          	nop
1000061ee: 90                          	nop
1000061ef: 90                          	nop

00000001000061f0 _tt_pwd:
1000061f0: 55                          	pushq	%rbp
1000061f1: 48 89 e5                    	movq	%rsp, %rbp
1000061f4: 48 81 ec 30 04 00 00        	subq	$1072, %rsp
1000061fb: 48 8b 05 fe 9d 00 00        	movq	40446(%rip), %rax
100006202: 48 8b 00                    	movq	(%rax), %rax
100006205: 48 89 45 f8                 	movq	%rax, -8(%rbp)
100006209: c7 85 dc fb ff ff 00 00 00 00       	movl	$0, -1060(%rbp)
100006213: 48 8d 3d d4 95 00 00        	leaq	38356(%rip), %rdi
10000621a: e8 11 e7 ff ff              	callq	-6383 <_get_owd>
10000621f: 48 8d bd f0 fb ff ff        	leaq	-1040(%rbp), %rdi
100006226: 48 89 85 e0 fb ff ff        	movq	%rax, -1056(%rbp)
10000622d: be 00 04 00 00              	movl	$1024, %esi
100006232: e8 eb 92 00 00              	callq	37611 <dyld_stub_binder+0x10000f522>
100006237: 48 83 f8 00                 	cmpq	$0, %rax
10000623b: 0f 85 3c 00 00 00           	jne	60 <_tt_pwd+0x8d>
100006241: 48 83 bd e0 fb ff ff 00     	cmpq	$0, -1056(%rbp)
100006249: 0f 85 2e 00 00 00           	jne	46 <_tt_pwd+0x8d>
10000624f: 31 c0                       	xorl	%eax, %eax
100006251: 89 c7                       	movl	%eax, %edi
100006253: be 11 00 00 00              	movl	$17, %esi
100006258: e8 93 13 00 00              	callq	5011 <_set__get_option_variables>
10000625d: 48 8d 3d 21 97 00 00        	leaq	38689(%rip), %rdi
100006264: 48 89 c6                    	movq	%rax, %rsi
100006267: b0 00                       	movb	$0, %al
100006269: e8 e4 92 00 00              	callq	37604 <dyld_stub_binder+0x10000f552>
10000626e: c7 85 ec fb ff ff 00 00 00 00       	movl	$0, -1044(%rbp)
100006278: e9 6c 00 00 00              	jmp	108 <_tt_pwd+0xf9>
10000627d: 48 8d bd f0 fb ff ff        	leaq	-1040(%rbp), %rdi
100006284: be 00 04 00 00              	movl	$1024, %esi
100006289: e8 94 92 00 00              	callq	37524 <dyld_stub_binder+0x10000f522>
10000628e: 48 83 f8 00                 	cmpq	$0, %rax
100006292: 0f 85 32 00 00 00           	jne	50 <_tt_pwd+0xda>
100006298: 48 83 bd e0 fb ff ff 00     	cmpq	$0, -1056(%rbp)
1000062a0: 0f 84 24 00 00 00           	je	36 <_tt_pwd+0xda>
1000062a6: 48 8b b5 e0 fb ff ff        	movq	-1056(%rbp), %rsi
1000062ad: 48 8d 3d d1 96 00 00        	leaq	38609(%rip), %rdi
1000062b4: b0 00                       	movb	$0, %al
1000062b6: e8 97 92 00 00              	callq	37527 <dyld_stub_binder+0x10000f552>
1000062bb: c7 85 ec fb ff ff 00 00 00 00       	movl	$0, -1044(%rbp)
1000062c5: e9 1f 00 00 00              	jmp	31 <_tt_pwd+0xf9>
1000062ca: 48 8d b5 f0 fb ff ff        	leaq	-1040(%rbp), %rsi
1000062d1: 48 8d 3d ad 96 00 00        	leaq	38573(%rip), %rdi
1000062d8: b0 00                       	movb	$0, %al
1000062da: e8 73 92 00 00              	callq	37491 <dyld_stub_binder+0x10000f552>
1000062df: c7 85 ec fb ff ff 00 00 00 00       	movl	$0, -1044(%rbp)
1000062e9: 8b 85 ec fb ff ff           	movl	-1044(%rbp), %eax
1000062ef: 48 8b 0d 0a 9d 00 00        	movq	40202(%rip), %rcx
1000062f6: 48 8b 09                    	movq	(%rcx), %rcx
1000062f9: 48 8b 55 f8                 	movq	-8(%rbp), %rdx
1000062fd: 48 39 d1                    	cmpq	%rdx, %rcx
100006300: 89 85 d8 fb ff ff           	movl	%eax, -1064(%rbp)
100006306: 0f 85 0f 00 00 00           	jne	15 <_tt_pwd+0x12b>
10000630c: 8b 85 d8 fb ff ff           	movl	-1064(%rbp), %eax
100006312: 48 81 c4 30 04 00 00        	addq	$1072, %rsp
100006319: 5d                          	popq	%rbp
10000631a: c3                          	retq
10000631b: e8 ba 91 00 00              	callq	37306 <dyld_stub_binder+0x10000f4da>
100006320: 0f 0b                       	ud2
100006322: 90                          	nop
100006323: 90                          	nop
100006324: 90                          	nop
100006325: 90                          	nop
100006326: 90                          	nop
100006327: 90                          	nop
100006328: 90                          	nop
100006329: 90                          	nop
10000632a: 90                          	nop
10000632b: 90                          	nop
10000632c: 90                          	nop
10000632d: 90                          	nop
10000632e: 90                          	nop
10000632f: 90                          	nop

0000000100006330 _is_export_var:
100006330: 55                          	pushq	%rbp
100006331: 48 89 e5                    	movq	%rsp, %rbp
100006334: 48 83 ec 40                 	subq	$64, %rsp
100006338: 31 c0                       	xorl	%eax, %eax
10000633a: 89 c1                       	movl	%eax, %ecx
10000633c: 48 89 7d f0                 	movq	%rdi, -16(%rbp)
100006340: 48 89 cf                    	movq	%rcx, %rdi
100006343: be 03 00 00 00              	movl	$3, %esi
100006348: e8 a3 12 00 00              	callq	4771 <_set__get_option_variables>
10000634d: 48 89 45 e8                 	movq	%rax, -24(%rbp)
100006351: 48 8b 45 e8                 	movq	-24(%rbp), %rax
100006355: 48 8b 00                    	movq	(%rax), %rax
100006358: 48 89 45 e0                 	movq	%rax, -32(%rbp)
10000635c: 48 8b 7d f0                 	movq	-16(%rbp), %rdi
100006360: e8 7b 88 00 00              	callq	34939 <_ft_strlen>
100006365: 48 89 45 d8                 	movq	%rax, -40(%rbp)
100006369: 48 8b 45 e8                 	movq	-24(%rbp), %rax
10000636d: 0f bf 50 08                 	movswl	8(%rax), %edx
100006371: 89 55 d4                    	movl	%edx, -44(%rbp)
100006374: 8b 45 d4                    	movl	-44(%rbp), %eax
100006377: 89 c1                       	movl	%eax, %ecx
100006379: 83 c1 ff                    	addl	$-1, %ecx
10000637c: 89 4d d4                    	movl	%ecx, -44(%rbp)
10000637f: 83 f8 00                    	cmpl	$0, %eax
100006382: 0f 84 51 00 00 00           	je	81 <_is_export_var+0xa9>
100006388: 48 8b 7d f0                 	movq	-16(%rbp), %rdi
10000638c: 48 8b 45 e0                 	movq	-32(%rbp), %rax
100006390: 48 8b 30                    	movq	(%rax), %rsi
100006393: 48 8b 55 d8                 	movq	-40(%rbp), %rdx
100006397: e8 a4 88 00 00              	callq	34980 <_ft_strncmp>
10000639c: 83 f8 00                    	cmpl	$0, %eax
10000639f: 0f 85 23 00 00 00           	jne	35 <_is_export_var+0x98>
1000063a5: 48 8b 45 e0                 	movq	-32(%rbp), %rax
1000063a9: 48 8b 00                    	movq	(%rax), %rax
1000063ac: 48 8b 4d d8                 	movq	-40(%rbp), %rcx
1000063b0: 0f be 14 08                 	movsbl	(%rax,%rcx), %edx
1000063b4: 83 fa 3d                    	cmpl	$61, %edx
1000063b7: 0f 85 0b 00 00 00           	jne	11 <_is_export_var+0x98>
1000063bd: 66 c7 45 fe 00 00           	movw	$0, -2(%rbp)
1000063c3: e9 7e 00 00 00              	jmp	126 <_is_export_var+0x116>
1000063c8: 48 8b 45 e0                 	movq	-32(%rbp), %rax
1000063cc: 48 8b 40 08                 	movq	8(%rax), %rax
1000063d0: 48 89 45 e0                 	movq	%rax, -32(%rbp)
1000063d4: e9 9b ff ff ff              	jmp	-101 <_is_export_var+0x44>
1000063d9: e9 00 00 00 00              	jmp	0 <_is_export_var+0xae>
1000063de: 48 83 7d e0 00              	cmpq	$0, -32(%rbp)
1000063e3: 0f 84 57 00 00 00           	je	87 <_is_export_var+0x110>
1000063e9: 48 8b 7d f0                 	movq	-16(%rbp), %rdi
1000063ed: 48 8b 45 e0                 	movq	-32(%rbp), %rax
1000063f1: 48 8b 30                    	movq	(%rax), %rsi
1000063f4: 48 8b 45 e0                 	movq	-32(%rbp), %rax
1000063f8: 48 8b 00                    	movq	(%rax), %rax
1000063fb: 48 89 7d c8                 	movq	%rdi, -56(%rbp)
1000063ff: 48 89 c7                    	movq	%rax, %rdi
100006402: 48 89 75 c0                 	movq	%rsi, -64(%rbp)
100006406: e8 d5 87 00 00              	callq	34773 <_ft_strlen>
10000640b: 48 8b 7d c8                 	movq	-56(%rbp), %rdi
10000640f: 48 8b 75 c0                 	movq	-64(%rbp), %rsi
100006413: 48 89 c2                    	movq	%rax, %rdx
100006416: e8 25 88 00 00              	callq	34853 <_ft_strncmp>
10000641b: 83 f8 00                    	cmpl	$0, %eax
10000641e: 0f 85 0b 00 00 00           	jne	11 <_is_export_var+0xff>
100006424: 66 c7 45 fe 00 00           	movw	$0, -2(%rbp)
10000642a: e9 17 00 00 00              	jmp	23 <_is_export_var+0x116>
10000642f: 48 8b 45 e0                 	movq	-32(%rbp), %rax
100006433: 48 8b 40 08                 	movq	8(%rax), %rax
100006437: 48 89 45 e0                 	movq	%rax, -32(%rbp)
10000643b: e9 9e ff ff ff              	jmp	-98 <_is_export_var+0xae>
100006440: 66 c7 45 fe 01 00           	movw	$1, -2(%rbp)
100006446: 0f bf 45 fe                 	movswl	-2(%rbp), %eax
10000644a: 48 83 c4 40                 	addq	$64, %rsp
10000644e: 5d                          	popq	%rbp
10000644f: c3                          	retq

0000000100006450 _re_env_var:
100006450: 55                          	pushq	%rbp
100006451: 48 89 e5                    	movq	%rsp, %rbp
100006454: 48 83 ec 40                 	subq	$64, %rsp
100006458: 31 c0                       	xorl	%eax, %eax
10000645a: 89 c1                       	movl	%eax, %ecx
10000645c: 48 89 7d f0                 	movq	%rdi, -16(%rbp)
100006460: 48 89 75 e8                 	movq	%rsi, -24(%rbp)
100006464: 89 55 e4                    	movl	%edx, -28(%rbp)
100006467: 48 89 cf                    	movq	%rcx, %rdi
10000646a: be 03 00 00 00              	movl	$3, %esi
10000646f: e8 7c 11 00 00              	callq	4476 <_set__get_option_variables>
100006474: 48 89 45 d8                 	movq	%rax, -40(%rbp)
100006478: 48 8b 45 d8                 	movq	-40(%rbp), %rax
10000647c: 48 8b 00                    	movq	(%rax), %rax
10000647f: 48 89 45 d0                 	movq	%rax, -48(%rbp)
100006483: 48 8b 7d f0                 	movq	-16(%rbp), %rdi
100006487: e8 54 87 00 00              	callq	34644 <_ft_strlen>
10000648c: 48 89 45 c8                 	movq	%rax, -56(%rbp)
100006490: 48 83 7d d0 00              	cmpq	$0, -48(%rbp)
100006495: 0f 84 5c 01 00 00           	je	348 <_re_env_var+0x1a7>
10000649b: 48 8b 7d f0                 	movq	-16(%rbp), %rdi
10000649f: 48 8b 45 d0                 	movq	-48(%rbp), %rax
1000064a3: 48 8b 30                    	movq	(%rax), %rsi
1000064a6: 48 8b 55 c8                 	movq	-56(%rbp), %rdx
1000064aa: e8 91 87 00 00              	callq	34705 <_ft_strncmp>
1000064af: 83 f8 00                    	cmpl	$0, %eax
1000064b2: 0f 85 86 00 00 00           	jne	134 <_re_env_var+0xee>
1000064b8: 48 8b 45 d0                 	movq	-48(%rbp), %rax
1000064bc: 48 8b 00                    	movq	(%rax), %rax
1000064bf: 48 8b 4d c8                 	movq	-56(%rbp), %rcx
1000064c3: 0f be 14 08                 	movsbl	(%rax,%rcx), %edx
1000064c7: 83 fa 3d                    	cmpl	$61, %edx
1000064ca: 0f 84 15 00 00 00           	je	21 <_re_env_var+0x95>
1000064d0: 48 8b 45 d0                 	movq	-48(%rbp), %rax
1000064d4: 48 8b 00                    	movq	(%rax), %rax
1000064d7: 48 8b 4d c8                 	movq	-56(%rbp), %rcx
1000064db: 80 3c 08 00                 	cmpb	$0, (%rax,%rcx)
1000064df: 0f 85 59 00 00 00           	jne	89 <_re_env_var+0xee>
1000064e5: 83 7d e4 00                 	cmpl	$0, -28(%rbp)
1000064e9: 0f 85 4f 00 00 00           	jne	79 <_re_env_var+0xee>
1000064ef: 48 8b 45 d0                 	movq	-48(%rbp), %rax
1000064f3: 48 8b 00                    	movq	(%rax), %rax
1000064f6: 48 8b 4d c8                 	movq	-56(%rbp), %rcx
1000064fa: 80 3c 08 00                 	cmpb	$0, (%rax,%rcx)
1000064fe: 0f 85 0f 00 00 00           	jne	15 <_re_env_var+0xc3>
100006504: 48 8b 45 d8                 	movq	-40(%rbp), %rax
100006508: 0f bf 48 08                 	movswl	8(%rax), %ecx
10000650c: 83 c1 01                    	addl	$1, %ecx
10000650f: 66 89 48 08                 	movw	%cx, 8(%rax)
100006513: 48 8b 45 d0                 	movq	-48(%rbp), %rax
100006517: 48 8b 38                    	movq	(%rax), %rdi
10000651a: e8 fd 8f 00 00              	callq	36861 <dyld_stub_binder+0x10000f51c>
10000651f: 48 8b 45 e8                 	movq	-24(%rbp), %rax
100006523: 48 8b 4d d0                 	movq	-48(%rbp), %rcx
100006527: 48 89 01                    	movq	%rax, (%rcx)
10000652a: 48 8b 7d f0                 	movq	-16(%rbp), %rdi
10000652e: e8 e9 8f 00 00              	callq	36841 <dyld_stub_binder+0x10000f51c>
100006533: 66 c7 45 fe 01 00           	movw	$1, -2(%rbp)
100006539: e9 d1 00 00 00              	jmp	209 <_re_env_var+0x1bf>
10000653e: 48 8b 7d f0                 	movq	-16(%rbp), %rdi
100006542: 48 8b 45 d0                 	movq	-48(%rbp), %rax
100006546: 48 8b 30                    	movq	(%rax), %rsi
100006549: 48 8b 55 c8                 	movq	-56(%rbp), %rdx
10000654d: e8 ee 86 00 00              	callq	34542 <_ft_strncmp>
100006552: 83 f8 00                    	cmpl	$0, %eax
100006555: 0f 85 86 00 00 00           	jne	134 <_re_env_var+0x191>
10000655b: 48 8b 45 d0                 	movq	-48(%rbp), %rax
10000655f: 48 8b 00                    	movq	(%rax), %rax
100006562: 48 8b 4d c8                 	movq	-56(%rbp), %rcx
100006566: 0f be 14 08                 	movsbl	(%rax,%rcx), %edx
10000656a: 83 fa 3d                    	cmpl	$61, %edx
10000656d: 0f 84 15 00 00 00           	je	21 <_re_env_var+0x138>
100006573: 48 8b 45 d0                 	movq	-48(%rbp), %rax
100006577: 48 8b 00                    	movq	(%rax), %rax
10000657a: 48 8b 4d c8                 	movq	-56(%rbp), %rcx
10000657e: 80 3c 08 00                 	cmpb	$0, (%rax,%rcx)
100006582: 0f 85 59 00 00 00           	jne	89 <_re_env_var+0x191>
100006588: 83 7d e4 00                 	cmpl	$0, -28(%rbp)
10000658c: 0f 84 4f 00 00 00           	je	79 <_re_env_var+0x191>
100006592: 48 8b 45 d0                 	movq	-48(%rbp), %rax
100006596: 48 8b 00                    	movq	(%rax), %rax
100006599: 48 8b 4d c8                 	movq	-56(%rbp), %rcx
10000659d: 80 3c 08 00                 	cmpb	$0, (%rax,%rcx)
1000065a1: 0f 85 0f 00 00 00           	jne	15 <_re_env_var+0x166>
1000065a7: 48 8b 45 d8                 	movq	-40(%rbp), %rax
1000065ab: 0f bf 48 08                 	movswl	8(%rax), %ecx
1000065af: 83 c1 01                    	addl	$1, %ecx
1000065b2: 66 89 48 08                 	movw	%cx, 8(%rax)
1000065b6: 48 8b 45 d0                 	movq	-48(%rbp), %rax
1000065ba: 48 8b 38                    	movq	(%rax), %rdi
1000065bd: 48 8b 75 e8                 	movq	-24(%rbp), %rsi
1000065c1: e8 9a 28 00 00              	callq	10394 <_ft_strjoin_free>
1000065c6: 48 8b 4d d0                 	movq	-48(%rbp), %rcx
1000065ca: 48 89 01                    	movq	%rax, (%rcx)
1000065cd: 48 8b 7d f0                 	movq	-16(%rbp), %rdi
1000065d1: e8 46 8f 00 00              	callq	36678 <dyld_stub_binder+0x10000f51c>
1000065d6: 66 c7 45 fe 01 00           	movw	$1, -2(%rbp)
1000065dc: e9 2e 00 00 00              	jmp	46 <_re_env_var+0x1bf>
1000065e1: e9 00 00 00 00              	jmp	0 <_re_env_var+0x196>
1000065e6: 48 8b 45 d0                 	movq	-48(%rbp), %rax
1000065ea: 48 8b 40 08                 	movq	8(%rax), %rax
1000065ee: 48 89 45 d0                 	movq	%rax, -48(%rbp)
1000065f2: e9 99 fe ff ff              	jmp	-359 <_re_env_var+0x40>
1000065f7: 48 8b 7d f0                 	movq	-16(%rbp), %rdi
1000065fb: e8 1c 8f 00 00              	callq	36636 <dyld_stub_binder+0x10000f51c>
100006600: 48 8b 7d e8                 	movq	-24(%rbp), %rdi
100006604: e8 13 8f 00 00              	callq	36627 <dyld_stub_binder+0x10000f51c>
100006609: 66 c7 45 fe 00 00           	movw	$0, -2(%rbp)
10000660f: 0f bf 45 fe                 	movswl	-2(%rbp), %eax
100006613: 48 83 c4 40                 	addq	$64, %rsp
100006617: 5d                          	popq	%rbp
100006618: c3                          	retq
100006619: 0f 1f 80 00 00 00 00        	nopl	(%rax)

0000000100006620 _val:
100006620: 55                          	pushq	%rbp
100006621: 48 89 e5                    	movq	%rsp, %rbp
100006624: 48 83 ec 50                 	subq	$80, %rsp
100006628: 48 89 7d f8                 	movq	%rdi, -8(%rbp)
10000662c: 48 8b 7d f8                 	movq	-8(%rbp), %rdi
100006630: e8 ab 85 00 00              	callq	34219 <_ft_strlen>
100006635: 48 89 45 d8                 	movq	%rax, -40(%rbp)
100006639: 48 8b 7d f8                 	movq	-8(%rbp), %rdi
10000663d: 48 8b 55 d8                 	movq	-40(%rbp), %rdx
100006641: be 2b 00 00 00              	movl	$43, %esi
100006646: e8 75 82 00 00              	callq	33397 <_ft_memchr>
10000664b: 48 89 45 e8                 	movq	%rax, -24(%rbp)
10000664f: 48 8b 7d f8                 	movq	-8(%rbp), %rdi
100006653: 48 8b 55 d8                 	movq	-40(%rbp), %rdx
100006657: be 3d 00 00 00              	movl	$61, %esi
10000665c: e8 5f 82 00 00              	callq	33375 <_ft_memchr>
100006661: 31 c9                       	xorl	%ecx, %ecx
100006663: 89 cf                       	movl	%ecx, %edi
100006665: 48 89 45 e0                 	movq	%rax, -32(%rbp)
100006669: be 03 00 00 00              	movl	$3, %esi
10000666e: e8 7d 0f 00 00              	callq	3965 <_set__get_option_variables>
100006673: 48 89 45 f0                 	movq	%rax, -16(%rbp)
100006677: 48 83 7d e8 00              	cmpq	$0, -24(%rbp)
10000667c: 0f 85 85 00 00 00           	jne	133 <_val+0xe7>
100006682: 48 83 7d e0 00              	cmpq	$0, -32(%rbp)
100006687: 0f 84 7a 00 00 00           	je	122 <_val+0xe7>
10000668d: 31 f6                       	xorl	%esi, %esi
10000668f: 48 8b 7d f8                 	movq	-8(%rbp), %rdi
100006693: 48 8b 45 e0                 	movq	-32(%rbp), %rax
100006697: 48 8b 4d f8                 	movq	-8(%rbp), %rcx
10000669b: 48 29 c8                    	subq	%rcx, %rax
10000669e: 48 89 c2                    	movq	%rax, %rdx
1000066a1: e8 6a 86 00 00              	callq	34410 <_ft_substr>
1000066a6: 48 8b 7d f8                 	movq	-8(%rbp), %rdi
1000066aa: 48 89 45 d0                 	movq	%rax, -48(%rbp)
1000066ae: e8 8d 84 00 00              	callq	33933 <_ft_strdup>
1000066b3: 31 d2                       	xorl	%edx, %edx
1000066b5: 48 8b 7d d0                 	movq	-48(%rbp), %rdi
1000066b9: 48 89 c6                    	movq	%rax, %rsi
1000066bc: e8 8f fd ff ff              	callq	-625 <_re_env_var>
1000066c1: 66 83 f8 00                 	cmpw	$0, %ax
1000066c5: 0f 85 37 00 00 00           	jne	55 <_val+0xe2>
1000066cb: 48 8b 7d f0                 	movq	-16(%rbp), %rdi
1000066cf: 48 8b 45 f8                 	movq	-8(%rbp), %rax
1000066d3: 48 89 7d c8                 	movq	%rdi, -56(%rbp)
1000066d7: 48 89 c7                    	movq	%rax, %rdi
1000066da: e8 61 84 00 00              	callq	33889 <_ft_strdup>
1000066df: 48 89 c7                    	movq	%rax, %rdi
1000066e2: e8 09 8c 00 00              	callq	35849 <_ft_lstnew>
1000066e7: 48 8b 7d c8                 	movq	-56(%rbp), %rdi
1000066eb: 48 89 c6                    	movq	%rax, %rsi
1000066ee: e8 9d 8c 00 00              	callq	35997 <_ft_lstadd_back>
1000066f3: 48 8b 45 f0                 	movq	-16(%rbp), %rax
1000066f7: 0f bf 48 08                 	movswl	8(%rax), %ecx
1000066fb: 83 c1 01                    	addl	$1, %ecx
1000066fe: 66 89 48 08                 	movw	%cx, 8(%rax)
100006702: e9 fa 00 00 00              	jmp	250 <_val+0x1e1>
100006707: 48 83 7d e8 00              	cmpq	$0, -24(%rbp)
10000670c: 0f 84 aa 00 00 00           	je	170 <_val+0x19c>
100006712: 31 f6                       	xorl	%esi, %esi
100006714: 48 8b 7d f8                 	movq	-8(%rbp), %rdi
100006718: 48 8b 45 e8                 	movq	-24(%rbp), %rax
10000671c: 48 8b 4d f8                 	movq	-8(%rbp), %rcx
100006720: 48 29 c8                    	subq	%rcx, %rax
100006723: 48 89 c2                    	movq	%rax, %rdx
100006726: e8 e5 85 00 00              	callq	34277 <_ft_substr>
10000672b: 48 8b 7d f8                 	movq	-8(%rbp), %rdi
10000672f: 48 8b 4d e8                 	movq	-24(%rbp), %rcx
100006733: 48 8b 55 f8                 	movq	-8(%rbp), %rdx
100006737: 48 29 d1                    	subq	%rdx, %rcx
10000673a: 48 81 c1 02 00 00 00        	addq	$2, %rcx
100006741: 48 8b 55 d8                 	movq	-40(%rbp), %rdx
100006745: 48 81 ea 01 00 00 00        	subq	$1, %rdx
10000674c: 4c 8b 45 e8                 	movq	-24(%rbp), %r8
100006750: 4c 8b 4d f8                 	movq	-8(%rbp), %r9
100006754: 4d 29 c8                    	subq	%r9, %r8
100006757: 4c 29 c2                    	subq	%r8, %rdx
10000675a: 89 ce                       	movl	%ecx, %esi
10000675c: 48 89 45 c0                 	movq	%rax, -64(%rbp)
100006760: e8 ab 85 00 00              	callq	34219 <_ft_substr>
100006765: 48 8b 7d c0                 	movq	-64(%rbp), %rdi
100006769: 48 89 c6                    	movq	%rax, %rsi
10000676c: ba 01 00 00 00              	movl	$1, %edx
100006771: e8 da fc ff ff              	callq	-806 <_re_env_var>
100006776: 66 83 f8 00                 	cmpw	$0, %ax
10000677a: 0f 85 37 00 00 00           	jne	55 <_val+0x197>
100006780: 48 8b 7d f0                 	movq	-16(%rbp), %rdi
100006784: 48 8b 45 f8                 	movq	-8(%rbp), %rax
100006788: 48 89 7d b8                 	movq	%rdi, -72(%rbp)
10000678c: 48 89 c7                    	movq	%rax, %rdi
10000678f: e8 9c 04 00 00              	callq	1180 <_app_dup>
100006794: 48 89 c7                    	movq	%rax, %rdi
100006797: e8 54 8b 00 00              	callq	35668 <_ft_lstnew>
10000679c: 48 8b 7d b8                 	movq	-72(%rbp), %rdi
1000067a0: 48 89 c6                    	movq	%rax, %rsi
1000067a3: e8 e8 8b 00 00              	callq	35816 <_ft_lstadd_back>
1000067a8: 48 8b 45 f0                 	movq	-16(%rbp), %rax
1000067ac: 0f bf 48 08                 	movswl	8(%rax), %ecx
1000067b0: 83 c1 01                    	addl	$1, %ecx
1000067b3: 66 89 48 08                 	movw	%cx, 8(%rax)
1000067b7: e9 40 00 00 00              	jmp	64 <_val+0x1dc>
1000067bc: 48 8b 7d f8                 	movq	-8(%rbp), %rdi
1000067c0: e8 6b fb ff ff              	callq	-1173 <_is_export_var>
1000067c5: 66 83 f8 00                 	cmpw	$0, %ax
1000067c9: 0f 84 28 00 00 00           	je	40 <_val+0x1d7>
1000067cf: 48 8b 7d f0                 	movq	-16(%rbp), %rdi
1000067d3: 48 8b 45 f8                 	movq	-8(%rbp), %rax
1000067d7: 48 89 7d b0                 	movq	%rdi, -80(%rbp)
1000067db: 48 89 c7                    	movq	%rax, %rdi
1000067de: e8 5d 83 00 00              	callq	33629 <_ft_strdup>
1000067e3: 48 89 c7                    	movq	%rax, %rdi
1000067e6: e8 05 8b 00 00              	callq	35589 <_ft_lstnew>
1000067eb: 48 8b 7d b0                 	movq	-80(%rbp), %rdi
1000067ef: 48 89 c6                    	movq	%rax, %rsi
1000067f2: e8 99 8b 00 00              	callq	35737 <_ft_lstadd_back>
1000067f7: e9 00 00 00 00              	jmp	0 <_val+0x1dc>
1000067fc: e9 00 00 00 00              	jmp	0 <_val+0x1e1>
100006801: 48 83 c4 50                 	addq	$80, %rsp
100006805: 5d                          	popq	%rbp
100006806: c3                          	retq
100006807: 66 0f 1f 84 00 00 00 00 00  	nopw	(%rax,%rax)

0000000100006810 _get_operator:
100006810: 55                          	pushq	%rbp
100006811: 48 89 e5                    	movq	%rsp, %rbp
100006814: 48 83 ec 20                 	subq	$32, %rsp
100006818: 48 89 7d f8                 	movq	%rdi, -8(%rbp)
10000681c: c7 45 f4 ff ff ff ff        	movl	$4294967295, -12(%rbp)
100006823: 48 8b 7d f8                 	movq	-8(%rbp), %rdi
100006827: be 20 00 00 00              	movl	$32, %esi
10000682c: e8 8f 87 00 00              	callq	34703 <_ft_split>
100006831: 48 89 45 e8                 	movq	%rax, -24(%rbp)
100006835: c7 45 e4 00 00 00 00        	movl	$0, -28(%rbp)
10000683c: 48 8b 45 e8                 	movq	-24(%rbp), %rax
100006840: 8b 4d f4                    	movl	-12(%rbp), %ecx
100006843: 83 c1 01                    	addl	$1, %ecx
100006846: 89 4d f4                    	movl	%ecx, -12(%rbp)
100006849: 48 63 d1                    	movslq	%ecx, %rdx
10000684c: 48 83 3c d0 00              	cmpq	$0, (%rax,%rdx,8)
100006851: 0f 84 56 00 00 00           	je	86 <_get_operator+0x9d>
100006857: 48 8b 45 e8                 	movq	-24(%rbp), %rax
10000685b: 48 63 4d f4                 	movslq	-12(%rbp), %rcx
10000685f: 48 8b 3c c8                 	movq	(%rax,%rcx,8), %rdi
100006863: e8 58 04 00 00              	callq	1112 <_valid_id>
100006868: 83 f8 00                    	cmpl	$0, %eax
10000686b: 0f 84 26 00 00 00           	je	38 <_get_operator+0x87>
100006871: 48 8b 45 e8                 	movq	-24(%rbp), %rax
100006875: 48 63 4d f4                 	movslq	-12(%rbp), %rcx
100006879: 48 8b 34 c8                 	movq	(%rax,%rcx,8), %rsi
10000687d: 48 8d 3d 05 91 00 00        	leaq	37125(%rip), %rdi
100006884: b0 00                       	movb	$0, %al
100006886: e8 c7 8c 00 00              	callq	36039 <dyld_stub_binder+0x10000f552>
10000688b: c7 45 e4 01 00 00 00        	movl	$1, -28(%rbp)
100006892: e9 a5 ff ff ff              	jmp	-91 <_get_operator+0x2c>
100006897: 48 8b 45 e8                 	movq	-24(%rbp), %rax
10000689b: 48 63 4d f4                 	movslq	-12(%rbp), %rcx
10000689f: 48 8b 3c c8                 	movq	(%rax,%rcx,8), %rdi
1000068a3: e8 78 fd ff ff              	callq	-648 <_val>
1000068a8: e9 8f ff ff ff              	jmp	-113 <_get_operator+0x2c>
1000068ad: 48 8b 7d e8                 	movq	-24(%rbp), %rdi
1000068b1: e8 1a 03 00 00              	callq	794 <_sp_free>
1000068b6: 8b 45 e4                    	movl	-28(%rbp), %eax
1000068b9: 48 83 c4 20                 	addq	$32, %rsp
1000068bd: 5d                          	popq	%rbp
1000068be: c3                          	retq
1000068bf: 90                          	nop

00000001000068c0 _tt_export:
1000068c0: 55                          	pushq	%rbp
1000068c1: 48 89 e5                    	movq	%rsp, %rbp
1000068c4: 48 83 ec 30                 	subq	$48, %rsp
1000068c8: 48 89 7d f8                 	movq	%rdi, -8(%rbp)
1000068cc: c7 45 dc 00 00 00 00        	movl	$0, -36(%rbp)
1000068d3: 48 8b 45 f8                 	movq	-8(%rbp), %rax
1000068d7: 48 89 45 f0                 	movq	%rax, -16(%rbp)
1000068db: 48 8b 45 f0                 	movq	-16(%rbp), %rax
1000068df: 48 8b 40 10                 	movq	16(%rax), %rax
1000068e3: 48 8b 00                    	movq	(%rax), %rax
1000068e6: 80 38 00                    	cmpb	$0, (%rax)
1000068e9: 0f 85 5b 00 00 00           	jne	91 <_tt_export+0x8a>
1000068ef: 31 c0                       	xorl	%eax, %eax
1000068f1: 89 c7                       	movl	%eax, %edi
1000068f3: be 03 00 00 00              	movl	$3, %esi
1000068f8: e8 f3 0c 00 00              	callq	3315 <_set__get_option_variables>
1000068fd: 48 89 45 e8                 	movq	%rax, -24(%rbp)
100006901: 48 8b 45 e8                 	movq	-24(%rbp), %rax
100006905: 48 8b 38                    	movq	(%rax), %rdi
100006908: e8 e3 05 00 00              	callq	1507 <_lst_dup>
10000690d: 48 8d 35 2c 83 00 00        	leaq	33580(%rip), %rsi
100006914: 48 89 45 e0                 	movq	%rax, -32(%rbp)
100006918: 48 8b 7d e0                 	movq	-32(%rbp), %rdi
10000691c: e8 4f 06 00 00              	callq	1615 <_sort_list>
100006921: 48 8b 35 e8 96 00 00        	movq	38632(%rip), %rsi
100006928: 48 89 45 e0                 	movq	%rax, -32(%rbp)
10000692c: 48 8b 7d e0                 	movq	-32(%rbp), %rdi
100006930: e8 9b 07 00 00              	callq	1947 <_env_exp_print>
100006935: 48 8b 35 cc 96 00 00        	movq	38604(%rip), %rsi
10000693c: 48 8d 7d e0                 	leaq	-32(%rbp), %rdi
100006940: e8 1b 8b 00 00              	callq	35611 <_ft_lstclear>
100006945: e9 13 00 00 00              	jmp	19 <_tt_export+0x9d>
10000694a: 48 8b 45 f0                 	movq	-16(%rbp), %rax
10000694e: 48 8b 40 10                 	movq	16(%rax), %rax
100006952: 48 8b 38                    	movq	(%rax), %rdi
100006955: e8 b6 fe ff ff              	callq	-330 <_get_operator>
10000695a: 89 45 dc                    	movl	%eax, -36(%rbp)
10000695d: 8b 45 dc                    	movl	-36(%rbp), %eax
100006960: 48 83 c4 30                 	addq	$48, %rsp
100006964: 5d                          	popq	%rbp
100006965: c3                          	retq
100006966: 90                          	nop
100006967: 90                          	nop
100006968: 90                          	nop
100006969: 90                          	nop
10000696a: 90                          	nop
10000696b: 90                          	nop
10000696c: 90                          	nop
10000696d: 90                          	nop
10000696e: 90                          	nop
10000696f: 90                          	nop

0000000100006970 _ft_list_remove:
100006970: 55                          	pushq	%rbp
100006971: 48 89 e5                    	movq	%rsp, %rbp
100006974: 48 83 ec 70                 	subq	$112, %rsp
100006978: 48 89 7d f8                 	movq	%rdi, -8(%rbp)
10000697c: 48 89 75 f0                 	movq	%rsi, -16(%rbp)
100006980: 48 89 55 e8                 	movq	%rdx, -24(%rbp)
100006984: 48 83 7d f8 00              	cmpq	$0, -8(%rbp)
100006989: 0f 84 0e 00 00 00           	je	14 <_ft_list_remove+0x2d>
10000698f: 48 8b 45 f8                 	movq	-8(%rbp), %rax
100006993: 48 83 38 00                 	cmpq	$0, (%rax)
100006997: 0f 85 05 00 00 00           	jne	5 <_ft_list_remove+0x32>
10000699d: e9 98 01 00 00              	jmp	408 <_ft_list_remove+0x1ca>
1000069a2: 31 c0                       	xorl	%eax, %eax
1000069a4: 89 c7                       	movl	%eax, %edi
1000069a6: 48 8b 4d f8                 	movq	-8(%rbp), %rcx
1000069aa: 48 8b 09                    	movq	(%rcx), %rcx
1000069ad: 48 89 4d e0                 	movq	%rcx, -32(%rbp)
1000069b1: be 03 00 00 00              	movl	$3, %esi
1000069b6: e8 35 0c 00 00              	callq	3125 <_set__get_option_variables>
1000069bb: 48 89 45 d8                 	movq	%rax, -40(%rbp)
1000069bf: 48 8b 45 e8                 	movq	-24(%rbp), %rax
1000069c3: 48 8b 4d e0                 	movq	-32(%rbp), %rcx
1000069c7: 48 8b 39                    	movq	(%rcx), %rdi
1000069ca: 48 8b 75 f0                 	movq	-16(%rbp), %rsi
1000069ce: 48 8b 4d f0                 	movq	-16(%rbp), %rcx
1000069d2: 48 89 7d d0                 	movq	%rdi, -48(%rbp)
1000069d6: 48 89 cf                    	movq	%rcx, %rdi
1000069d9: 48 89 45 c8                 	movq	%rax, -56(%rbp)
1000069dd: 48 89 75 c0                 	movq	%rsi, -64(%rbp)
1000069e1: e8 fa 81 00 00              	callq	33274 <_ft_strlen>
1000069e6: 48 8b 7d d0                 	movq	-48(%rbp), %rdi
1000069ea: 48 8b 75 c0                 	movq	-64(%rbp), %rsi
1000069ee: 48 89 c2                    	movq	%rax, %rdx
1000069f1: b0 00                       	movb	$0, %al
1000069f3: 48 8b 4d c8                 	movq	-56(%rbp), %rcx
1000069f7: ff d1                       	callq	*%rcx
1000069f9: 83 f8 00                    	cmpl	$0, %eax
1000069fc: 0f 85 71 00 00 00           	jne	113 <_ft_list_remove+0x103>
100006a02: 48 8b 45 e0                 	movq	-32(%rbp), %rax
100006a06: 48 8b 00                    	movq	(%rax), %rax
100006a09: 48 8b 7d f0                 	movq	-16(%rbp), %rdi
100006a0d: 48 89 45 b8                 	movq	%rax, -72(%rbp)
100006a11: e8 ca 81 00 00              	callq	33226 <_ft_strlen>
100006a16: 48 8b 4d b8                 	movq	-72(%rbp), %rcx
100006a1a: 0f be 14 01                 	movsbl	(%rcx,%rax), %edx
100006a1e: 83 fa 3d                    	cmpl	$61, %edx
100006a21: 0f 85 4c 00 00 00           	jne	76 <_ft_list_remove+0x103>
100006a27: 48 8b 45 e0                 	movq	-32(%rbp), %rax
100006a2b: 48 8b 40 08                 	movq	8(%rax), %rax
100006a2f: 48 8b 4d f8                 	movq	-8(%rbp), %rcx
100006a33: 48 89 01                    	movq	%rax, (%rcx)
100006a36: 48 8b 45 e0                 	movq	-32(%rbp), %rax
100006a3a: 48 8b 38                    	movq	(%rax), %rdi
100006a3d: e8 da 8a 00 00              	callq	35546 <dyld_stub_binder+0x10000f51c>
100006a42: 48 8b 45 e0                 	movq	-32(%rbp), %rax
100006a46: 48 89 c7                    	movq	%rax, %rdi
100006a49: e8 ce 8a 00 00              	callq	35534 <dyld_stub_binder+0x10000f51c>
100006a4e: 48 8b 45 d8                 	movq	-40(%rbp), %rax
100006a52: 0f bf 50 08                 	movswl	8(%rax), %edx
100006a56: 83 c2 ff                    	addl	$-1, %edx
100006a59: 66 89 50 08                 	movw	%dx, 8(%rax)
100006a5d: 48 8b 7d f8                 	movq	-8(%rbp), %rdi
100006a61: 48 8b 75 f0                 	movq	-16(%rbp), %rsi
100006a65: 48 8b 55 e8                 	movq	-24(%rbp), %rdx
100006a69: e8 02 ff ff ff              	callq	-254 <_ft_list_remove>
100006a6e: e9 a2 00 00 00              	jmp	162 <_ft_list_remove+0x1a5>
100006a73: 48 8b 45 e8                 	movq	-24(%rbp), %rax
100006a77: 48 8b 4d e0                 	movq	-32(%rbp), %rcx
100006a7b: 48 8b 39                    	movq	(%rcx), %rdi
100006a7e: 48 8b 75 f0                 	movq	-16(%rbp), %rsi
100006a82: 48 8b 4d f0                 	movq	-16(%rbp), %rcx
100006a86: 48 89 7d b0                 	movq	%rdi, -80(%rbp)
100006a8a: 48 89 cf                    	movq	%rcx, %rdi
100006a8d: 48 89 45 a8                 	movq	%rax, -88(%rbp)
100006a91: 48 89 75 a0                 	movq	%rsi, -96(%rbp)
100006a95: e8 46 81 00 00              	callq	33094 <_ft_strlen>
100006a9a: 48 8b 7d b0                 	movq	-80(%rbp), %rdi
100006a9e: 48 8b 75 a0                 	movq	-96(%rbp), %rsi
100006aa2: 48 89 c2                    	movq	%rax, %rdx
100006aa5: b0 00                       	movb	$0, %al
100006aa7: 48 8b 4d a8                 	movq	-88(%rbp), %rcx
100006aab: ff d1                       	callq	*%rcx
100006aad: 83 f8 00                    	cmpl	$0, %eax
100006ab0: 0f 85 5a 00 00 00           	jne	90 <_ft_list_remove+0x1a0>
100006ab6: 48 8b 45 e0                 	movq	-32(%rbp), %rax
100006aba: 48 8b 00                    	movq	(%rax), %rax
100006abd: 48 8b 7d f0                 	movq	-16(%rbp), %rdi
100006ac1: 48 89 45 98                 	movq	%rax, -104(%rbp)
100006ac5: e8 16 81 00 00              	callq	33046 <_ft_strlen>
100006aca: 48 8b 4d 98                 	movq	-104(%rbp), %rcx
100006ace: 80 3c 01 00                 	cmpb	$0, (%rcx,%rax)
100006ad2: 0f 85 38 00 00 00           	jne	56 <_ft_list_remove+0x1a0>
100006ad8: 48 8b 45 e0                 	movq	-32(%rbp), %rax
100006adc: 48 8b 40 08                 	movq	8(%rax), %rax
100006ae0: 48 8b 4d f8                 	movq	-8(%rbp), %rcx
100006ae4: 48 89 01                    	movq	%rax, (%rcx)
100006ae7: 48 8b 45 e0                 	movq	-32(%rbp), %rax
100006aeb: 48 8b 38                    	movq	(%rax), %rdi
100006aee: e8 29 8a 00 00              	callq	35369 <dyld_stub_binder+0x10000f51c>
100006af3: 48 8b 45 e0                 	movq	-32(%rbp), %rax
100006af7: 48 89 c7                    	movq	%rax, %rdi
100006afa: e8 1d 8a 00 00              	callq	35357 <dyld_stub_binder+0x10000f51c>
100006aff: 48 8b 7d f8                 	movq	-8(%rbp), %rdi
100006b03: 48 8b 75 f0                 	movq	-16(%rbp), %rsi
100006b07: 48 8b 55 e8                 	movq	-24(%rbp), %rdx
100006b0b: e8 60 fe ff ff              	callq	-416 <_ft_list_remove>
100006b10: e9 00 00 00 00              	jmp	0 <_ft_list_remove+0x1a5>
100006b15: 48 8b 45 f8                 	movq	-8(%rbp), %rax
100006b19: 48 8b 00                    	movq	(%rax), %rax
100006b1c: 48 89 45 e0                 	movq	%rax, -32(%rbp)
100006b20: 48 8b 45 e0                 	movq	-32(%rbp), %rax
100006b24: 48 05 08 00 00 00           	addq	$8, %rax
100006b2a: 48 8b 75 f0                 	movq	-16(%rbp), %rsi
100006b2e: 48 8b 55 e8                 	movq	-24(%rbp), %rdx
100006b32: 48 89 c7                    	movq	%rax, %rdi
100006b35: e8 36 fe ff ff              	callq	-458 <_ft_list_remove>
100006b3a: 48 83 c4 70                 	addq	$112, %rsp
100006b3e: 5d                          	popq	%rbp
100006b3f: c3                          	retq

0000000100006b40 _tt_unset:
100006b40: 55                          	pushq	%rbp
100006b41: 48 89 e5                    	movq	%rsp, %rbp
100006b44: 48 83 ec 30                 	subq	$48, %rsp
100006b48: 48 89 7d f0                 	movq	%rdi, -16(%rbp)
100006b4c: 48 8b 45 f0                 	movq	-16(%rbp), %rax
100006b50: 48 89 45 e8                 	movq	%rax, -24(%rbp)
100006b54: 48 8b 45 e8                 	movq	-24(%rbp), %rax
100006b58: 48 8b 40 10                 	movq	16(%rax), %rax
100006b5c: 48 8b 00                    	movq	(%rax), %rax
100006b5f: 80 78 01 00                 	cmpb	$0, 1(%rax)
100006b63: 0f 85 0c 00 00 00           	jne	12 <_tt_unset+0x35>
100006b69: c7 45 fc 00 00 00 00        	movl	$0, -4(%rbp)
100006b70: e9 4b 00 00 00              	jmp	75 <_tt_unset+0x80>
100006b75: 31 c0                       	xorl	%eax, %eax
100006b77: 89 c7                       	movl	%eax, %edi
100006b79: be 03 00 00 00              	movl	$3, %esi
100006b7e: e8 6d 0a 00 00              	callq	2669 <_set__get_option_variables>
100006b83: 48 8d 0d b6 80 00 00        	leaq	32950(%rip), %rcx
100006b8a: 48 89 45 e0                 	movq	%rax, -32(%rbp)
100006b8e: 48 8b 45 e0                 	movq	-32(%rbp), %rax
100006b92: 48 8b 00                    	movq	(%rax), %rax
100006b95: 48 89 45 d8                 	movq	%rax, -40(%rbp)
100006b99: 48 8b 45 e8                 	movq	-24(%rbp), %rax
100006b9d: 48 8b 40 10                 	movq	16(%rax), %rax
100006ba1: 48 8b 00                    	movq	(%rax), %rax
100006ba4: 48 05 01 00 00 00           	addq	$1, %rax
100006baa: 48 8d 7d d8                 	leaq	-40(%rbp), %rdi
100006bae: 48 89 c6                    	movq	%rax, %rsi
100006bb1: 48 89 ca                    	movq	%rcx, %rdx
100006bb4: e8 b7 fd ff ff              	callq	-585 <_ft_list_remove>
100006bb9: c7 45 fc 39 05 00 00        	movl	$1337, -4(%rbp)
100006bc0: 8b 45 fc                    	movl	-4(%rbp), %eax
100006bc3: 48 83 c4 30                 	addq	$48, %rsp
100006bc7: 5d                          	popq	%rbp
100006bc8: c3                          	retq
100006bc9: 90                          	nop
100006bca: 90                          	nop
100006bcb: 90                          	nop
100006bcc: 90                          	nop
100006bcd: 90                          	nop
100006bce: 90                          	nop
100006bcf: 90                          	nop

0000000100006bd0 _sp_free:
100006bd0: 55                          	pushq	%rbp
100006bd1: 48 89 e5                    	movq	%rsp, %rbp
100006bd4: 48 83 ec 10                 	subq	$16, %rsp
100006bd8: 48 89 7d f8                 	movq	%rdi, -8(%rbp)
100006bdc: c7 45 f4 ff ff ff ff        	movl	$4294967295, -12(%rbp)
100006be3: 48 8b 45 f8                 	movq	-8(%rbp), %rax
100006be7: 8b 4d f4                    	movl	-12(%rbp), %ecx
100006bea: 83 c1 01                    	addl	$1, %ecx
100006bed: 89 4d f4                    	movl	%ecx, -12(%rbp)
100006bf0: 48 63 d1                    	movslq	%ecx, %rdx
100006bf3: 48 83 3c d0 00              	cmpq	$0, (%rax,%rdx,8)
100006bf8: 0f 84 16 00 00 00           	je	22 <_sp_free+0x44>
100006bfe: 48 8b 45 f8                 	movq	-8(%rbp), %rax
100006c02: 48 63 4d f4                 	movslq	-12(%rbp), %rcx
100006c06: 48 8b 3c c8                 	movq	(%rax,%rcx,8), %rdi
100006c0a: e8 0d 89 00 00              	callq	35085 <dyld_stub_binder+0x10000f51c>
100006c0f: e9 cf ff ff ff              	jmp	-49 <_sp_free+0x13>
100006c14: 48 8b 45 f8                 	movq	-8(%rbp), %rax
100006c18: 48 89 c7                    	movq	%rax, %rdi
100006c1b: e8 fc 88 00 00              	callq	35068 <dyld_stub_binder+0x10000f51c>
100006c20: 48 83 c4 10                 	addq	$16, %rsp
100006c24: 5d                          	popq	%rbp
100006c25: c3                          	retq
100006c26: 66 2e 0f 1f 84 00 00 00 00 00       	nopw	%cs:(%rax,%rax)

0000000100006c30 _app_dup:
100006c30: 55                          	pushq	%rbp
100006c31: 48 89 e5                    	movq	%rsp, %rbp
100006c34: 48 83 ec 20                 	subq	$32, %rsp
100006c38: 48 89 7d f8                 	movq	%rdi, -8(%rbp)
100006c3c: 48 8b 7d f8                 	movq	-8(%rbp), %rdi
100006c40: e8 9b 7f 00 00              	callq	32667 <_ft_strlen>
100006c45: 48 c1 e0 00                 	shlq	$0, %rax
100006c49: 48 89 c7                    	movq	%rax, %rdi
100006c4c: e8 e3 88 00 00              	callq	35043 <dyld_stub_binder+0x10000f534>
100006c51: 48 89 45 f0                 	movq	%rax, -16(%rbp)
100006c55: c7 45 ec 00 00 00 00        	movl	$0, -20(%rbp)
100006c5c: 48 8b 45 f8                 	movq	-8(%rbp), %rax
100006c60: 80 38 00                    	cmpb	$0, (%rax)
100006c63: 0f 84 4b 00 00 00           	je	75 <_app_dup+0x84>
100006c69: 48 8b 45 f8                 	movq	-8(%rbp), %rax
100006c6d: 0f be 08                    	movsbl	(%rax), %ecx
100006c70: 83 f9 2b                    	cmpl	$43, %ecx
100006c73: 0f 85 0e 00 00 00           	jne	14 <_app_dup+0x57>
100006c79: 48 8b 45 f8                 	movq	-8(%rbp), %rax
100006c7d: 48 05 01 00 00 00           	addq	$1, %rax
100006c83: 48 89 45 f8                 	movq	%rax, -8(%rbp)
100006c87: 48 8b 45 f8                 	movq	-8(%rbp), %rax
100006c8b: 8a 08                       	movb	(%rax), %cl
100006c8d: 48 8b 45 f0                 	movq	-16(%rbp), %rax
100006c91: 48 63 55 ec                 	movslq	-20(%rbp), %rdx
100006c95: 88 0c 10                    	movb	%cl, (%rax,%rdx)
100006c98: 8b 75 ec                    	movl	-20(%rbp), %esi
100006c9b: 83 c6 01                    	addl	$1, %esi
100006c9e: 89 75 ec                    	movl	%esi, -20(%rbp)
100006ca1: 48 8b 45 f8                 	movq	-8(%rbp), %rax
100006ca5: 48 05 01 00 00 00           	addq	$1, %rax
100006cab: 48 89 45 f8                 	movq	%rax, -8(%rbp)
100006caf: e9 a8 ff ff ff              	jmp	-88 <_app_dup+0x2c>
100006cb4: 48 8b 45 f0                 	movq	-16(%rbp), %rax
100006cb8: 48 83 c4 20                 	addq	$32, %rsp
100006cbc: 5d                          	popq	%rbp
100006cbd: c3                          	retq
100006cbe: 66 90                       	nop

0000000100006cc0 _valid_id:
100006cc0: 55                          	pushq	%rbp
100006cc1: 48 89 e5                    	movq	%rsp, %rbp
100006cc4: 48 83 ec 20                 	subq	$32, %rsp
100006cc8: 48 89 7d f0                 	movq	%rdi, -16(%rbp)
100006ccc: 48 8b 45 f0                 	movq	-16(%rbp), %rax
100006cd0: 0f be 38                    	movsbl	(%rax), %edi
100006cd3: e8 28 7b 00 00              	callq	31528 <_ft_isalpha>
100006cd8: 83 f8 00                    	cmpl	$0, %eax
100006cdb: 0f 85 1c 00 00 00           	jne	28 <_valid_id+0x3d>
100006ce1: 48 8b 45 f0                 	movq	-16(%rbp), %rax
100006ce5: 0f be 08                    	movsbl	(%rax), %ecx
100006ce8: 83 f9 5f                    	cmpl	$95, %ecx
100006ceb: 0f 84 0c 00 00 00           	je	12 <_valid_id+0x3d>
100006cf1: c7 45 fc 01 00 00 00        	movl	$1, -4(%rbp)
100006cf8: e9 16 01 00 00              	jmp	278 <_valid_id+0x153>
100006cfd: e9 00 00 00 00              	jmp	0 <_valid_id+0x42>
100006d02: 31 c0                       	xorl	%eax, %eax
100006d04: 48 8b 4d f0                 	movq	-16(%rbp), %rcx
100006d08: 0f be 11                    	movsbl	(%rcx), %edx
100006d0b: 83 fa 00                    	cmpl	$0, %edx
100006d0e: 88 45 ef                    	movb	%al, -17(%rbp)
100006d11: 0f 84 25 00 00 00           	je	37 <_valid_id+0x7c>
100006d17: 31 c0                       	xorl	%eax, %eax
100006d19: 48 8b 4d f0                 	movq	-16(%rbp), %rcx
100006d1d: 0f be 11                    	movsbl	(%rcx), %edx
100006d20: 83 fa 3d                    	cmpl	$61, %edx
100006d23: 88 45 ef                    	movb	%al, -17(%rbp)
100006d26: 0f 84 10 00 00 00           	je	16 <_valid_id+0x7c>
100006d2c: 48 8b 45 f0                 	movq	-16(%rbp), %rax
100006d30: 0f be 08                    	movsbl	(%rax), %ecx
100006d33: 83 f9 2b                    	cmpl	$43, %ecx
100006d36: 0f 95 c2                    	setne	%dl
100006d39: 88 55 ef                    	movb	%dl, -17(%rbp)
100006d3c: 8a 45 ef                    	movb	-17(%rbp), %al
100006d3f: a8 01                       	testb	$1, %al
100006d41: 0f 85 05 00 00 00           	jne	5 <_valid_id+0x8c>
100006d47: e9 44 00 00 00              	jmp	68 <_valid_id+0xd0>
100006d4c: 48 8b 45 f0                 	movq	-16(%rbp), %rax
100006d50: 0f be 38                    	movsbl	(%rax), %edi
100006d53: e8 68 7a 00 00              	callq	31336 <_ft_isalnum>
100006d58: 83 f8 00                    	cmpl	$0, %eax
100006d5b: 0f 85 1c 00 00 00           	jne	28 <_valid_id+0xbd>
100006d61: 48 8b 45 f0                 	movq	-16(%rbp), %rax
100006d65: 0f be 08                    	movsbl	(%rax), %ecx
100006d68: 83 f9 5f                    	cmpl	$95, %ecx
100006d6b: 0f 84 0c 00 00 00           	je	12 <_valid_id+0xbd>
100006d71: c7 45 fc 01 00 00 00        	movl	$1, -4(%rbp)
100006d78: e9 96 00 00 00              	jmp	150 <_valid_id+0x153>
100006d7d: 48 8b 45 f0                 	movq	-16(%rbp), %rax
100006d81: 48 05 01 00 00 00           	addq	$1, %rax
100006d87: 48 89 45 f0                 	movq	%rax, -16(%rbp)
100006d8b: e9 72 ff ff ff              	jmp	-142 <_valid_id+0x42>
100006d90: 48 8b 45 f0                 	movq	-16(%rbp), %rax
100006d94: 0f be 08                    	movsbl	(%rax), %ecx
100006d97: 83 f9 00                    	cmpl	$0, %ecx
100006d9a: 0f 84 2a 00 00 00           	je	42 <_valid_id+0x10a>
100006da0: 48 8b 45 f0                 	movq	-16(%rbp), %rax
100006da4: 0f be 08                    	movsbl	(%rax), %ecx
100006da7: 83 f9 2b                    	cmpl	$43, %ecx
100006daa: 0f 85 1a 00 00 00           	jne	26 <_valid_id+0x10a>
100006db0: 48 8b 45 f0                 	movq	-16(%rbp), %rax
100006db4: 80 78 01 00                 	cmpb	$0, 1(%rax)
100006db8: 0f 85 0c 00 00 00           	jne	12 <_valid_id+0x10a>
100006dbe: c7 45 fc 01 00 00 00        	movl	$1, -4(%rbp)
100006dc5: e9 49 00 00 00              	jmp	73 <_valid_id+0x153>
100006dca: 48 8b 45 f0                 	movq	-16(%rbp), %rax
100006dce: 0f be 08                    	movsbl	(%rax), %ecx
100006dd1: 83 f9 00                    	cmpl	$0, %ecx
100006dd4: 0f 84 2d 00 00 00           	je	45 <_valid_id+0x147>
100006dda: 48 8b 45 f0                 	movq	-16(%rbp), %rax
100006dde: 0f be 08                    	movsbl	(%rax), %ecx
100006de1: 83 f9 2b                    	cmpl	$43, %ecx
100006de4: 0f 85 1d 00 00 00           	jne	29 <_valid_id+0x147>
100006dea: 48 8b 45 f0                 	movq	-16(%rbp), %rax
100006dee: 0f be 48 01                 	movsbl	1(%rax), %ecx
100006df2: 83 f9 3d                    	cmpl	$61, %ecx
100006df5: 0f 84 0c 00 00 00           	je	12 <_valid_id+0x147>
100006dfb: c7 45 fc 01 00 00 00        	movl	$1, -4(%rbp)
100006e02: e9 0c 00 00 00              	jmp	12 <_valid_id+0x153>
100006e07: e9 00 00 00 00              	jmp	0 <_valid_id+0x14c>
100006e0c: c7 45 fc 00 00 00 00        	movl	$0, -4(%rbp)
100006e13: 8b 45 fc                    	movl	-4(%rbp), %eax
100006e16: 48 83 c4 20                 	addq	$32, %rsp
100006e1a: 5d                          	popq	%rbp
100006e1b: c3                          	retq
100006e1c: 0f 1f 40 00                 	nopl	(%rax)

0000000100006e20 _ft_strndup:
100006e20: 55                          	pushq	%rbp
100006e21: 48 89 e5                    	movq	%rsp, %rbp
100006e24: 48 83 ec 30                 	subq	$48, %rsp
100006e28: 48 89 7d f0                 	movq	%rdi, -16(%rbp)
100006e2c: 48 89 75 e8                 	movq	%rsi, -24(%rbp)
100006e30: 48 83 7d e8 00              	cmpq	$0, -24(%rbp)
100006e35: 0f 85 15 00 00 00           	jne	21 <_ft_strndup+0x30>
100006e3b: 48 8d 3d 0c 8b 00 00        	leaq	35596(%rip), %rdi
100006e42: e8 f9 7c 00 00              	callq	31993 <_ft_strdup>
100006e47: 48 89 45 f8                 	movq	%rax, -8(%rbp)
100006e4b: e9 92 00 00 00              	jmp	146 <_ft_strndup+0xc2>
100006e50: 48 8b 45 e8                 	movq	-24(%rbp), %rax
100006e54: 48 05 01 00 00 00           	addq	$1, %rax
100006e5a: 48 c1 e0 00                 	shlq	$0, %rax
100006e5e: 48 89 c7                    	movq	%rax, %rdi
100006e61: e8 ce 86 00 00              	callq	34510 <dyld_stub_binder+0x10000f534>
100006e66: 48 89 45 e0                 	movq	%rax, -32(%rbp)
100006e6a: 48 83 7d e0 00              	cmpq	$0, -32(%rbp)
100006e6f: 0f 85 0d 00 00 00           	jne	13 <_ft_strndup+0x62>
100006e75: 48 c7 45 f8 00 00 00 00     	movq	$0, -8(%rbp)
100006e7d: e9 60 00 00 00              	jmp	96 <_ft_strndup+0xc2>
100006e82: 48 8b 45 e0                 	movq	-32(%rbp), %rax
100006e86: 48 89 45 d8                 	movq	%rax, -40(%rbp)
100006e8a: 48 8b 45 e8                 	movq	-24(%rbp), %rax
100006e8e: 48 89 c1                    	movq	%rax, %rcx
100006e91: 48 81 c1 ff ff ff ff        	addq	$-1, %rcx
100006e98: 48 89 4d e8                 	movq	%rcx, -24(%rbp)
100006e9c: 48 83 f8 01                 	cmpq	$1, %rax
100006ea0: 0f 82 2d 00 00 00           	jb	45 <_ft_strndup+0xb3>
100006ea6: 48 8b 45 f0                 	movq	-16(%rbp), %rax
100006eaa: 48 89 c1                    	movq	%rax, %rcx
100006ead: 48 81 c1 01 00 00 00        	addq	$1, %rcx
100006eb4: 48 89 4d f0                 	movq	%rcx, -16(%rbp)
100006eb8: 8a 10                       	movb	(%rax), %dl
100006eba: 48 8b 45 e0                 	movq	-32(%rbp), %rax
100006ebe: 48 89 c1                    	movq	%rax, %rcx
100006ec1: 48 81 c1 01 00 00 00        	addq	$1, %rcx
100006ec8: 48 89 4d e0                 	movq	%rcx, -32(%rbp)
100006ecc: 88 10                       	movb	%dl, (%rax)
100006ece: e9 b7 ff ff ff              	jmp	-73 <_ft_strndup+0x6a>
100006ed3: 48 8b 45 e0                 	movq	-32(%rbp), %rax
100006ed7: c6 00 00                    	movb	$0, (%rax)
100006eda: 48 8b 45 d8                 	movq	-40(%rbp), %rax
100006ede: 48 89 45 f8                 	movq	%rax, -8(%rbp)
100006ee2: 48 8b 45 f8                 	movq	-8(%rbp), %rax
100006ee6: 48 83 c4 30                 	addq	$48, %rsp
100006eea: 5d                          	popq	%rbp
100006eeb: c3                          	retq
100006eec: 90                          	nop
100006eed: 90                          	nop
100006eee: 90                          	nop
100006eef: 90                          	nop

0000000100006ef0 _lst_dup:
100006ef0: 55                          	pushq	%rbp
100006ef1: 48 89 e5                    	movq	%rsp, %rbp
100006ef4: 48 83 ec 20                 	subq	$32, %rsp
100006ef8: 48 89 7d f0                 	movq	%rdi, -16(%rbp)
100006efc: 48 c7 45 e8 00 00 00 00     	movq	$0, -24(%rbp)
100006f04: 48 83 7d f0 00              	cmpq	$0, -16(%rbp)
100006f09: 0f 85 0d 00 00 00           	jne	13 <_lst_dup+0x2c>
100006f0f: 48 8b 45 e8                 	movq	-24(%rbp), %rax
100006f13: 48 89 45 f8                 	movq	%rax, -8(%rbp)
100006f17: e9 49 00 00 00              	jmp	73 <_lst_dup+0x75>
100006f1c: e9 00 00 00 00              	jmp	0 <_lst_dup+0x31>
100006f21: 48 83 7d f0 00              	cmpq	$0, -16(%rbp)
100006f26: 0f 84 31 00 00 00           	je	49 <_lst_dup+0x6d>
100006f2c: 48 8b 45 f0                 	movq	-16(%rbp), %rax
100006f30: 48 8b 38                    	movq	(%rax), %rdi
100006f33: e8 08 7c 00 00              	callq	31752 <_ft_strdup>
100006f38: 48 89 c7                    	movq	%rax, %rdi
100006f3b: e8 b0 83 00 00              	callq	33712 <_ft_lstnew>
100006f40: 48 8d 7d e8                 	leaq	-24(%rbp), %rdi
100006f44: 48 89 c6                    	movq	%rax, %rsi
100006f47: e8 44 84 00 00              	callq	33860 <_ft_lstadd_back>
100006f4c: 48 8b 45 f0                 	movq	-16(%rbp), %rax
100006f50: 48 8b 40 08                 	movq	8(%rax), %rax
100006f54: 48 89 45 f0                 	movq	%rax, -16(%rbp)
100006f58: e9 c4 ff ff ff              	jmp	-60 <_lst_dup+0x31>
100006f5d: 48 8b 45 e8                 	movq	-24(%rbp), %rax
100006f61: 48 89 45 f8                 	movq	%rax, -8(%rbp)
100006f65: 48 8b 45 f8                 	movq	-8(%rbp), %rax
100006f69: 48 83 c4 20                 	addq	$32, %rsp
100006f6d: 5d                          	popq	%rbp
100006f6e: c3                          	retq
100006f6f: 90                          	nop

0000000100006f70 _sort_list:
100006f70: 55                          	pushq	%rbp
100006f71: 48 89 e5                    	movq	%rsp, %rbp
100006f74: 48 83 ec 60                 	subq	$96, %rsp
100006f78: 48 89 7d f8                 	movq	%rdi, -8(%rbp)
100006f7c: 48 89 75 f0                 	movq	%rsi, -16(%rbp)
100006f80: 48 c7 45 d8 00 00 00 00     	movq	$0, -40(%rbp)
100006f88: 48 83 7d f8 00              	cmpq	$0, -8(%rbp)
100006f8d: 0f 84 2a 01 00 00           	je	298 <_sort_list+0x14d>
100006f93: 48 8b 45 f8                 	movq	-8(%rbp), %rax
100006f97: 48 89 45 e0                 	movq	%rax, -32(%rbp)
100006f9b: 48 8b 45 f8                 	movq	-8(%rbp), %rax
100006f9f: 48 8b 40 08                 	movq	8(%rax), %rax
100006fa3: 48 89 45 f8                 	movq	%rax, -8(%rbp)
100006fa7: 48 83 7d d8 00              	cmpq	$0, -40(%rbp)
100006fac: 0f 84 47 00 00 00           	je	71 <_sort_list+0x89>
100006fb2: 48 8b 45 f0                 	movq	-16(%rbp), %rax
100006fb6: 48 8b 4d e0                 	movq	-32(%rbp), %rcx
100006fba: 48 8b 39                    	movq	(%rcx), %rdi
100006fbd: 48 8b 4d d8                 	movq	-40(%rbp), %rcx
100006fc1: 48 8b 31                    	movq	(%rcx), %rsi
100006fc4: 48 8b 4d e0                 	movq	-32(%rbp), %rcx
100006fc8: 48 8b 09                    	movq	(%rcx), %rcx
100006fcb: 48 89 7d d0                 	movq	%rdi, -48(%rbp)
100006fcf: 48 89 cf                    	movq	%rcx, %rdi
100006fd2: 48 89 45 c8                 	movq	%rax, -56(%rbp)
100006fd6: 48 89 75 c0                 	movq	%rsi, -64(%rbp)
100006fda: e8 01 7c 00 00              	callq	31745 <_ft_strlen>
100006fdf: 48 8b 7d d0                 	movq	-48(%rbp), %rdi
100006fe3: 48 8b 75 c0                 	movq	-64(%rbp), %rsi
100006fe7: 48 89 c2                    	movq	%rax, %rdx
100006fea: 48 8b 45 c8                 	movq	-56(%rbp), %rax
100006fee: ff d0                       	callq	*%rax
100006ff0: 83 f8 00                    	cmpl	$0, %eax
100006ff3: 0f 8d 19 00 00 00           	jge	25 <_sort_list+0xa2>
100006ff9: 48 8b 45 d8                 	movq	-40(%rbp), %rax
100006ffd: 48 8b 4d e0                 	movq	-32(%rbp), %rcx
100007001: 48 89 41 08                 	movq	%rax, 8(%rcx)
100007005: 48 8b 45 e0                 	movq	-32(%rbp), %rax
100007009: 48 89 45 d8                 	movq	%rax, -40(%rbp)
10000700d: e9 a6 00 00 00              	jmp	166 <_sort_list+0x148>
100007012: 48 8b 45 d8                 	movq	-40(%rbp), %rax
100007016: 48 89 45 e8                 	movq	%rax, -24(%rbp)
10000701a: 31 c0                       	xorl	%eax, %eax
10000701c: 48 8b 4d e8                 	movq	-24(%rbp), %rcx
100007020: 48 83 79 08 00              	cmpq	$0, 8(%rcx)
100007025: 88 45 bf                    	movb	%al, -65(%rbp)
100007028: 0f 84 4d 00 00 00           	je	77 <_sort_list+0x10b>
10000702e: 48 8b 45 f0                 	movq	-16(%rbp), %rax
100007032: 48 8b 4d e0                 	movq	-32(%rbp), %rcx
100007036: 48 8b 39                    	movq	(%rcx), %rdi
100007039: 48 8b 4d e8                 	movq	-24(%rbp), %rcx
10000703d: 48 8b 49 08                 	movq	8(%rcx), %rcx
100007041: 48 8b 31                    	movq	(%rcx), %rsi
100007044: 48 8b 4d e0                 	movq	-32(%rbp), %rcx
100007048: 48 8b 09                    	movq	(%rcx), %rcx
10000704b: 48 89 7d b0                 	movq	%rdi, -80(%rbp)
10000704f: 48 89 cf                    	movq	%rcx, %rdi
100007052: 48 89 45 a8                 	movq	%rax, -88(%rbp)
100007056: 48 89 75 a0                 	movq	%rsi, -96(%rbp)
10000705a: e8 81 7b 00 00              	callq	31617 <_ft_strlen>
10000705f: 48 8b 7d b0                 	movq	-80(%rbp), %rdi
100007063: 48 8b 75 a0                 	movq	-96(%rbp), %rsi
100007067: 48 89 c2                    	movq	%rax, %rdx
10000706a: 48 8b 45 a8                 	movq	-88(%rbp), %rax
10000706e: ff d0                       	callq	*%rax
100007070: 83 f8 00                    	cmpl	$0, %eax
100007073: 41 0f 9f c0                 	setg	%r8b
100007077: 44 88 45 bf                 	movb	%r8b, -65(%rbp)
10000707b: 8a 45 bf                    	movb	-65(%rbp), %al
10000707e: a8 01                       	testb	$1, %al
100007080: 0f 85 05 00 00 00           	jne	5 <_sort_list+0x11b>
100007086: e9 11 00 00 00              	jmp	17 <_sort_list+0x12c>
10000708b: 48 8b 45 e8                 	movq	-24(%rbp), %rax
10000708f: 48 8b 40 08                 	movq	8(%rax), %rax
100007093: 48 89 45 e8                 	movq	%rax, -24(%rbp)
100007097: e9 7e ff ff ff              	jmp	-130 <_sort_list+0xaa>
10000709c: 48 8b 45 e8                 	movq	-24(%rbp), %rax
1000070a0: 48 8b 40 08                 	movq	8(%rax), %rax
1000070a4: 48 8b 4d e0                 	movq	-32(%rbp), %rcx
1000070a8: 48 89 41 08                 	movq	%rax, 8(%rcx)
1000070ac: 48 8b 45 e0                 	movq	-32(%rbp), %rax
1000070b0: 48 8b 4d e8                 	movq	-24(%rbp), %rcx
1000070b4: 48 89 41 08                 	movq	%rax, 8(%rcx)
1000070b8: e9 cb fe ff ff              	jmp	-309 <_sort_list+0x18>
1000070bd: 48 8b 45 d8                 	movq	-40(%rbp), %rax
1000070c1: 48 83 c4 60                 	addq	$96, %rsp
1000070c5: 5d                          	popq	%rbp
1000070c6: c3                          	retq
1000070c7: 66 0f 1f 84 00 00 00 00 00  	nopw	(%rax,%rax)

00000001000070d0 _env_exp_print:
1000070d0: 55                          	pushq	%rbp
1000070d1: 48 89 e5                    	movq	%rsp, %rbp
1000070d4: 48 83 ec 20                 	subq	$32, %rsp
1000070d8: 48 89 7d f8                 	movq	%rdi, -8(%rbp)
1000070dc: 48 89 75 f0                 	movq	%rsi, -16(%rbp)
1000070e0: 48 8b 45 f8                 	movq	-8(%rbp), %rax
1000070e4: 48 89 45 e8                 	movq	%rax, -24(%rbp)
1000070e8: 48 83 7d e8 00              	cmpq	$0, -24(%rbp)
1000070ed: 0f 84 2f 00 00 00           	je	47 <_env_exp_print+0x52>
1000070f3: 48 8b 45 f0                 	movq	-16(%rbp), %rax
1000070f7: 48 8b 4d e8                 	movq	-24(%rbp), %rcx
1000070fb: 48 8b 31                    	movq	(%rcx), %rsi
1000070fe: 48 8d 3d b5 88 00 00        	leaq	34997(%rip), %rdi
100007105: 48 89 45 e0                 	movq	%rax, -32(%rbp)
100007109: b0 00                       	movb	$0, %al
10000710b: 48 8b 4d e0                 	movq	-32(%rbp), %rcx
10000710f: ff d1                       	callq	*%rcx
100007111: 48 8b 4d e8                 	movq	-24(%rbp), %rcx
100007115: 48 8b 49 08                 	movq	8(%rcx), %rcx
100007119: 48 89 4d e8                 	movq	%rcx, -24(%rbp)
10000711d: e9 c6 ff ff ff              	jmp	-58 <_env_exp_print+0x18>
100007122: 48 83 c4 20                 	addq	$32, %rsp
100007126: 5d                          	popq	%rbp
100007127: c3                          	retq
100007128: 0f 1f 84 00 00 00 00 00     	nopl	(%rax,%rax)

0000000100007130 _env_vars:
100007130: 55                          	pushq	%rbp
100007131: 48 89 e5                    	movq	%rsp, %rbp
100007134: 48 83 ec 30                 	subq	$48, %rsp
100007138: 48 89 7d f0                 	movq	%rdi, -16(%rbp)
10000713c: 48 8b 45 f0                 	movq	-16(%rbp), %rax
100007140: 0f bf 48 08                 	movswl	8(%rax), %ecx
100007144: 89 4d dc                    	movl	%ecx, -36(%rbp)
100007147: 48 8b 45 f0                 	movq	-16(%rbp), %rax
10000714b: 48 8b 00                    	movq	(%rax), %rax
10000714e: 48 89 45 e8                 	movq	%rax, -24(%rbp)
100007152: 48 63 45 dc                 	movslq	-36(%rbp), %rax
100007156: 48 c1 e0 03                 	shlq	$3, %rax
10000715a: 48 05 01 00 00 00           	addq	$1, %rax
100007160: 48 89 c7                    	movq	%rax, %rdi
100007163: e8 cc 83 00 00              	callq	33740 <dyld_stub_binder+0x10000f534>
100007168: 48 89 45 e0                 	movq	%rax, -32(%rbp)
10000716c: 48 83 7d f0 00              	cmpq	$0, -16(%rbp)
100007171: 0f 84 77 00 00 00           	je	119 <_env_vars+0xbe>
100007177: e9 00 00 00 00              	jmp	0 <_env_vars+0x4c>
10000717c: 8b 45 dc                    	movl	-36(%rbp), %eax
10000717f: 89 c1                       	movl	%eax, %ecx
100007181: 83 c1 ff                    	addl	$-1, %ecx
100007184: 89 4d dc                    	movl	%ecx, -36(%rbp)
100007187: 83 f8 00                    	cmpl	$0, %eax
10000718a: 0f 84 2d 00 00 00           	je	45 <_env_vars+0x8d>
100007190: 48 8b 45 e8                 	movq	-24(%rbp), %rax
100007194: 48 8b 00                    	movq	(%rax), %rax
100007197: 48 8b 4d e0                 	movq	-32(%rbp), %rcx
10000719b: 48 89 01                    	movq	%rax, (%rcx)
10000719e: 48 8b 45 e0                 	movq	-32(%rbp), %rax
1000071a2: 48 05 08 00 00 00           	addq	$8, %rax
1000071a8: 48 89 45 e0                 	movq	%rax, -32(%rbp)
1000071ac: 48 8b 45 e8                 	movq	-24(%rbp), %rax
1000071b0: 48 8b 40 08                 	movq	8(%rax), %rax
1000071b4: 48 89 45 e8                 	movq	%rax, -24(%rbp)
1000071b8: e9 bf ff ff ff              	jmp	-65 <_env_vars+0x4c>
1000071bd: 31 c0                       	xorl	%eax, %eax
1000071bf: 89 c1                       	movl	%eax, %ecx
1000071c1: 48 8b 55 e0                 	movq	-32(%rbp), %rdx
1000071c5: 48 c7 02 00 00 00 00        	movq	$0, (%rdx)
1000071cc: 48 8b 55 e0                 	movq	-32(%rbp), %rdx
1000071d0: 48 8b 75 f0                 	movq	-16(%rbp), %rsi
1000071d4: 0f bf 46 08                 	movswl	8(%rsi), %eax
1000071d8: 48 63 f0                    	movslq	%eax, %rsi
1000071db: 48 29 f1                    	subq	%rsi, %rcx
1000071de: 48 c1 e1 03                 	shlq	$3, %rcx
1000071e2: 48 01 ca                    	addq	%rcx, %rdx
1000071e5: 48 89 55 f8                 	movq	%rdx, -8(%rbp)
1000071e9: e9 08 00 00 00              	jmp	8 <_env_vars+0xc6>
1000071ee: 48 c7 45 f8 00 00 00 00     	movq	$0, -8(%rbp)
1000071f6: 48 8b 45 f8                 	movq	-8(%rbp), %rax
1000071fa: 48 83 c4 30                 	addq	$48, %rsp
1000071fe: 5d                          	popq	%rbp
1000071ff: c3                          	retq

0000000100007200 _set_pwd:
100007200: 55                          	pushq	%rbp
100007201: 48 89 e5                    	movq	%rsp, %rbp
100007204: 48 81 ec 30 04 00 00        	subq	$1072, %rsp
10000720b: 48 8d 85 f0 fb ff ff        	leaq	-1040(%rbp), %rax
100007212: 48 8b 0d e7 8d 00 00        	movq	36327(%rip), %rcx
100007219: 48 8b 09                    	movq	(%rcx), %rcx
10000721c: 48 89 4d f8                 	movq	%rcx, -8(%rbp)
100007220: 48 89 bd e0 fb ff ff        	movq	%rdi, -1056(%rbp)
100007227: 48 89 c7                    	movq	%rax, %rdi
10000722a: be 00 04 00 00              	movl	$1024, %esi
10000722f: e8 ee 82 00 00              	callq	33518 <dyld_stub_binder+0x10000f522>
100007234: 48 83 f8 00                 	cmpq	$0, %rax
100007238: 0f 85 26 00 00 00           	jne	38 <_set_pwd+0x64>
10000723e: 48 83 bd e0 fb ff ff 00     	cmpq	$0, -1056(%rbp)
100007246: 0f 84 18 00 00 00           	je	24 <_set_pwd+0x64>
10000724c: 48 8b bd e0 fb ff ff        	movq	-1056(%rbp), %rdi
100007253: e8 e8 78 00 00              	callq	30952 <_ft_strdup>
100007258: 48 89 85 d8 fb ff ff        	movq	%rax, -1064(%rbp)
10000725f: e9 77 00 00 00              	jmp	119 <_set_pwd+0xdb>
100007264: 48 8d bd f0 fb ff ff        	leaq	-1040(%rbp), %rdi
10000726b: be 00 04 00 00              	movl	$1024, %esi
100007270: e8 ad 82 00 00              	callq	33453 <dyld_stub_binder+0x10000f522>
100007275: 48 83 f8 00                 	cmpq	$0, %rax
100007279: 0f 85 44 00 00 00           	jne	68 <_set_pwd+0xc3>
10000727f: 48 83 bd e0 fb ff ff 00     	cmpq	$0, -1056(%rbp)
100007287: 0f 85 36 00 00 00           	jne	54 <_set_pwd+0xc3>
10000728d: 48 8d 3d 5a 85 00 00        	leaq	34138(%rip), %rdi
100007294: e8 97 d6 ff ff              	callq	-10601 <_get_owd>
100007299: 48 83 f8 00                 	cmpq	$0, %rax
10000729d: 0f 84 20 00 00 00           	je	32 <_set_pwd+0xc3>
1000072a3: 48 8d 3d 44 85 00 00        	leaq	34116(%rip), %rdi
1000072aa: e8 81 d6 ff ff              	callq	-10623 <_get_owd>
1000072af: 48 89 c7                    	movq	%rax, %rdi
1000072b2: e8 89 78 00 00              	callq	30857 <_ft_strdup>
1000072b7: 48 89 85 e8 fb ff ff        	movq	%rax, -1048(%rbp)
1000072be: e9 32 00 00 00              	jmp	50 <_set_pwd+0xf5>
1000072c3: 48 8d bd f0 fb ff ff        	leaq	-1040(%rbp), %rdi
1000072ca: e8 71 78 00 00              	callq	30833 <_ft_strdup>
1000072cf: 48 89 85 d8 fb ff ff        	movq	%rax, -1064(%rbp)
1000072d6: e9 00 00 00 00              	jmp	0 <_set_pwd+0xdb>
1000072db: 48 8b bd e0 fb ff ff        	movq	-1056(%rbp), %rdi
1000072e2: e8 35 82 00 00              	callq	33333 <dyld_stub_binder+0x10000f51c>
1000072e7: 48 8b 85 d8 fb ff ff        	movq	-1064(%rbp), %rax
1000072ee: 48 89 85 e8 fb ff ff        	movq	%rax, -1048(%rbp)
1000072f5: 48 8b 85 e8 fb ff ff        	movq	-1048(%rbp), %rax
1000072fc: 48 8b 0d fd 8c 00 00        	movq	36093(%rip), %rcx
100007303: 48 8b 09                    	movq	(%rcx), %rcx
100007306: 48 8b 55 f8                 	movq	-8(%rbp), %rdx
10000730a: 48 39 d1                    	cmpq	%rdx, %rcx
10000730d: 48 89 85 d0 fb ff ff        	movq	%rax, -1072(%rbp)
100007314: 0f 85 10 00 00 00           	jne	16 <_set_pwd+0x12a>
10000731a: 48 8b 85 d0 fb ff ff        	movq	-1072(%rbp), %rax
100007321: 48 81 c4 30 04 00 00        	addq	$1072, %rsp
100007328: 5d                          	popq	%rbp
100007329: c3                          	retq
10000732a: e8 ab 81 00 00              	callq	33195 <dyld_stub_binder+0x10000f4da>
10000732f: 0f 0b                       	ud2
100007331: 66 2e 0f 1f 84 00 00 00 00 00       	nopw	%cs:(%rax,%rax)
10000733b: 0f 1f 44 00 00              	nopl	(%rax,%rax)

0000000100007340 _unset:
100007340: 55                          	pushq	%rbp
100007341: 48 89 e5                    	movq	%rsp, %rbp
100007344: 48 83 ec 30                 	subq	$48, %rsp
100007348: 48 89 7d f8                 	movq	%rdi, -8(%rbp)
10000734c: 48 89 75 f0                 	movq	%rsi, -16(%rbp)
100007350: 48 89 55 e8                 	movq	%rdx, -24(%rbp)
100007354: 48 89 4d e0                 	movq	%rcx, -32(%rbp)
100007358: c7 45 dc 00 00 00 00        	movl	$0, -36(%rbp)
10000735f: 48 8b 45 e0                 	movq	-32(%rbp), %rax
100007363: 48 8b 38                    	movq	(%rax), %rdi
100007366: e8 b1 81 00 00              	callq	33201 <dyld_stub_binder+0x10000f51c>
10000736b: 48 8b 45 e0                 	movq	-32(%rbp), %rax
10000736f: 48 c7 00 00 00 00 00        	movq	$0, (%rax)
100007376: 48 8b 45 e8                 	movq	-24(%rbp), %rax
10000737a: 48 8b 38                    	movq	(%rax), %rdi
10000737d: e8 9a 81 00 00              	callq	33178 <dyld_stub_binder+0x10000f51c>
100007382: 48 8b 45 e8                 	movq	-24(%rbp), %rax
100007386: 48 c7 00 00 00 00 00        	movq	$0, (%rax)
10000738d: 31 c0                       	xorl	%eax, %eax
10000738f: 48 8b 4d f0                 	movq	-16(%rbp), %rcx
100007393: 48 83 39 00                 	cmpq	$0, (%rcx)
100007397: 88 45 db                    	movb	%al, -37(%rbp)
10000739a: 0f 84 16 00 00 00           	je	22 <_unset+0x76>
1000073a0: 48 8b 45 f0                 	movq	-16(%rbp), %rax
1000073a4: 48 8b 00                    	movq	(%rax), %rax
1000073a7: 48 63 4d dc                 	movslq	-36(%rbp), %rcx
1000073ab: 48 83 3c c8 00              	cmpq	$0, (%rax,%rcx,8)
1000073b0: 0f 95 c2                    	setne	%dl
1000073b3: 88 55 db                    	movb	%dl, -37(%rbp)
1000073b6: 8a 45 db                    	movb	-37(%rbp), %al
1000073b9: a8 01                       	testb	$1, %al
1000073bb: 0f 85 05 00 00 00           	jne	5 <_unset+0x86>
1000073c1: e9 23 00 00 00              	jmp	35 <_unset+0xa9>
1000073c6: 48 8b 45 f0                 	movq	-16(%rbp), %rax
1000073ca: 48 8b 00                    	movq	(%rax), %rax
1000073cd: 8b 4d dc                    	movl	-36(%rbp), %ecx
1000073d0: 89 ca                       	movl	%ecx, %edx
1000073d2: 83 c2 01                    	addl	$1, %edx
1000073d5: 89 55 dc                    	movl	%edx, -36(%rbp)
1000073d8: 48 63 f1                    	movslq	%ecx, %rsi
1000073db: 48 8b 3c f0                 	movq	(%rax,%rsi,8), %rdi
1000073df: e8 38 81 00 00              	callq	33080 <dyld_stub_binder+0x10000f51c>
1000073e4: e9 a4 ff ff ff              	jmp	-92 <_unset+0x4d>
1000073e9: 48 8b 45 f0                 	movq	-16(%rbp), %rax
1000073ed: 48 8b 00                    	movq	(%rax), %rax
1000073f0: 48 89 c7                    	movq	%rax, %rdi
1000073f3: e8 24 81 00 00              	callq	33060 <dyld_stub_binder+0x10000f51c>
1000073f8: 48 8b 35 09 8c 00 00        	movq	35849(%rip), %rsi
1000073ff: 48 8b 45 f0                 	movq	-16(%rbp), %rax
100007403: 48 c7 00 00 00 00 00        	movq	$0, (%rax)
10000740a: 48 8b 7d f8                 	movq	-8(%rbp), %rdi
10000740e: e8 4d 80 00 00              	callq	32845 <_ft_lstclear>
100007413: 48 83 c4 30                 	addq	$48, %rsp
100007417: 5d                          	popq	%rbp
100007418: c3                          	retq
100007419: 0f 1f 80 00 00 00 00        	nopl	(%rax)

0000000100007420 _ft_dstrdup:
100007420: 55                          	pushq	%rbp
100007421: 48 89 e5                    	movq	%rsp, %rbp
100007424: 48 83 ec 20                 	subq	$32, %rsp
100007428: 48 89 7d f0                 	movq	%rdi, -16(%rbp)
10000742c: 48 8b 7d f0                 	movq	-16(%rbp), %rdi
100007430: e8 eb 1a 00 00              	callq	6891 <_ft_double_strlen>
100007435: 89 45 e4                    	movl	%eax, -28(%rbp)
100007438: c7 45 e0 ff ff ff ff        	movl	$4294967295, -32(%rbp)
10000743f: 8b 45 e4                    	movl	-28(%rbp), %eax
100007442: 83 c0 01                    	addl	$1, %eax
100007445: 48 63 c8                    	movslq	%eax, %rcx
100007448: 48 c1 e1 03                 	shlq	$3, %rcx
10000744c: 48 89 cf                    	movq	%rcx, %rdi
10000744f: e8 e0 80 00 00              	callq	32992 <dyld_stub_binder+0x10000f534>
100007454: 48 89 45 e8                 	movq	%rax, -24(%rbp)
100007458: 48 83 7d e8 00              	cmpq	$0, -24(%rbp)
10000745d: 0f 85 0d 00 00 00           	jne	13 <_ft_dstrdup+0x50>
100007463: 48 c7 45 f8 00 00 00 00     	movq	$0, -8(%rbp)
10000746b: e9 55 00 00 00              	jmp	85 <_ft_dstrdup+0xa5>
100007470: e9 00 00 00 00              	jmp	0 <_ft_dstrdup+0x55>
100007475: 48 8b 45 f0                 	movq	-16(%rbp), %rax
100007479: 8b 4d e0                    	movl	-32(%rbp), %ecx
10000747c: 83 c1 01                    	addl	$1, %ecx
10000747f: 89 4d e0                    	movl	%ecx, -32(%rbp)
100007482: 48 63 d1                    	movslq	%ecx, %rdx
100007485: 48 83 3c d0 00              	cmpq	$0, (%rax,%rdx,8)
10000748a: 0f 84 1d 00 00 00           	je	29 <_ft_dstrdup+0x8d>
100007490: 48 8b 45 f0                 	movq	-16(%rbp), %rax
100007494: 48 63 4d e0                 	movslq	-32(%rbp), %rcx
100007498: 48 8b 04 c8                 	movq	(%rax,%rcx,8), %rax
10000749c: 48 8b 4d e8                 	movq	-24(%rbp), %rcx
1000074a0: 48 63 55 e0                 	movslq	-32(%rbp), %rdx
1000074a4: 48 89 04 d1                 	movq	%rax, (%rcx,%rdx,8)
1000074a8: e9 c8 ff ff ff              	jmp	-56 <_ft_dstrdup+0x55>
1000074ad: 48 8b 45 e8                 	movq	-24(%rbp), %rax
1000074b1: 48 63 4d e0                 	movslq	-32(%rbp), %rcx
1000074b5: 48 c7 04 c8 00 00 00 00     	movq	$0, (%rax,%rcx,8)
1000074bd: 48 8b 45 e8                 	movq	-24(%rbp), %rax
1000074c1: 48 89 45 f8                 	movq	%rax, -8(%rbp)
1000074c5: 48 8b 45 f8                 	movq	-8(%rbp), %rax
1000074c9: 48 83 c4 20                 	addq	$32, %rsp
1000074cd: 5d                          	popq	%rbp
1000074ce: c3                          	retq
1000074cf: 90                          	nop

00000001000074d0 _env_str:
1000074d0: 55                          	pushq	%rbp
1000074d1: 48 89 e5                    	movq	%rsp, %rbp
1000074d4: 48 83 ec 20                 	subq	$32, %rsp
1000074d8: 48 89 7d f8                 	movq	%rdi, -8(%rbp)
1000074dc: 66 c7 45 ee 00 00           	movw	$0, -18(%rbp)
1000074e2: 48 8b 45 f8                 	movq	-8(%rbp), %rax
1000074e6: 0f bf 48 08                 	movswl	8(%rax), %ecx
1000074ea: 48 63 c1                    	movslq	%ecx, %rax
1000074ed: 48 c1 e0 03                 	shlq	$3, %rax
1000074f1: 48 05 01 00 00 00           	addq	$1, %rax
1000074f7: 48 89 c7                    	movq	%rax, %rdi
1000074fa: e8 35 80 00 00              	callq	32821 <dyld_stub_binder+0x10000f534>
1000074ff: 48 89 45 f0                 	movq	%rax, -16(%rbp)
100007503: 48 8b 45 f8                 	movq	-8(%rbp), %rax
100007507: 48 83 38 00                 	cmpq	$0, (%rax)
10000750b: 0f 84 41 00 00 00           	je	65 <_env_str+0x82>
100007511: 48 8b 45 f8                 	movq	-8(%rbp), %rax
100007515: 48 8b 00                    	movq	(%rax), %rax
100007518: 48 8b 38                    	movq	(%rax), %rdi
10000751b: e8 20 76 00 00              	callq	30240 <_ft_strdup>
100007520: 48 8b 4d f0                 	movq	-16(%rbp), %rcx
100007524: 66 8b 55 ee                 	movw	-18(%rbp), %dx
100007528: 66 89 d6                    	movw	%dx, %si
10000752b: 66 83 c6 01                 	addw	$1, %si
10000752f: 66 89 75 ee                 	movw	%si, -18(%rbp)
100007533: 48 0f bf fa                 	movswq	%dx, %rdi
100007537: 48 89 04 f9                 	movq	%rax, (%rcx,%rdi,8)
10000753b: 48 8b 45 f8                 	movq	-8(%rbp), %rax
10000753f: 48 8b 00                    	movq	(%rax), %rax
100007542: 48 8b 40 08                 	movq	8(%rax), %rax
100007546: 48 8b 4d f8                 	movq	-8(%rbp), %rcx
10000754a: 48 89 01                    	movq	%rax, (%rcx)
10000754d: e9 b1 ff ff ff              	jmp	-79 <_env_str+0x33>
100007552: 48 8b 45 f0                 	movq	-16(%rbp), %rax
100007556: 48 0f bf 4d ee              	movswq	-18(%rbp), %rcx
10000755b: 48 c7 04 c8 00 00 00 00     	movq	$0, (%rax,%rcx,8)
100007563: 48 8b 45 f0                 	movq	-16(%rbp), %rax
100007567: 48 83 c4 20                 	addq	$32, %rsp
10000756b: 5d                          	popq	%rbp
10000756c: c3                          	retq
10000756d: 0f 1f 00                    	nopl	(%rax)

0000000100007570 _free_env:
100007570: 55                          	pushq	%rbp
100007571: 48 89 e5                    	movq	%rsp, %rbp
100007574: 48 83 ec 10                 	subq	$16, %rsp
100007578: 48 89 7d f8                 	movq	%rdi, -8(%rbp)
10000757c: c7 45 f4 00 00 00 00        	movl	$0, -12(%rbp)
100007583: 31 c0                       	xorl	%eax, %eax
100007585: 48 83 7d f8 00              	cmpq	$0, -8(%rbp)
10000758a: 88 45 f3                    	movb	%al, -13(%rbp)
10000758d: 0f 84 13 00 00 00           	je	19 <_free_env+0x36>
100007593: 48 8b 45 f8                 	movq	-8(%rbp), %rax
100007597: 48 63 4d f4                 	movslq	-12(%rbp), %rcx
10000759b: 48 83 3c c8 00              	cmpq	$0, (%rax,%rcx,8)
1000075a0: 0f 95 c2                    	setne	%dl
1000075a3: 88 55 f3                    	movb	%dl, -13(%rbp)
1000075a6: 8a 45 f3                    	movb	-13(%rbp), %al
1000075a9: a8 01                       	testb	$1, %al
1000075ab: 0f 85 05 00 00 00           	jne	5 <_free_env+0x46>
1000075b1: e9 20 00 00 00              	jmp	32 <_free_env+0x66>
1000075b6: 48 8b 45 f8                 	movq	-8(%rbp), %rax
1000075ba: 8b 4d f4                    	movl	-12(%rbp), %ecx
1000075bd: 89 ca                       	movl	%ecx, %edx
1000075bf: 83 c2 01                    	addl	$1, %edx
1000075c2: 89 55 f4                    	movl	%edx, -12(%rbp)
1000075c5: 48 63 f1                    	movslq	%ecx, %rsi
1000075c8: 48 8b 3c f0                 	movq	(%rax,%rsi,8), %rdi
1000075cc: e8 4b 7f 00 00              	callq	32587 <dyld_stub_binder+0x10000f51c>
1000075d1: e9 ad ff ff ff              	jmp	-83 <_free_env+0x13>
1000075d6: 48 8b 45 f8                 	movq	-8(%rbp), %rax
1000075da: 48 89 c7                    	movq	%rax, %rdi
1000075dd: e8 3a 7f 00 00              	callq	32570 <dyld_stub_binder+0x10000f51c>
1000075e2: 48 83 c4 10                 	addq	$16, %rsp
1000075e6: 5d                          	popq	%rbp
1000075e7: c3                          	retq
1000075e8: 0f 1f 84 00 00 00 00 00     	nopl	(%rax,%rax)

00000001000075f0 _set__get_option_variables:
1000075f0: 55                          	pushq	%rbp
1000075f1: 48 89 e5                    	movq	%rsp, %rbp
1000075f4: 48 83 ec 20                 	subq	$32, %rsp
1000075f8: 48 89 7d f0                 	movq	%rdi, -16(%rbp)
1000075fc: 89 75 ec                    	movl	%esi, -20(%rbp)
1000075ff: 83 7d ec 00                 	cmpl	$0, -20(%rbp)
100007603: 0f 85 4a 00 00 00           	jne	74 <_set__get_option_variables+0x63>
100007609: 48 8b 45 f0                 	movq	-16(%rbp), %rax
10000760d: 48 89 05 f4 ca 00 00        	movq	%rax, 51956(%rip)
100007614: 48 8b 05 ed ca 00 00        	movq	51949(%rip), %rax
10000761b: 48 8b 35 de ca 00 00        	movq	51934(%rip), %rsi
100007622: 48 89 c7                    	movq	%rax, %rdi
100007625: e8 16 01 00 00              	callq	278 <_set_path>
10000762a: 48 89 05 cf ca 00 00        	movq	%rax, 51919(%rip)
100007631: 48 8b 05 d0 ca 00 00        	movq	51920(%rip), %rax
100007638: 48 8b 35 d1 ca 00 00        	movq	51921(%rip), %rsi
10000763f: 48 89 c7                    	movq	%rax, %rdi
100007642: e8 39 02 00 00              	callq	569 <_set_homedir>
100007647: 48 89 05 c2 ca 00 00        	movq	%rax, 51906(%rip)
10000764e: e9 d9 00 00 00              	jmp	217 <_set__get_option_variables+0x13c>
100007653: 83 7d ec 02                 	cmpl	$2, -20(%rbp)
100007657: 0f 85 18 00 00 00           	jne	24 <_set__get_option_variables+0x85>
10000765d: 48 8b 3d b4 ca 00 00        	movq	51892(%rip), %rdi
100007664: e8 97 fb ff ff              	callq	-1129 <_set_pwd>
100007669: 48 89 05 a8 ca 00 00        	movq	%rax, 51880(%rip)
100007670: e9 b2 00 00 00              	jmp	178 <_set__get_option_variables+0x137>
100007675: 83 7d ec 05                 	cmpl	$5, -20(%rbp)
100007679: 0f 85 10 00 00 00           	jne	16 <_set__get_option_variables+0x9f>
10000767f: 48 8b 05 7a ca 00 00        	movq	51834(%rip), %rax
100007686: 48 89 45 f8                 	movq	%rax, -8(%rbp)
10000768a: e9 a5 00 00 00              	jmp	165 <_set__get_option_variables+0x144>
10000768f: 83 7d ec 03                 	cmpl	$3, -20(%rbp)
100007693: 0f 85 10 00 00 00           	jne	16 <_set__get_option_variables+0xb9>
100007699: 48 8b 05 68 ca 00 00        	movq	51816(%rip), %rax
1000076a0: 48 89 45 f8                 	movq	%rax, -8(%rbp)
1000076a4: e9 8b 00 00 00              	jmp	139 <_set__get_option_variables+0x144>
1000076a9: 83 7d ec 09                 	cmpl	$9, -20(%rbp)
1000076ad: 0f 85 10 00 00 00           	jne	16 <_set__get_option_variables+0xd3>
1000076b3: 48 8b 05 56 ca 00 00        	movq	51798(%rip), %rax
1000076ba: 48 89 45 f8                 	movq	%rax, -8(%rbp)
1000076be: e9 71 00 00 00              	jmp	113 <_set__get_option_variables+0x144>
1000076c3: 83 7d ec 11                 	cmpl	$17, -20(%rbp)
1000076c7: 0f 85 10 00 00 00           	jne	16 <_set__get_option_variables+0xed>
1000076cd: 48 8b 05 44 ca 00 00        	movq	51780(%rip), %rax
1000076d4: 48 89 45 f8                 	movq	%rax, -8(%rbp)
1000076d8: e9 57 00 00 00              	jmp	87 <_set__get_option_variables+0x144>
1000076dd: 81 7d ec ff 00 00 00        	cmpl	$255, -20(%rbp)
1000076e4: 0f 85 24 00 00 00           	jne	36 <_set__get_option_variables+0x11e>
1000076ea: 48 8b 05 17 ca 00 00        	movq	51735(%rip), %rax
1000076f1: 48 89 c7                    	movq	%rax, %rdi
1000076f4: 48 8d 35 05 ca 00 00        	leaq	51717(%rip), %rsi
1000076fb: 48 8d 15 0e ca 00 00        	leaq	51726(%rip), %rdx
100007702: 48 8d 0d 0f ca 00 00        	leaq	51727(%rip), %rcx
100007709: e8 32 fc ff ff              	callq	-974 <_unset>
10000770e: e9 00 00 00 00              	jmp	0 <_set__get_option_variables+0x123>
100007713: e9 00 00 00 00              	jmp	0 <_set__get_option_variables+0x128>
100007718: e9 00 00 00 00              	jmp	0 <_set__get_option_variables+0x12d>
10000771d: e9 00 00 00 00              	jmp	0 <_set__get_option_variables+0x132>
100007722: e9 00 00 00 00              	jmp	0 <_set__get_option_variables+0x137>
100007727: e9 00 00 00 00              	jmp	0 <_set__get_option_variables+0x13c>
10000772c: 48 c7 45 f8 00 00 00 00     	movq	$0, -8(%rbp)
100007734: 48 8b 45 f8                 	movq	-8(%rbp), %rax
100007738: 48 83 c4 20                 	addq	$32, %rsp
10000773c: 5d                          	popq	%rbp
10000773d: c3                          	retq
10000773e: 66 90                       	nop

0000000100007740 _set_path:
100007740: 55                          	pushq	%rbp
100007741: 48 89 e5                    	movq	%rsp, %rbp
100007744: 48 83 ec 50                 	subq	$80, %rsp
100007748: 48 89 7d f8                 	movq	%rdi, -8(%rbp)
10000774c: 48 89 75 f0                 	movq	%rsi, -16(%rbp)
100007750: c7 45 d4 00 00 00 00        	movl	$0, -44(%rbp)
100007757: 48 c7 45 e8 00 00 00 00     	movq	$0, -24(%rbp)
10000775f: 48 8b 45 f8                 	movq	-8(%rbp), %rax
100007763: 48 8b 00                    	movq	(%rax), %rax
100007766: 48 89 45 e0                 	movq	%rax, -32(%rbp)
10000776a: 48 83 7d e0 00              	cmpq	$0, -32(%rbp)
10000776f: 0f 84 97 00 00 00           	je	151 <_set_path+0xcc>
100007775: 48 8b 45 e0                 	movq	-32(%rbp), %rax
100007779: 48 8b 38                    	movq	(%rax), %rdi
10000777c: 48 8d 05 02 83 00 00        	leaq	33538(%rip), %rax
100007783: 48 89 7d c8                 	movq	%rdi, -56(%rbp)
100007787: 48 89 c7                    	movq	%rax, %rdi
10000778a: e8 51 74 00 00              	callq	29777 <_ft_strlen>
10000778f: 48 8b 7d c8                 	movq	-56(%rbp), %rdi
100007793: 48 8d 35 eb 82 00 00        	leaq	33515(%rip), %rsi
10000779a: 48 89 c2                    	movq	%rax, %rdx
10000779d: e8 9e 74 00 00              	callq	29854 <_ft_strncmp>
1000077a2: 83 f8 00                    	cmpl	$0, %eax
1000077a5: 0f 85 50 00 00 00           	jne	80 <_set_path+0xbb>
1000077ab: 48 8b 45 e0                 	movq	-32(%rbp), %rax
1000077af: 48 8b 38                    	movq	(%rax), %rdi
1000077b2: 48 8b 45 e0                 	movq	-32(%rbp), %rax
1000077b6: 48 8b 00                    	movq	(%rax), %rax
1000077b9: 48 05 05 00 00 00           	addq	$5, %rax
1000077bf: 48 89 7d c0                 	movq	%rdi, -64(%rbp)
1000077c3: 48 89 c7                    	movq	%rax, %rdi
1000077c6: e8 15 74 00 00              	callq	29717 <_ft_strlen>
1000077cb: 48 8b 7d c0                 	movq	-64(%rbp), %rdi
1000077cf: be 05 00 00 00              	movl	$5, %esi
1000077d4: 48 89 c2                    	movq	%rax, %rdx
1000077d7: e8 34 75 00 00              	callq	30004 <_ft_substr>
1000077dc: 48 89 45 d8                 	movq	%rax, -40(%rbp)
1000077e0: 48 8b 7d d8                 	movq	-40(%rbp), %rdi
1000077e4: be 3a 00 00 00              	movl	$58, %esi
1000077e9: e8 d2 77 00 00              	callq	30674 <_ft_split>
1000077ee: 48 89 45 e8                 	movq	%rax, -24(%rbp)
1000077f2: 48 8b 7d d8                 	movq	-40(%rbp), %rdi
1000077f6: e8 21 7d 00 00              	callq	32033 <dyld_stub_binder+0x10000f51c>
1000077fb: 48 8b 45 e0                 	movq	-32(%rbp), %rax
1000077ff: 48 8b 40 08                 	movq	8(%rax), %rax
100007803: 48 89 45 e0                 	movq	%rax, -32(%rbp)
100007807: e9 5e ff ff ff              	jmp	-162 <_set_path+0x2a>
10000780c: e9 00 00 00 00              	jmp	0 <_set_path+0xd1>
100007811: 31 c0                       	xorl	%eax, %eax
100007813: 48 83 7d f0 00              	cmpq	$0, -16(%rbp)
100007818: 88 45 bf                    	movb	%al, -65(%rbp)
10000781b: 0f 84 13 00 00 00           	je	19 <_set_path+0xf4>
100007821: 48 8b 45 f0                 	movq	-16(%rbp), %rax
100007825: 48 63 4d d4                 	movslq	-44(%rbp), %rcx
100007829: 48 83 3c c8 00              	cmpq	$0, (%rax,%rcx,8)
10000782e: 0f 95 c2                    	setne	%dl
100007831: 88 55 bf                    	movb	%dl, -65(%rbp)
100007834: 8a 45 bf                    	movb	-65(%rbp), %al
100007837: a8 01                       	testb	$1, %al
100007839: 0f 85 05 00 00 00           	jne	5 <_set_path+0x104>
10000783f: e9 20 00 00 00              	jmp	32 <_set_path+0x124>
100007844: 48 8b 45 f0                 	movq	-16(%rbp), %rax
100007848: 8b 4d d4                    	movl	-44(%rbp), %ecx
10000784b: 89 ca                       	movl	%ecx, %edx
10000784d: 83 c2 01                    	addl	$1, %edx
100007850: 89 55 d4                    	movl	%edx, -44(%rbp)
100007853: 48 63 f1                    	movslq	%ecx, %rsi
100007856: 48 8b 3c f0                 	movq	(%rax,%rsi,8), %rdi
10000785a: e8 bd 7c 00 00              	callq	31933 <dyld_stub_binder+0x10000f51c>
10000785f: e9 ad ff ff ff              	jmp	-83 <_set_path+0xd1>
100007864: 48 8b 45 f0                 	movq	-16(%rbp), %rax
100007868: 48 89 c7                    	movq	%rax, %rdi
10000786b: e8 ac 7c 00 00              	callq	31916 <dyld_stub_binder+0x10000f51c>
100007870: 48 8b 45 e8                 	movq	-24(%rbp), %rax
100007874: 48 83 c4 50                 	addq	$80, %rsp
100007878: 5d                          	popq	%rbp
100007879: c3                          	retq
10000787a: 66 0f 1f 44 00 00           	nopw	(%rax,%rax)

0000000100007880 _set_homedir:
100007880: 55                          	pushq	%rbp
100007881: 48 89 e5                    	movq	%rsp, %rbp
100007884: 48 83 ec 30                 	subq	$48, %rsp
100007888: 48 89 7d f8                 	movq	%rdi, -8(%rbp)
10000788c: 48 89 75 f0                 	movq	%rsi, -16(%rbp)
100007890: c7 45 d8 00 00 00 00        	movl	$0, -40(%rbp)
100007897: c7 45 dc 00 00 00 00        	movl	$0, -36(%rbp)
10000789e: 48 c7 45 e0 00 00 00 00     	movq	$0, -32(%rbp)
1000078a6: 48 8b 45 f8                 	movq	-8(%rbp), %rax
1000078aa: 48 8b 00                    	movq	(%rax), %rax
1000078ad: 48 89 45 e8                 	movq	%rax, -24(%rbp)
1000078b1: 48 83 7d e8 00              	cmpq	$0, -24(%rbp)
1000078b6: 0f 84 57 00 00 00           	je	87 <_set_homedir+0x93>
1000078bc: 48 8b 45 e8                 	movq	-24(%rbp), %rax
1000078c0: 48 8b 38                    	movq	(%rax), %rdi
1000078c3: 48 8d 05 3b 7f 00 00        	leaq	32571(%rip), %rax
1000078ca: 48 89 7d d0                 	movq	%rdi, -48(%rbp)
1000078ce: 48 89 c7                    	movq	%rax, %rdi
1000078d1: e8 0a 73 00 00              	callq	29450 <_ft_strlen>
1000078d6: 48 8b 7d d0                 	movq	-48(%rbp), %rdi
1000078da: 48 8d 35 24 7f 00 00        	leaq	32548(%rip), %rsi
1000078e1: 48 89 c2                    	movq	%rax, %rdx
1000078e4: e8 57 73 00 00              	callq	29527 <_ft_strncmp>
1000078e9: 83 f8 00                    	cmpl	$0, %eax
1000078ec: 0f 85 10 00 00 00           	jne	16 <_set_homedir+0x82>
1000078f2: 48 8b 45 e8                 	movq	-24(%rbp), %rax
1000078f6: 48 8b 00                    	movq	(%rax), %rax
1000078f9: 48 89 45 e0                 	movq	%rax, -32(%rbp)
1000078fd: e9 11 00 00 00              	jmp	17 <_set_homedir+0x93>
100007902: 48 8b 45 e8                 	movq	-24(%rbp), %rax
100007906: 48 8b 40 08                 	movq	8(%rax), %rax
10000790a: 48 89 45 e8                 	movq	%rax, -24(%rbp)
10000790e: e9 9e ff ff ff              	jmp	-98 <_set_homedir+0x31>
100007913: 48 83 7d e0 00              	cmpq	$0, -32(%rbp)
100007918: 0f 84 5e 00 00 00           	je	94 <_set_homedir+0xfc>
10000791e: e9 00 00 00 00              	jmp	0 <_set_homedir+0xa3>
100007923: 48 8b 45 e8                 	movq	-24(%rbp), %rax
100007927: 48 8b 00                    	movq	(%rax), %rax
10000792a: 48 63 4d d8                 	movslq	-40(%rbp), %rcx
10000792e: 48 01 c8                    	addq	%rcx, %rax
100007931: 48 89 c7                    	movq	%rax, %rdi
100007934: 48 8d 35 50 81 00 00        	leaq	33104(%rip), %rsi
10000793b: ba 01 00 00 00              	movl	$1, %edx
100007940: e8 fb 72 00 00              	callq	29435 <_ft_strncmp>
100007945: 83 f8 00                    	cmpl	$0, %eax
100007948: 0f 84 0e 00 00 00           	je	14 <_set_homedir+0xdc>
10000794e: 8b 45 d8                    	movl	-40(%rbp), %eax
100007951: 83 c0 01                    	addl	$1, %eax
100007954: 89 45 d8                    	movl	%eax, -40(%rbp)
100007957: e9 c7 ff ff ff              	jmp	-57 <_set_homedir+0xa3>
10000795c: 48 8b 45 e8                 	movq	-24(%rbp), %rax
100007960: 48 8b 00                    	movq	(%rax), %rax
100007963: 48 63 4d d8                 	movslq	-40(%rbp), %rcx
100007967: 48 01 c8                    	addq	%rcx, %rax
10000796a: 48 05 01 00 00 00           	addq	$1, %rax
100007970: 48 89 c7                    	movq	%rax, %rdi
100007973: e8 c8 71 00 00              	callq	29128 <_ft_strdup>
100007978: 48 89 45 e0                 	movq	%rax, -32(%rbp)
10000797c: 48 8b 7d f0                 	movq	-16(%rbp), %rdi
100007980: e8 97 7b 00 00              	callq	31639 <dyld_stub_binder+0x10000f51c>
100007985: 48 8b 45 e0                 	movq	-32(%rbp), %rax
100007989: 48 83 c4 30                 	addq	$48, %rsp
10000798d: 5d                          	popq	%rbp
10000798e: c3                          	retq
10000798f: 90                          	nop

0000000100007990 _get_prompt_line:
100007990: 55                          	pushq	%rbp
100007991: 48 89 e5                    	movq	%rsp, %rbp
100007994: 48 83 ec 20                 	subq	$32, %rsp
100007998: 31 c0                       	xorl	%eax, %eax
10000799a: 89 c7                       	movl	%eax, %edi
10000799c: 48 c7 45 f8 00 00 00 00     	movq	$0, -8(%rbp)
1000079a4: be 02 00 00 00              	movl	$2, %esi
1000079a9: e8 42 fc ff ff              	callq	-958 <_set__get_option_variables>
1000079ae: 31 c9                       	xorl	%ecx, %ecx
1000079b0: 89 cf                       	movl	%ecx, %edi
1000079b2: be 11 00 00 00              	movl	$17, %esi
1000079b7: 48 89 45 f0                 	movq	%rax, -16(%rbp)
1000079bb: e8 30 fc ff ff              	callq	-976 <_set__get_option_variables>
1000079c0: 48 89 45 f8                 	movq	%rax, -8(%rbp)
1000079c4: 48 83 7d f8 00              	cmpq	$0, -8(%rbp)
1000079c9: 0f 84 50 00 00 00           	je	80 <_get_prompt_line+0x8f>
1000079cf: 48 8d 3d f6 7f 00 00        	leaq	32758(%rip), %rdi
1000079d6: e8 65 71 00 00              	callq	29029 <_ft_strdup>
1000079db: 48 8b 7d f8                 	movq	-8(%rbp), %rdi
1000079df: 48 89 45 e8                 	movq	%rax, -24(%rbp)
1000079e3: e8 58 71 00 00              	callq	29016 <_ft_strdup>
1000079e8: 48 8b 7d e8                 	movq	-24(%rbp), %rdi
1000079ec: 48 89 c6                    	movq	%rax, %rsi
1000079ef: e8 6c 14 00 00              	callq	5228 <_ft_strjoin_free>
1000079f4: 48 89 45 f8                 	movq	%rax, -8(%rbp)
1000079f8: 48 8b 7d f8                 	movq	-8(%rbp), %rdi
1000079fc: 48 8d 05 f6 7f 00 00        	leaq	32758(%rip), %rax
100007a03: 48 89 7d e0                 	movq	%rdi, -32(%rbp)
100007a07: 48 89 c7                    	movq	%rax, %rdi
100007a0a: e8 31 71 00 00              	callq	28977 <_ft_strdup>
100007a0f: 48 8b 7d e0                 	movq	-32(%rbp), %rdi
100007a13: 48 89 c6                    	movq	%rax, %rsi
100007a16: e8 45 14 00 00              	callq	5189 <_ft_strjoin_free>
100007a1b: 48 89 45 f8                 	movq	%rax, -8(%rbp)
100007a1f: 48 8b 45 f8                 	movq	-8(%rbp), %rax
100007a23: 48 83 c4 20                 	addq	$32, %rsp
100007a27: 5d                          	popq	%rbp
100007a28: c3                          	retq
100007a29: 90                          	nop
100007a2a: 90                          	nop
100007a2b: 90                          	nop
100007a2c: 90                          	nop
100007a2d: 90                          	nop
100007a2e: 90                          	nop
100007a2f: 90                          	nop

0000000100007a30 _replace_str:
100007a30: 55                          	pushq	%rbp
100007a31: 48 89 e5                    	movq	%rsp, %rbp
100007a34: 48 83 ec 30                 	subq	$48, %rsp
100007a38: 48 89 7d f8                 	movq	%rdi, -8(%rbp)
100007a3c: 48 89 75 f0                 	movq	%rsi, -16(%rbp)
100007a40: 48 8b 7d f8                 	movq	-8(%rbp), %rdi
100007a44: e8 97 71 00 00              	callq	29079 <_ft_strlen>
100007a49: 48 89 45 e0                 	movq	%rax, -32(%rbp)
100007a4d: 48 8b 7d f0                 	movq	-16(%rbp), %rdi
100007a51: e8 8a 71 00 00              	callq	29066 <_ft_strlen>
100007a56: 48 89 45 d8                 	movq	%rax, -40(%rbp)
100007a5a: 48 8b 7d f0                 	movq	-16(%rbp), %rdi
100007a5e: 48 8b 45 e0                 	movq	-32(%rbp), %rax
100007a62: 48 05 01 00 00 00           	addq	$1, %rax
100007a68: 48 8b 4d d8                 	movq	-40(%rbp), %rcx
100007a6c: 48 2b 4d e0                 	subq	-32(%rbp), %rcx
100007a70: 89 c6                       	movl	%eax, %esi
100007a72: 48 89 ca                    	movq	%rcx, %rdx
100007a75: e8 96 72 00 00              	callq	29334 <_ft_substr>
100007a7a: 48 89 45 e8                 	movq	%rax, -24(%rbp)
100007a7e: 48 8b 45 e8                 	movq	-24(%rbp), %rax
100007a82: 48 83 c4 30                 	addq	$48, %rsp
100007a86: 5d                          	popq	%rbp
100007a87: c3                          	retq
100007a88: 0f 1f 84 00 00 00 00 00     	nopl	(%rax,%rax)

0000000100007a90 _replace:
100007a90: 55                          	pushq	%rbp
100007a91: 48 89 e5                    	movq	%rsp, %rbp
100007a94: 48 83 ec 50                 	subq	$80, %rsp
100007a98: 31 c0                       	xorl	%eax, %eax
100007a9a: 89 c1                       	movl	%eax, %ecx
100007a9c: 48 89 7d f8                 	movq	%rdi, -8(%rbp)
100007aa0: 48 89 75 f0                 	movq	%rsi, -16(%rbp)
100007aa4: c7 45 ec 01 00 00 00        	movl	$1, -20(%rbp)
100007aab: 48 89 cf                    	movq	%rcx, %rdi
100007aae: be 03 00 00 00              	movl	$3, %esi
100007ab3: e8 38 fb ff ff              	callq	-1224 <_set__get_option_variables>
100007ab8: 48 89 45 e0                 	movq	%rax, -32(%rbp)
100007abc: 48 8b 45 f0                 	movq	-16(%rbp), %rax
100007ac0: 48 63 4d ec                 	movslq	-20(%rbp), %rcx
100007ac4: 0f be 14 08                 	movsbl	(%rax,%rcx), %edx
100007ac8: 83 fa 22                    	cmpl	$34, %edx
100007acb: 0f 84 0e 00 00 00           	je	14 <_replace+0x4f>
100007ad1: 8b 45 ec                    	movl	-20(%rbp), %eax
100007ad4: 83 c0 01                    	addl	$1, %eax
100007ad7: 89 45 ec                    	movl	%eax, -20(%rbp)
100007ada: e9 dd ff ff ff              	jmp	-35 <_replace+0x2c>
100007adf: 48 8b 7d f0                 	movq	-16(%rbp), %rdi
100007ae3: 8b 45 ec                    	movl	-20(%rbp), %eax
100007ae6: 83 e8 01                    	subl	$1, %eax
100007ae9: 48 63 d0                    	movslq	%eax, %rdx
100007aec: be 01 00 00 00              	movl	$1, %esi
100007af1: e8 1a 72 00 00              	callq	29210 <_ft_substr>
100007af6: 48 89 45 d8                 	movq	%rax, -40(%rbp)
100007afa: 48 8b 45 e0                 	movq	-32(%rbp), %rax
100007afe: 48 8b 00                    	movq	(%rax), %rax
100007b01: 48 89 45 d0                 	movq	%rax, -48(%rbp)
100007b05: 48 83 7d d0 00              	cmpq	$0, -48(%rbp)
100007b0a: 0f 84 b1 00 00 00           	je	177 <_replace+0x131>
100007b10: 48 8b 7d d8                 	movq	-40(%rbp), %rdi
100007b14: 48 8b 45 d0                 	movq	-48(%rbp), %rax
100007b18: 48 8b 30                    	movq	(%rax), %rsi
100007b1b: 48 8b 45 d8                 	movq	-40(%rbp), %rax
100007b1f: 48 89 7d c8                 	movq	%rdi, -56(%rbp)
100007b23: 48 89 c7                    	movq	%rax, %rdi
100007b26: 48 89 75 c0                 	movq	%rsi, -64(%rbp)
100007b2a: e8 b1 70 00 00              	callq	28849 <_ft_strlen>
100007b2f: 48 8b 7d c8                 	movq	-56(%rbp), %rdi
100007b33: 48 8b 75 c0                 	movq	-64(%rbp), %rsi
100007b37: 48 89 c2                    	movq	%rax, %rdx
100007b3a: e8 01 71 00 00              	callq	28929 <_ft_strncmp>
100007b3f: 83 f8 00                    	cmpl	$0, %eax
100007b42: 0f 85 68 00 00 00           	jne	104 <_replace+0x120>
100007b48: 48 8b 45 d0                 	movq	-48(%rbp), %rax
100007b4c: 48 8b 00                    	movq	(%rax), %rax
100007b4f: 48 8b 7d d8                 	movq	-40(%rbp), %rdi
100007b53: 48 89 45 b8                 	movq	%rax, -72(%rbp)
100007b57: e8 84 70 00 00              	callq	28804 <_ft_strlen>
100007b5c: 48 8b 4d b8                 	movq	-72(%rbp), %rcx
100007b60: 0f be 14 01                 	movsbl	(%rcx,%rax), %edx
100007b64: 83 fa 3d                    	cmpl	$61, %edx
100007b67: 0f 85 43 00 00 00           	jne	67 <_replace+0x120>
100007b6d: 48 8b 7d f8                 	movq	-8(%rbp), %rdi
100007b71: 48 8b 45 d8                 	movq	-40(%rbp), %rax
100007b75: 48 8b 4d d0                 	movq	-48(%rbp), %rcx
100007b79: 48 8b 31                    	movq	(%rcx), %rsi
100007b7c: 48 89 7d b0                 	movq	%rdi, -80(%rbp)
100007b80: 48 89 c7                    	movq	%rax, %rdi
100007b83: e8 a8 fe ff ff              	callq	-344 <_replace_str>
100007b88: 48 89 c7                    	movq	%rax, %rdi
100007b8b: e8 60 77 00 00              	callq	30560 <_ft_lstnew>
100007b90: 48 8b 7d b0                 	movq	-80(%rbp), %rdi
100007b94: 48 89 c6                    	movq	%rax, %rsi
100007b97: e8 f4 77 00 00              	callq	30708 <_ft_lstadd_back>
100007b9c: 48 8b 45 e0                 	movq	-32(%rbp), %rax
100007ba0: 0f bf 50 08                 	movswl	8(%rax), %edx
100007ba4: 83 c2 01                    	addl	$1, %edx
100007ba7: 66 89 50 08                 	movw	%dx, 8(%rax)
100007bab: e9 11 00 00 00              	jmp	17 <_replace+0x131>
100007bb0: 48 8b 45 d0                 	movq	-48(%rbp), %rax
100007bb4: 48 8b 40 08                 	movq	8(%rax), %rax
100007bb8: 48 89 45 d0                 	movq	%rax, -48(%rbp)
100007bbc: e9 44 ff ff ff              	jmp	-188 <_replace+0x75>
100007bc1: 48 8b 7d d8                 	movq	-40(%rbp), %rdi
100007bc5: e8 52 79 00 00              	callq	31058 <dyld_stub_binder+0x10000f51c>
100007bca: 8b 45 ec                    	movl	-20(%rbp), %eax
100007bcd: 48 83 c4 50                 	addq	$80, %rsp
100007bd1: 5d                          	popq	%rbp
100007bd2: c3                          	retq
100007bd3: 66 2e 0f 1f 84 00 00 00 00 00       	nopw	%cs:(%rax,%rax)
100007bdd: 0f 1f 00                    	nopl	(%rax)

0000000100007be0 _dolr_check:
100007be0: 55                          	pushq	%rbp
100007be1: 48 89 e5                    	movq	%rsp, %rbp
100007be4: 48 83 ec 30                 	subq	$48, %rsp
100007be8: 48 89 7d f8                 	movq	%rdi, -8(%rbp)
100007bec: 48 89 75 f0                 	movq	%rsi, -16(%rbp)
100007bf0: 89 55 ec                    	movl	%edx, -20(%rbp)
100007bf3: c7 45 e8 00 00 00 00        	movl	$0, -24(%rbp)
100007bfa: 31 c0                       	xorl	%eax, %eax
100007bfc: 48 8b 4d f0                 	movq	-16(%rbp), %rcx
100007c00: 8b 55 ec                    	movl	-20(%rbp), %edx
100007c03: 03 55 e8                    	addl	-24(%rbp), %edx
100007c06: 48 63 f2                    	movslq	%edx, %rsi
100007c09: 0f be 14 31                 	movsbl	(%rcx,%rsi), %edx
100007c0d: 83 fa 00                    	cmpl	$0, %edx
100007c10: 88 45 e7                    	movb	%al, -25(%rbp)
100007c13: 0f 84 1c 00 00 00           	je	28 <_dolr_check+0x55>
100007c19: 48 8b 45 f0                 	movq	-16(%rbp), %rax
100007c1d: 8b 4d ec                    	movl	-20(%rbp), %ecx
100007c20: 03 4d e8                    	addl	-24(%rbp), %ecx
100007c23: 48 63 d1                    	movslq	%ecx, %rdx
100007c26: 0f be 0c 10                 	movsbl	(%rax,%rdx), %ecx
100007c2a: 83 f9 24                    	cmpl	$36, %ecx
100007c2d: 40 0f 94 c6                 	sete	%sil
100007c31: 40 88 75 e7                 	movb	%sil, -25(%rbp)
100007c35: 8a 45 e7                    	movb	-25(%rbp), %al
100007c38: a8 01                       	testb	$1, %al
100007c3a: 0f 85 05 00 00 00           	jne	5 <_dolr_check+0x65>
100007c40: e9 39 00 00 00              	jmp	57 <_dolr_check+0x9e>
100007c45: 48 8b 7d f8                 	movq	-8(%rbp), %rdi
100007c49: 48 8d 05 3d 7e 00 00        	leaq	32317(%rip), %rax
100007c50: 48 89 7d d8                 	movq	%rdi, -40(%rbp)
100007c54: 48 89 c7                    	movq	%rax, %rdi
100007c57: e8 e4 6e 00 00              	callq	28388 <_ft_strdup>
100007c5c: 48 89 c7                    	movq	%rax, %rdi
100007c5f: e8 8c 76 00 00              	callq	30348 <_ft_lstnew>
100007c64: 48 8b 7d d8                 	movq	-40(%rbp), %rdi
100007c68: 48 89 c6                    	movq	%rax, %rsi
100007c6b: e8 20 77 00 00              	callq	30496 <_ft_lstadd_back>
100007c70: 8b 4d e8                    	movl	-24(%rbp), %ecx
100007c73: 83 c1 01                    	addl	$1, %ecx
100007c76: 89 4d e8                    	movl	%ecx, -24(%rbp)
100007c79: e9 7c ff ff ff              	jmp	-132 <_dolr_check+0x1a>
100007c7e: 8b 45 e8                    	movl	-24(%rbp), %eax
100007c81: 83 e8 01                    	subl	$1, %eax
100007c84: 48 83 c4 30                 	addq	$48, %rsp
100007c88: 5d                          	popq	%rbp
100007c89: c3                          	retq
100007c8a: 66 0f 1f 44 00 00           	nopw	(%rax,%rax)

0000000100007c90 _expander:
100007c90: 55                          	pushq	%rbp
100007c91: 48 89 e5                    	movq	%rsp, %rbp
100007c94: 48 83 ec 30                 	subq	$48, %rsp
100007c98: 48 89 7d f8                 	movq	%rdi, -8(%rbp)
100007c9c: c7 45 ec ff ff ff ff        	movl	$4294967295, -20(%rbp)
100007ca3: 48 c7 45 f0 00 00 00 00     	movq	$0, -16(%rbp)
100007cab: 48 8b 45 f8                 	movq	-8(%rbp), %rax
100007caf: 8b 4d ec                    	movl	-20(%rbp), %ecx
100007cb2: 83 c1 01                    	addl	$1, %ecx
100007cb5: 89 4d ec                    	movl	%ecx, -20(%rbp)
100007cb8: 48 63 d1                    	movslq	%ecx, %rdx
100007cbb: 80 3c 10 00                 	cmpb	$0, (%rax,%rdx)
100007cbf: 0f 84 55 01 00 00           	je	341 <_expander+0x18a>
100007cc5: 8b 45 ec                    	movl	-20(%rbp), %eax
100007cc8: 89 45 e8                    	movl	%eax, -24(%rbp)
100007ccb: 31 c0                       	xorl	%eax, %eax
100007ccd: 48 8b 4d f8                 	movq	-8(%rbp), %rcx
100007cd1: 48 63 55 e8                 	movslq	-24(%rbp), %rdx
100007cd5: 0f be 34 11                 	movsbl	(%rcx,%rdx), %esi
100007cd9: 83 fe 00                    	cmpl	$0, %esi
100007cdc: 88 45 e7                    	movb	%al, -25(%rbp)
100007cdf: 0f 84 31 00 00 00           	je	49 <_expander+0x86>
100007ce5: 31 c0                       	xorl	%eax, %eax
100007ce7: 48 8b 4d f8                 	movq	-8(%rbp), %rcx
100007ceb: 48 63 55 e8                 	movslq	-24(%rbp), %rdx
100007cef: 0f be 34 11                 	movsbl	(%rcx,%rdx), %esi
100007cf3: 83 fe 24                    	cmpl	$36, %esi
100007cf6: 88 45 e7                    	movb	%al, -25(%rbp)
100007cf9: 0f 84 17 00 00 00           	je	23 <_expander+0x86>
100007cff: 48 8b 45 f8                 	movq	-8(%rbp), %rax
100007d03: 48 63 4d e8                 	movslq	-24(%rbp), %rcx
100007d07: 0f be 14 08                 	movsbl	(%rax,%rcx), %edx
100007d0b: 83 fa 22                    	cmpl	$34, %edx
100007d0e: 40 0f 95 c6                 	setne	%sil
100007d12: 40 88 75 e7                 	movb	%sil, -25(%rbp)
100007d16: 8a 45 e7                    	movb	-25(%rbp), %al
100007d19: a8 01                       	testb	$1, %al
100007d1b: 0f 85 05 00 00 00           	jne	5 <_expander+0x96>
100007d21: e9 0e 00 00 00              	jmp	14 <_expander+0xa4>
100007d26: 8b 45 e8                    	movl	-24(%rbp), %eax
100007d29: 83 c0 01                    	addl	$1, %eax
100007d2c: 89 45 e8                    	movl	%eax, -24(%rbp)
100007d2f: e9 97 ff ff ff              	jmp	-105 <_expander+0x3b>
100007d34: 8b 45 ec                    	movl	-20(%rbp), %eax
100007d37: 3b 45 e8                    	cmpl	-24(%rbp), %eax
100007d3a: 0f 84 3a 00 00 00           	je	58 <_expander+0xea>
100007d40: 31 f6                       	xorl	%esi, %esi
100007d42: 48 8b 45 f8                 	movq	-8(%rbp), %rax
100007d46: 48 63 4d ec                 	movslq	-20(%rbp), %rcx
100007d4a: 48 01 c8                    	addq	%rcx, %rax
100007d4d: 8b 55 e8                    	movl	-24(%rbp), %edx
100007d50: 2b 55 ec                    	subl	-20(%rbp), %edx
100007d53: 48 63 d2                    	movslq	%edx, %rdx
100007d56: 48 89 c7                    	movq	%rax, %rdi
100007d59: e8 b2 6f 00 00              	callq	28594 <_ft_substr>
100007d5e: 48 89 c7                    	movq	%rax, %rdi
100007d61: e8 8a 75 00 00              	callq	30090 <_ft_lstnew>
100007d66: 48 8d 7d f0                 	leaq	-16(%rbp), %rdi
100007d6a: 48 89 c6                    	movq	%rax, %rsi
100007d6d: e8 1e 76 00 00              	callq	30238 <_ft_lstadd_back>
100007d72: 44 8b 45 e8                 	movl	-24(%rbp), %r8d
100007d76: 44 89 45 ec                 	movl	%r8d, -20(%rbp)
100007d7a: 48 8b 45 f8                 	movq	-8(%rbp), %rax
100007d7e: 48 63 4d ec                 	movslq	-20(%rbp), %rcx
100007d82: 0f be 14 08                 	movsbl	(%rax,%rcx), %edx
100007d86: 83 fa 24                    	cmpl	$36, %edx
100007d89: 0f 85 16 00 00 00           	jne	22 <_expander+0x115>
100007d8f: 48 8b 75 f8                 	movq	-8(%rbp), %rsi
100007d93: 8b 55 ec                    	movl	-20(%rbp), %edx
100007d96: 48 8d 7d f0                 	leaq	-16(%rbp), %rdi
100007d9a: e8 41 fe ff ff              	callq	-447 <_dolr_check>
100007d9f: 03 45 ec                    	addl	-20(%rbp), %eax
100007da2: 89 45 ec                    	movl	%eax, -20(%rbp)
100007da5: 8b 45 ec                    	movl	-20(%rbp), %eax
100007da8: 89 45 e8                    	movl	%eax, -24(%rbp)
100007dab: 48 8b 4d f8                 	movq	-8(%rbp), %rcx
100007daf: 48 63 55 e8                 	movslq	-24(%rbp), %rdx
100007db3: 0f be 04 11                 	movsbl	(%rcx,%rdx), %eax
100007db7: 83 f8 00                    	cmpl	$0, %eax
100007dba: 0f 84 32 00 00 00           	je	50 <_expander+0x162>
100007dc0: 48 8b 45 f8                 	movq	-8(%rbp), %rax
100007dc4: 48 63 4d e8                 	movslq	-24(%rbp), %rcx
100007dc8: 0f be 14 08                 	movsbl	(%rax,%rcx), %edx
100007dcc: 83 fa 22                    	cmpl	$34, %edx
100007dcf: 0f 85 1d 00 00 00           	jne	29 <_expander+0x162>
100007dd5: 48 8b 45 f8                 	movq	-8(%rbp), %rax
100007dd9: 48 63 4d e8                 	movslq	-24(%rbp), %rcx
100007ddd: 48 01 c8                    	addq	%rcx, %rax
100007de0: 48 8d 7d f0                 	leaq	-16(%rbp), %rdi
100007de4: 48 89 c6                    	movq	%rax, %rsi
100007de7: e8 a4 fc ff ff              	callq	-860 <_replace>
100007dec: 03 45 ec                    	addl	-20(%rbp), %eax
100007def: 89 45 ec                    	movl	%eax, -20(%rbp)
100007df2: 48 63 45 ec                 	movslq	-20(%rbp), %rax
100007df6: 48 8b 7d f8                 	movq	-8(%rbp), %rdi
100007dfa: 48 89 45 d8                 	movq	%rax, -40(%rbp)
100007dfe: e8 dd 6d 00 00              	callq	28125 <_ft_strlen>
100007e03: 48 8b 4d d8                 	movq	-40(%rbp), %rcx
100007e07: 48 39 c1                    	cmpq	%rax, %rcx
100007e0a: 0f 82 05 00 00 00           	jb	5 <_expander+0x185>
100007e10: e9 05 00 00 00              	jmp	5 <_expander+0x18a>
100007e15: e9 91 fe ff ff              	jmp	-367 <_expander+0x1b>
100007e1a: 48 8b 45 f0                 	movq	-16(%rbp), %rax
100007e1e: 48 83 c4 30                 	addq	$48, %rsp
100007e22: 5d                          	popq	%rbp
100007e23: c3                          	retq
100007e24: 66 2e 0f 1f 84 00 00 00 00 00       	nopw	%cs:(%rax,%rax)
100007e2e: 66 90                       	nop

0000000100007e30 _nodes_join_b:
100007e30: 55                          	pushq	%rbp
100007e31: 48 89 e5                    	movq	%rsp, %rbp
100007e34: 48 83 ec 20                 	subq	$32, %rsp
100007e38: 48 89 7d f8                 	movq	%rdi, -8(%rbp)
100007e3c: 48 8d 3d 0b 7b 00 00        	leaq	31499(%rip), %rdi
100007e43: e8 f8 6c 00 00              	callq	27896 <_ft_strdup>
100007e48: 48 89 45 f0                 	movq	%rax, -16(%rbp)
100007e4c: 48 8b 45 f8                 	movq	-8(%rbp), %rax
100007e50: 48 89 45 e8                 	movq	%rax, -24(%rbp)
100007e54: 48 83 7d f8 00              	cmpq	$0, -8(%rbp)
100007e59: 0f 84 39 00 00 00           	je	57 <_nodes_join_b+0x68>
100007e5f: 48 8b 45 f8                 	movq	-8(%rbp), %rax
100007e63: 48 89 45 e8                 	movq	%rax, -24(%rbp)
100007e67: 48 8b 7d f0                 	movq	-16(%rbp), %rdi
100007e6b: 48 8b 45 e8                 	movq	-24(%rbp), %rax
100007e6f: 48 8b 30                    	movq	(%rax), %rsi
100007e72: e8 e9 0f 00 00              	callq	4073 <_ft_strjoin_free>
100007e77: 48 89 45 f0                 	movq	%rax, -16(%rbp)
100007e7b: 48 8b 45 f8                 	movq	-8(%rbp), %rax
100007e7f: 48 8b 40 18                 	movq	24(%rax), %rax
100007e83: 48 89 45 f8                 	movq	%rax, -8(%rbp)
100007e87: 48 8b 45 e8                 	movq	-24(%rbp), %rax
100007e8b: 48 89 c7                    	movq	%rax, %rdi
100007e8e: e8 89 76 00 00              	callq	30345 <dyld_stub_binder+0x10000f51c>
100007e93: e9 bc ff ff ff              	jmp	-68 <_nodes_join_b+0x24>
100007e98: 48 8b 45 f0                 	movq	-16(%rbp), %rax
100007e9c: 48 83 c4 20                 	addq	$32, %rsp
100007ea0: 5d                          	popq	%rbp
100007ea1: c3                          	retq
100007ea2: 66 2e 0f 1f 84 00 00 00 00 00       	nopw	%cs:(%rax,%rax)
100007eac: 0f 1f 40 00                 	nopl	(%rax)

0000000100007eb0 _nodes_join:
100007eb0: 55                          	pushq	%rbp
100007eb1: 48 89 e5                    	movq	%rsp, %rbp
100007eb4: 48 83 ec 20                 	subq	$32, %rsp
100007eb8: 48 89 7d f8                 	movq	%rdi, -8(%rbp)
100007ebc: 48 8d 3d 8b 7a 00 00        	leaq	31371(%rip), %rdi
100007ec3: e8 78 6c 00 00              	callq	27768 <_ft_strdup>
100007ec8: 48 89 45 f0                 	movq	%rax, -16(%rbp)
100007ecc: 48 8b 45 f8                 	movq	-8(%rbp), %rax
100007ed0: 48 89 45 e8                 	movq	%rax, -24(%rbp)
100007ed4: 48 83 7d f8 00              	cmpq	$0, -8(%rbp)
100007ed9: 0f 84 39 00 00 00           	je	57 <_nodes_join+0x68>
100007edf: 48 8b 45 f8                 	movq	-8(%rbp), %rax
100007ee3: 48 89 45 e8                 	movq	%rax, -24(%rbp)
100007ee7: 48 8b 7d f0                 	movq	-16(%rbp), %rdi
100007eeb: 48 8b 45 e8                 	movq	-24(%rbp), %rax
100007eef: 48 8b 30                    	movq	(%rax), %rsi
100007ef2: e8 69 0f 00 00              	callq	3945 <_ft_strjoin_free>
100007ef7: 48 89 45 f0                 	movq	%rax, -16(%rbp)
100007efb: 48 8b 45 f8                 	movq	-8(%rbp), %rax
100007eff: 48 8b 40 08                 	movq	8(%rax), %rax
100007f03: 48 89 45 f8                 	movq	%rax, -8(%rbp)
100007f07: 48 8b 45 e8                 	movq	-24(%rbp), %rax
100007f0b: 48 89 c7                    	movq	%rax, %rdi
100007f0e: e8 09 76 00 00              	callq	30217 <dyld_stub_binder+0x10000f51c>
100007f13: e9 bc ff ff ff              	jmp	-68 <_nodes_join+0x24>
100007f18: 48 8b 45 f0                 	movq	-16(%rbp), %rax
100007f1c: 48 83 c4 20                 	addq	$32, %rsp
100007f20: 5d                          	popq	%rbp
100007f21: c3                          	retq
100007f22: 90                          	nop
100007f23: 90                          	nop
100007f24: 90                          	nop
100007f25: 90                          	nop
100007f26: 90                          	nop
100007f27: 90                          	nop
100007f28: 90                          	nop
100007f29: 90                          	nop
100007f2a: 90                          	nop
100007f2b: 90                          	nop
100007f2c: 90                          	nop
100007f2d: 90                          	nop
100007f2e: 90                          	nop
100007f2f: 90                          	nop

0000000100007f30 _read_until_chr:
100007f30: 55                          	pushq	%rbp
100007f31: 48 89 e5                    	movq	%rsp, %rbp
100007f34: 48 83 ec 30                 	subq	$48, %rsp
100007f38: 48 89 7d f0                 	movq	%rdi, -16(%rbp)
100007f3c: 40 88 75 ef                 	movb	%sil, -17(%rbp)
100007f40: 0f be 45 ef                 	movsbl	-17(%rbp), %eax
100007f44: 83 f8 27                    	cmpl	$39, %eax
100007f47: 0f 85 15 00 00 00           	jne	21 <_read_until_chr+0x32>
100007f4d: 48 8d 3d 3b 7b 00 00        	leaq	31547(%rip), %rdi
100007f54: e8 0b 76 00 00              	callq	30219 <dyld_stub_binder+0x10000f564>
100007f59: 48 89 45 e0                 	movq	%rax, -32(%rbp)
100007f5d: e9 10 00 00 00              	jmp	16 <_read_until_chr+0x42>
100007f62: 48 8d 3d 2e 7b 00 00        	leaq	31534(%rip), %rdi
100007f69: e8 f6 75 00 00              	callq	30198 <dyld_stub_binder+0x10000f564>
100007f6e: 48 89 45 e0                 	movq	%rax, -32(%rbp)
100007f72: 48 83 7d e0 00              	cmpq	$0, -32(%rbp)
100007f77: 0f 85 38 00 00 00           	jne	56 <_read_until_chr+0x85>
100007f7d: 48 8b 7d f0                 	movq	-16(%rbp), %rdi
100007f81: e8 96 75 00 00              	callq	30102 <dyld_stub_binder+0x10000f51c>
100007f86: 48 8d 3d 13 7b 00 00        	leaq	31507(%rip), %rdi
100007f8d: be 02 00 00 00              	movl	$2, %esi
100007f92: e8 e9 72 00 00              	callq	29417 <_ft_putendl_fd>
100007f97: 48 8d 3d 2f 7b 00 00        	leaq	31535(%rip), %rdi
100007f9e: be 02 00 00 00              	movl	$2, %esi
100007fa3: e8 d8 72 00 00              	callq	29400 <_ft_putendl_fd>
100007fa8: 48 c7 45 f8 00 00 00 00     	movq	$0, -8(%rbp)
100007fb0: e9 64 00 00 00              	jmp	100 <_read_until_chr+0xe9>
100007fb5: 48 8b 7d f0                 	movq	-16(%rbp), %rdi
100007fb9: 48 8d 05 3d 7b 00 00        	leaq	31549(%rip), %rax
100007fc0: 48 89 7d d0                 	movq	%rdi, -48(%rbp)
100007fc4: 48 89 c7                    	movq	%rax, %rdi
100007fc7: e8 74 6b 00 00              	callq	27508 <_ft_strdup>
100007fcc: 48 8b 7d d0                 	movq	-48(%rbp), %rdi
100007fd0: 48 89 c6                    	movq	%rax, %rsi
100007fd3: e8 88 0e 00 00              	callq	3720 <_ft_strjoin_free>
100007fd8: 48 89 45 f0                 	movq	%rax, -16(%rbp)
100007fdc: 48 8b 7d f0                 	movq	-16(%rbp), %rdi
100007fe0: 48 8b 75 e0                 	movq	-32(%rbp), %rsi
100007fe4: e8 77 0e 00 00              	callq	3703 <_ft_strjoin_free>
100007fe9: 48 89 45 f0                 	movq	%rax, -16(%rbp)
100007fed: 48 8b 7d f0                 	movq	-16(%rbp), %rdi
100007ff1: 0f be 75 ef                 	movsbl	-17(%rbp), %esi
100007ff5: e8 76 0d 00 00              	callq	3446 <_ft_chrpos>
100007ffa: 89 45 dc                    	movl	%eax, -36(%rbp)
100007ffd: 83 7d dc ff                 	cmpl	$-1, -36(%rbp)
100008001: 0f 84 05 00 00 00           	je	5 <_read_until_chr+0xdc>
100008007: e9 05 00 00 00              	jmp	5 <_read_until_chr+0xe1>
10000800c: e9 2f ff ff ff              	jmp	-209 <_read_until_chr+0x10>
100008011: 48 8b 45 f0                 	movq	-16(%rbp), %rax
100008015: 48 89 45 f8                 	movq	%rax, -8(%rbp)
100008019: 48 8b 45 f8                 	movq	-8(%rbp), %rax
10000801d: 48 83 c4 30                 	addq	$48, %rsp
100008021: 5d                          	popq	%rbp
100008022: c3                          	retq
100008023: 66 2e 0f 1f 84 00 00 00 00 00       	nopw	%cs:(%rax,%rax)
10000802d: 0f 1f 00                    	nopl	(%rax)

0000000100008030 _get_is_complete:
100008030: 55                          	pushq	%rbp
100008031: 48 89 e5                    	movq	%rsp, %rbp
100008034: 48 89 7d f8                 	movq	%rdi, -8(%rbp)
100008038: 48 89 75 f0                 	movq	%rsi, -16(%rbp)
10000803c: 48 89 55 e8                 	movq	%rdx, -24(%rbp)
100008040: c7 45 e4 00 00 00 00        	movl	$0, -28(%rbp)
100008047: 48 8b 45 f8                 	movq	-8(%rbp), %rax
10000804b: 48 63 4d e4                 	movslq	-28(%rbp), %rcx
10000804f: 80 3c 08 00                 	cmpb	$0, (%rax,%rcx)
100008053: 0f 84 84 00 00 00           	je	132 <_get_is_complete+0xad>
100008059: 48 8b 45 f8                 	movq	-8(%rbp), %rax
10000805d: 48 63 4d e4                 	movslq	-28(%rbp), %rcx
100008061: 0f be 14 08                 	movsbl	(%rax,%rcx), %edx
100008065: 83 fa 22                    	cmpl	$34, %edx
100008068: 0f 85 26 00 00 00           	jne	38 <_get_is_complete+0x64>
10000806e: 48 8b 45 f0                 	movq	-16(%rbp), %rax
100008072: 83 38 00                    	cmpl	$0, (%rax)
100008075: 0f 85 19 00 00 00           	jne	25 <_get_is_complete+0x64>
10000807b: 48 8b 45 e8                 	movq	-24(%rbp), %rax
10000807f: 83 38 00                    	cmpl	$0, (%rax)
100008082: 0f 95 c1                    	setne	%cl
100008085: 80 f1 ff                    	xorb	$-1, %cl
100008088: 80 e1 01                    	andb	$1, %cl
10000808b: 0f b6 d1                    	movzbl	%cl, %edx
10000808e: 48 8b 45 e8                 	movq	-24(%rbp), %rax
100008092: 89 10                       	movl	%edx, (%rax)
100008094: 48 8b 45 f8                 	movq	-8(%rbp), %rax
100008098: 48 63 4d e4                 	movslq	-28(%rbp), %rcx
10000809c: 0f be 14 08                 	movsbl	(%rax,%rcx), %edx
1000080a0: 83 fa 27                    	cmpl	$39, %edx
1000080a3: 0f 85 26 00 00 00           	jne	38 <_get_is_complete+0x9f>
1000080a9: 48 8b 45 e8                 	movq	-24(%rbp), %rax
1000080ad: 83 38 00                    	cmpl	$0, (%rax)
1000080b0: 0f 85 19 00 00 00           	jne	25 <_get_is_complete+0x9f>
1000080b6: 48 8b 45 f0                 	movq	-16(%rbp), %rax
1000080ba: 83 38 00                    	cmpl	$0, (%rax)
1000080bd: 0f 95 c1                    	setne	%cl
1000080c0: 80 f1 ff                    	xorb	$-1, %cl
1000080c3: 80 e1 01                    	andb	$1, %cl
1000080c6: 0f b6 d1                    	movzbl	%cl, %edx
1000080c9: 48 8b 45 f0                 	movq	-16(%rbp), %rax
1000080cd: 89 10                       	movl	%edx, (%rax)
1000080cf: 8b 45 e4                    	movl	-28(%rbp), %eax
1000080d2: 83 c0 01                    	addl	$1, %eax
1000080d5: 89 45 e4                    	movl	%eax, -28(%rbp)
1000080d8: e9 6a ff ff ff              	jmp	-150 <_get_is_complete+0x17>
1000080dd: 48 8b 45 f8                 	movq	-8(%rbp), %rax
1000080e1: 5d                          	popq	%rbp
1000080e2: c3                          	retq
1000080e3: 66 2e 0f 1f 84 00 00 00 00 00       	nopw	%cs:(%rax,%rax)
1000080ed: 0f 1f 00                    	nopl	(%rax)

00000001000080f0 _complete_line:
1000080f0: 55                          	pushq	%rbp
1000080f1: 48 89 e5                    	movq	%rsp, %rbp
1000080f4: 48 83 ec 20                 	subq	$32, %rsp
1000080f8: 48 89 7d f8                 	movq	%rdi, -8(%rbp)
1000080fc: c7 45 f4 00 00 00 00        	movl	$0, -12(%rbp)
100008103: c7 45 f0 00 00 00 00        	movl	$0, -16(%rbp)
10000810a: 48 83 7d f8 00              	cmpq	$0, -8(%rbp)
10000810f: 0f 84 0e 00 00 00           	je	14 <_complete_line+0x33>
100008115: 48 8b 45 f8                 	movq	-8(%rbp), %rax
100008119: 48 83 38 00                 	cmpq	$0, (%rax)
10000811d: 0f 85 05 00 00 00           	jne	5 <_complete_line+0x38>
100008123: e9 9f 00 00 00              	jmp	159 <_complete_line+0xd7>
100008128: 48 8b 45 f8                 	movq	-8(%rbp), %rax
10000812c: 48 8b 38                    	movq	(%rax), %rdi
10000812f: 48 8d 75 f4                 	leaq	-12(%rbp), %rsi
100008133: 48 8d 55 f0                 	leaq	-16(%rbp), %rdx
100008137: e8 f4 fe ff ff              	callq	-268 <_get_is_complete>
10000813c: 48 8b 4d f8                 	movq	-8(%rbp), %rcx
100008140: 48 89 01                    	movq	%rax, (%rcx)
100008143: 48 8b 45 f8                 	movq	-8(%rbp), %rax
100008147: 48 83 38 00                 	cmpq	$0, (%rax)
10000814b: 0f 85 05 00 00 00           	jne	5 <_complete_line+0x66>
100008151: e9 71 00 00 00              	jmp	113 <_complete_line+0xd7>
100008156: 83 7d f0 00                 	cmpl	$0, -16(%rbp)
10000815a: 0f 84 25 00 00 00           	je	37 <_complete_line+0x95>
100008160: 48 8b 45 f8                 	movq	-8(%rbp), %rax
100008164: 48 8b 38                    	movq	(%rax), %rdi
100008167: e8 d4 69 00 00              	callq	27092 <_ft_strdup>
10000816c: 48 89 c7                    	movq	%rax, %rdi
10000816f: be 22 00 00 00              	movl	$34, %esi
100008174: e8 b7 fd ff ff              	callq	-585 <_read_until_chr>
100008179: 48 8b 4d f8                 	movq	-8(%rbp), %rcx
10000817d: 48 89 01                    	movq	%rax, (%rcx)
100008180: e9 39 00 00 00              	jmp	57 <_complete_line+0xce>
100008185: 83 7d f4 00                 	cmpl	$0, -12(%rbp)
100008189: 0f 84 25 00 00 00           	je	37 <_complete_line+0xc4>
10000818f: 48 8b 45 f8                 	movq	-8(%rbp), %rax
100008193: 48 8b 38                    	movq	(%rax), %rdi
100008196: e8 a5 69 00 00              	callq	27045 <_ft_strdup>
10000819b: 48 89 c7                    	movq	%rax, %rdi
10000819e: be 27 00 00 00              	movl	$39, %esi
1000081a3: e8 88 fd ff ff              	callq	-632 <_read_until_chr>
1000081a8: 48 8b 4d f8                 	movq	-8(%rbp), %rcx
1000081ac: 48 89 01                    	movq	%rax, (%rcx)
1000081af: e9 05 00 00 00              	jmp	5 <_complete_line+0xc9>
1000081b4: e9 0e 00 00 00              	jmp	14 <_complete_line+0xd7>
1000081b9: e9 00 00 00 00              	jmp	0 <_complete_line+0xce>
1000081be: 48 8b 7d f8                 	movq	-8(%rbp), %rdi
1000081c2: e8 29 ff ff ff              	callq	-215 <_complete_line>
1000081c7: 48 83 c4 20                 	addq	$32, %rsp
1000081cb: 5d                          	popq	%rbp
1000081cc: c3                          	retq
1000081cd: 90                          	nop
1000081ce: 90                          	nop
1000081cf: 90                          	nop

00000001000081d0 _pipe_constructor:
1000081d0: 55                          	pushq	%rbp
1000081d1: 48 89 e5                    	movq	%rsp, %rbp
1000081d4: 48 83 ec 30                 	subq	$48, %rsp
1000081d8: 48 89 7d f8                 	movq	%rdi, -8(%rbp)
1000081dc: 48 89 75 f0                 	movq	%rsi, -16(%rbp)
1000081e0: 48 8d 3d 18 79 00 00        	leaq	31000(%rip), %rdi
1000081e7: b0 00                       	movb	$0, %al
1000081e9: e8 64 73 00 00              	callq	29540 <dyld_stub_binder+0x10000f552>
1000081ee: bf 18 00 00 00              	movl	$24, %edi
1000081f3: 89 45 e4                    	movl	%eax, -28(%rbp)
1000081f6: e8 39 73 00 00              	callq	29497 <dyld_stub_binder+0x10000f534>
1000081fb: 31 f6                       	xorl	%esi, %esi
1000081fd: 48 89 45 e8                 	movq	%rax, -24(%rbp)
100008201: 48 8b 45 e8                 	movq	-24(%rbp), %rax
100008205: 48 89 c7                    	movq	%rax, %rdi
100008208: ba 18 00 00 00              	movl	$24, %edx
10000820d: e8 4e 68 00 00              	callq	26702 <_ft_memset>
100008212: 48 8b 4d e8                 	movq	-24(%rbp), %rcx
100008216: c7 01 06 00 00 00           	movl	$6, (%rcx)
10000821c: 48 8b 4d f8                 	movq	-8(%rbp), %rcx
100008220: 48 8b 55 e8                 	movq	-24(%rbp), %rdx
100008224: 48 89 4a 08                 	movq	%rcx, 8(%rdx)
100008228: 48 8b 4d f0                 	movq	-16(%rbp), %rcx
10000822c: 48 8b 55 e8                 	movq	-24(%rbp), %rdx
100008230: 48 89 4a 10                 	movq	%rcx, 16(%rdx)
100008234: 48 8b 4d e8                 	movq	-24(%rbp), %rcx
100008238: 48 89 45 d8                 	movq	%rax, -40(%rbp)
10000823c: 48 89 c8                    	movq	%rcx, %rax
10000823f: 48 83 c4 30                 	addq	$48, %rsp
100008243: 5d                          	popq	%rbp
100008244: c3                          	retq
100008245: 66 2e 0f 1f 84 00 00 00 00 00       	nopw	%cs:(%rax,%rax)
10000824f: 90                          	nop

0000000100008250 _execcmd_constructor:
100008250: 55                          	pushq	%rbp
100008251: 48 89 e5                    	movq	%rsp, %rbp
100008254: 48 83 ec 30                 	subq	$48, %rsp
100008258: 48 89 7d f8                 	movq	%rdi, -8(%rbp)
10000825c: 48 89 75 f0                 	movq	%rsi, -16(%rbp)
100008260: bf 18 00 00 00              	movl	$24, %edi
100008265: e8 ca 72 00 00              	callq	29386 <dyld_stub_binder+0x10000f534>
10000826a: 31 f6                       	xorl	%esi, %esi
10000826c: 48 89 45 e8                 	movq	%rax, -24(%rbp)
100008270: 48 8b 45 e8                 	movq	-24(%rbp), %rax
100008274: 48 89 c7                    	movq	%rax, %rdi
100008277: ba 18 00 00 00              	movl	$24, %edx
10000827c: e8 df 67 00 00              	callq	26591 <_ft_memset>
100008281: 48 8b 4d e8                 	movq	-24(%rbp), %rcx
100008285: c7 01 01 00 00 00           	movl	$1, (%rcx)
10000828b: 48 8b 4d f8                 	movq	-8(%rbp), %rcx
10000828f: 48 8b 55 e8                 	movq	-24(%rbp), %rdx
100008293: 48 89 4a 08                 	movq	%rcx, 8(%rdx)
100008297: 48 8b 4d f0                 	movq	-16(%rbp), %rcx
10000829b: 48 8b 55 e8                 	movq	-24(%rbp), %rdx
10000829f: 48 89 4a 10                 	movq	%rcx, 16(%rdx)
1000082a3: 48 8d 3d 8b 78 00 00        	leaq	30859(%rip), %rdi
1000082aa: 48 89 45 e0                 	movq	%rax, -32(%rbp)
1000082ae: b0 00                       	movb	$0, %al
1000082b0: e8 9d 72 00 00              	callq	29341 <dyld_stub_binder+0x10000f552>
1000082b5: 48 8b 4d e8                 	movq	-24(%rbp), %rcx
1000082b9: 89 45 dc                    	movl	%eax, -36(%rbp)
1000082bc: 48 89 c8                    	movq	%rcx, %rax
1000082bf: 48 83 c4 30                 	addq	$48, %rsp
1000082c3: 5d                          	popq	%rbp
1000082c4: c3                          	retq
1000082c5: 66 2e 0f 1f 84 00 00 00 00 00       	nopw	%cs:(%rax,%rax)
1000082cf: 90                          	nop

00000001000082d0 _redir_constructor:
1000082d0: 55                          	pushq	%rbp
1000082d1: 48 89 e5                    	movq	%rsp, %rbp
1000082d4: 48 83 ec 30                 	subq	$48, %rsp
1000082d8: 48 8d 45 10                 	leaq	16(%rbp), %rax
1000082dc: 48 89 7d f8                 	movq	%rdi, -8(%rbp)
1000082e0: bf 28 00 00 00              	movl	$40, %edi
1000082e5: 48 89 45 e0                 	movq	%rax, -32(%rbp)
1000082e9: e8 46 72 00 00              	callq	29254 <dyld_stub_binder+0x10000f534>
1000082ee: 31 f6                       	xorl	%esi, %esi
1000082f0: 48 89 45 f0                 	movq	%rax, -16(%rbp)
1000082f4: 48 8b 45 f0                 	movq	-16(%rbp), %rax
1000082f8: 48 89 c7                    	movq	%rax, %rdi
1000082fb: ba 28 00 00 00              	movl	$40, %edx
100008300: e8 5b 67 00 00              	callq	26459 <_ft_memset>
100008305: 48 8b 4d f0                 	movq	-16(%rbp), %rcx
100008309: c7 01 02 00 00 00           	movl	$2, (%rcx)
10000830f: 48 8b 4d f8                 	movq	-8(%rbp), %rcx
100008313: 48 8b 55 f0                 	movq	-16(%rbp), %rdx
100008317: 48 89 4a 20                 	movq	%rcx, 32(%rdx)
10000831b: 48 8b 4d f0                 	movq	-16(%rbp), %rcx
10000831f: 48 8b 55 e0                 	movq	-32(%rbp), %rdx
100008323: 48 8b 3a                    	movq	(%rdx), %rdi
100008326: 48 89 79 08                 	movq	%rdi, 8(%rcx)
10000832a: 48 8b 7a 08                 	movq	8(%rdx), %rdi
10000832e: 48 89 79 10                 	movq	%rdi, 16(%rcx)
100008332: 48 8b 7a 10                 	movq	16(%rdx), %rdi
100008336: 48 89 79 18                 	movq	%rdi, 24(%rcx)
10000833a: 48 8d 3d 24 78 00 00        	leaq	30756(%rip), %rdi
100008341: 48 89 45 d8                 	movq	%rax, -40(%rbp)
100008345: b0 00                       	movb	$0, %al
100008347: e8 06 72 00 00              	callq	29190 <dyld_stub_binder+0x10000f552>
10000834c: 48 8b 4d f0                 	movq	-16(%rbp), %rcx
100008350: 48 8b 49 10                 	movq	16(%rcx), %rcx
100008354: 48 89 4d e8                 	movq	%rcx, -24(%rbp)
100008358: 48 83 7d e8 00              	cmpq	$0, -24(%rbp)
10000835d: 0f 84 36 00 00 00           	je	54 <_redir_constructor+0xc9>
100008363: 48 8b 45 e8                 	movq	-24(%rbp), %rax
100008367: 8a 48 08                    	movb	8(%rax), %cl
10000836a: 80 e1 0f                    	andb	$15, %cl
10000836d: 0f b6 d1                    	movzbl	%cl, %edx
100008370: 0f b7 f2                    	movzwl	%dx, %esi
100008373: 48 8b 45 e8                 	movq	-24(%rbp), %rax
100008377: 48 8b 10                    	movq	(%rax), %rdx
10000837a: 48 8d 3d 14 78 00 00        	leaq	30740(%rip), %rdi
100008381: b0 00                       	movb	$0, %al
100008383: e8 ca 71 00 00              	callq	29130 <dyld_stub_binder+0x10000f552>
100008388: 48 8b 55 e8                 	movq	-24(%rbp), %rdx
10000838c: 48 8b 52 18                 	movq	24(%rdx), %rdx
100008390: 48 89 55 e8                 	movq	%rdx, -24(%rbp)
100008394: e9 bf ff ff ff              	jmp	-65 <_redir_constructor+0x88>
100008399: 48 8b 45 f0                 	movq	-16(%rbp), %rax
10000839d: 8b 70 18                    	movl	24(%rax), %esi
1000083a0: 48 8b 45 f0                 	movq	-16(%rbp), %rax
1000083a4: 8b 50 1c                    	movl	28(%rax), %edx
1000083a7: 48 8b 45 f0                 	movq	-16(%rbp), %rax
1000083ab: 8b 48 08                    	movl	8(%rax), %ecx
1000083ae: 48 8d 3d fb 77 00 00        	leaq	30715(%rip), %rdi
1000083b5: b0 00                       	movb	$0, %al
1000083b7: e8 96 71 00 00              	callq	29078 <dyld_stub_binder+0x10000f552>
1000083bc: 48 83 7d f8 00              	cmpq	$0, -8(%rbp)
1000083c1: 0f 84 18 00 00 00           	je	24 <_redir_constructor+0x10f>
1000083c7: 48 8b 45 f0                 	movq	-16(%rbp), %rax
1000083cb: 48 8b 40 20                 	movq	32(%rax), %rax
1000083cf: 8b 30                       	movl	(%rax), %esi
1000083d1: 48 8d 3d fb 77 00 00        	leaq	30715(%rip), %rdi
1000083d8: b0 00                       	movb	$0, %al
1000083da: e8 73 71 00 00              	callq	29043 <dyld_stub_binder+0x10000f552>
1000083df: 48 8d 3d 00 78 00 00        	leaq	30720(%rip), %rdi
1000083e6: b0 00                       	movb	$0, %al
1000083e8: e8 65 71 00 00              	callq	29029 <dyld_stub_binder+0x10000f552>
1000083ed: 48 8b 4d f0                 	movq	-16(%rbp), %rcx
1000083f1: 89 45 d4                    	movl	%eax, -44(%rbp)
1000083f4: 48 89 c8                    	movq	%rcx, %rax
1000083f7: 48 83 c4 30                 	addq	$48, %rsp
1000083fb: 5d                          	popq	%rbp
1000083fc: c3                          	retq
1000083fd: 0f 1f 00                    	nopl	(%rax)

0000000100008400 _and_constructor:
100008400: 55                          	pushq	%rbp
100008401: 48 89 e5                    	movq	%rsp, %rbp
100008404: 48 83 ec 30                 	subq	$48, %rsp
100008408: 48 89 7d f8                 	movq	%rdi, -8(%rbp)
10000840c: 48 89 75 f0                 	movq	%rsi, -16(%rbp)
100008410: 48 8d 3d ff 77 00 00        	leaq	30719(%rip), %rdi
100008417: b0 00                       	movb	$0, %al
100008419: e8 34 71 00 00              	callq	28980 <dyld_stub_binder+0x10000f552>
10000841e: bf 18 00 00 00              	movl	$24, %edi
100008423: 89 45 e4                    	movl	%eax, -28(%rbp)
100008426: e8 09 71 00 00              	callq	28937 <dyld_stub_binder+0x10000f534>
10000842b: 31 f6                       	xorl	%esi, %esi
10000842d: 48 89 45 e8                 	movq	%rax, -24(%rbp)
100008431: 48 8b 45 e8                 	movq	-24(%rbp), %rax
100008435: 48 89 c7                    	movq	%rax, %rdi
100008438: ba 18 00 00 00              	movl	$24, %edx
10000843d: e8 1e 66 00 00              	callq	26142 <_ft_memset>
100008442: 48 8b 4d e8                 	movq	-24(%rbp), %rcx
100008446: c7 01 04 00 00 00           	movl	$4, (%rcx)
10000844c: 48 8b 4d f8                 	movq	-8(%rbp), %rcx
100008450: 48 8b 55 e8                 	movq	-24(%rbp), %rdx
100008454: 48 89 4a 08                 	movq	%rcx, 8(%rdx)
100008458: 48 8b 4d f0                 	movq	-16(%rbp), %rcx
10000845c: 48 8b 55 e8                 	movq	-24(%rbp), %rdx
100008460: 48 89 4a 10                 	movq	%rcx, 16(%rdx)
100008464: 48 8b 4d e8                 	movq	-24(%rbp), %rcx
100008468: 48 89 45 d8                 	movq	%rax, -40(%rbp)
10000846c: 48 89 c8                    	movq	%rcx, %rax
10000846f: 48 83 c4 30                 	addq	$48, %rsp
100008473: 5d                          	popq	%rbp
100008474: c3                          	retq
100008475: 66 2e 0f 1f 84 00 00 00 00 00       	nopw	%cs:(%rax,%rax)
10000847f: 90                          	nop

0000000100008480 _or_constructor:
100008480: 55                          	pushq	%rbp
100008481: 48 89 e5                    	movq	%rsp, %rbp
100008484: 48 83 ec 30                 	subq	$48, %rsp
100008488: 48 89 7d f8                 	movq	%rdi, -8(%rbp)
10000848c: 48 89 75 f0                 	movq	%rsi, -16(%rbp)
100008490: 48 8d 3d b4 77 00 00        	leaq	30644(%rip), %rdi
100008497: b0 00                       	movb	$0, %al
100008499: e8 b4 70 00 00              	callq	28852 <dyld_stub_binder+0x10000f552>
10000849e: bf 18 00 00 00              	movl	$24, %edi
1000084a3: 89 45 e4                    	movl	%eax, -28(%rbp)
1000084a6: e8 89 70 00 00              	callq	28809 <dyld_stub_binder+0x10000f534>
1000084ab: 31 f6                       	xorl	%esi, %esi
1000084ad: 48 89 45 e8                 	movq	%rax, -24(%rbp)
1000084b1: 48 8b 45 e8                 	movq	-24(%rbp), %rax
1000084b5: 48 89 c7                    	movq	%rax, %rdi
1000084b8: ba 18 00 00 00              	movl	$24, %edx
1000084bd: e8 9e 65 00 00              	callq	26014 <_ft_memset>
1000084c2: 48 8b 4d e8                 	movq	-24(%rbp), %rcx
1000084c6: c7 01 05 00 00 00           	movl	$5, (%rcx)
1000084cc: 48 8b 4d f8                 	movq	-8(%rbp), %rcx
1000084d0: 48 8b 55 e8                 	movq	-24(%rbp), %rdx
1000084d4: 48 89 4a 08                 	movq	%rcx, 8(%rdx)
1000084d8: 48 8b 4d f0                 	movq	-16(%rbp), %rcx
1000084dc: 48 8b 55 e8                 	movq	-24(%rbp), %rdx
1000084e0: 48 89 4a 10                 	movq	%rcx, 16(%rdx)
1000084e4: 48 8b 4d e8                 	movq	-24(%rbp), %rcx
1000084e8: 48 89 45 d8                 	movq	%rax, -40(%rbp)
1000084ec: 48 89 c8                    	movq	%rcx, %rax
1000084ef: 48 83 c4 30                 	addq	$48, %rsp
1000084f3: 5d                          	popq	%rbp
1000084f4: c3                          	retq
1000084f5: 66 2e 0f 1f 84 00 00 00 00 00       	nopw	%cs:(%rax,%rax)
1000084ff: 90                          	nop

0000000100008500 _invalid_constructor:
100008500: 55                          	pushq	%rbp
100008501: 48 89 e5                    	movq	%rsp, %rbp
100008504: 48 83 ec 30                 	subq	$48, %rsp
100008508: 48 89 7d f8                 	movq	%rdi, -8(%rbp)
10000850c: bf 10 00 00 00              	movl	$16, %edi
100008511: e8 1e 70 00 00              	callq	28702 <dyld_stub_binder+0x10000f534>
100008516: 31 f6                       	xorl	%esi, %esi
100008518: 48 89 45 f0                 	movq	%rax, -16(%rbp)
10000851c: 48 8b 45 f0                 	movq	-16(%rbp), %rax
100008520: 48 89 c7                    	movq	%rax, %rdi
100008523: ba 10 00 00 00              	movl	$16, %edx
100008528: e8 33 65 00 00              	callq	25907 <_ft_memset>
10000852d: 48 8b 4d f0                 	movq	-16(%rbp), %rcx
100008531: c7 01 08 00 00 00           	movl	$8, (%rcx)
100008537: 48 8b 4d f8                 	movq	-8(%rbp), %rcx
10000853b: 48 8b 55 f0                 	movq	-16(%rbp), %rdx
10000853f: 48 89 4a 08                 	movq	%rcx, 8(%rdx)
100008543: 48 8d 3d 35 77 00 00        	leaq	30517(%rip), %rdi
10000854a: 48 89 45 e8                 	movq	%rax, -24(%rbp)
10000854e: b0 00                       	movb	$0, %al
100008550: e8 fd 6f 00 00              	callq	28669 <dyld_stub_binder+0x10000f552>
100008555: 48 8b 4d f0                 	movq	-16(%rbp), %rcx
100008559: 48 8b 71 08                 	movq	8(%rcx), %rsi
10000855d: 48 8d 3d 4b 77 00 00        	leaq	30539(%rip), %rdi
100008564: 89 45 e4                    	movl	%eax, -28(%rbp)
100008567: b0 00                       	movb	$0, %al
100008569: e8 e4 6f 00 00              	callq	28644 <dyld_stub_binder+0x10000f552>
10000856e: 48 8d 3d 71 76 00 00        	leaq	30321(%rip), %rdi
100008575: 89 45 e0                    	movl	%eax, -32(%rbp)
100008578: b0 00                       	movb	$0, %al
10000857a: e8 d3 6f 00 00              	callq	28627 <dyld_stub_binder+0x10000f552>
10000857f: 48 8b 4d f0                 	movq	-16(%rbp), %rcx
100008583: 89 45 dc                    	movl	%eax, -36(%rbp)
100008586: 48 89 c8                    	movq	%rcx, %rax
100008589: 48 83 c4 30                 	addq	$48, %rsp
10000858d: 5d                          	popq	%rbp
10000858e: c3                          	retq
10000858f: 90                          	nop

0000000100008590 _builtin_constructor:
100008590: 55                          	pushq	%rbp
100008591: 48 89 e5                    	movq	%rsp, %rbp
100008594: 48 83 ec 40                 	subq	$64, %rsp
100008598: 48 89 7d f8                 	movq	%rdi, -8(%rbp)
10000859c: 66 89 75 f6                 	movw	%si, -10(%rbp)
1000085a0: 48 89 55 e8                 	movq	%rdx, -24(%rbp)
1000085a4: bf 20 00 00 00              	movl	$32, %edi
1000085a9: e8 86 6f 00 00              	callq	28550 <dyld_stub_binder+0x10000f534>
1000085ae: 31 f6                       	xorl	%esi, %esi
1000085b0: 48 89 45 e0                 	movq	%rax, -32(%rbp)
1000085b4: 48 8b 45 e0                 	movq	-32(%rbp), %rax
1000085b8: 48 89 c7                    	movq	%rax, %rdi
1000085bb: ba 20 00 00 00              	movl	$32, %edx
1000085c0: e8 9b 64 00 00              	callq	25755 <_ft_memset>
1000085c5: 48 8b 4d e0                 	movq	-32(%rbp), %rcx
1000085c9: c7 01 03 00 00 00           	movl	$3, (%rcx)
1000085cf: 48 8b 4d f8                 	movq	-8(%rbp), %rcx
1000085d3: 48 8b 55 e0                 	movq	-32(%rbp), %rdx
1000085d7: 48 89 4a 08                 	movq	%rcx, 8(%rdx)
1000085db: 48 8b 4d e8                 	movq	-24(%rbp), %rcx
1000085df: 48 8b 55 e0                 	movq	-32(%rbp), %rdx
1000085e3: 48 89 4a 10                 	movq	%rcx, 16(%rdx)
1000085e7: 66 44 8b 45 f6              	movw	-10(%rbp), %r8w
1000085ec: 48 8b 4d e0                 	movq	-32(%rbp), %rcx
1000085f0: 44 8a 49 18                 	movb	24(%rcx), %r9b
1000085f4: 41 80 e0 01                 	andb	$1, %r8b
1000085f8: 41 80 e1 fe                 	andb	$-2, %r9b
1000085fc: 45 08 c1                    	orb	%r8b, %r9b
1000085ff: 44 88 49 18                 	movb	%r9b, 24(%rcx)
100008603: 48 8d 3d b5 76 00 00        	leaq	30389(%rip), %rdi
10000860a: 48 89 45 d0                 	movq	%rax, -48(%rbp)
10000860e: b0 00                       	movb	$0, %al
100008610: e8 3d 6f 00 00              	callq	28477 <dyld_stub_binder+0x10000f552>
100008615: 48 8b 4d e0                 	movq	-32(%rbp), %rcx
100008619: 48 8b 71 08                 	movq	8(%rcx), %rsi
10000861d: 48 8d 3d cb 76 00 00        	leaq	30411(%rip), %rdi
100008624: 89 45 cc                    	movl	%eax, -52(%rbp)
100008627: b0 00                       	movb	$0, %al
100008629: e8 24 6f 00 00              	callq	28452 <dyld_stub_binder+0x10000f552>
10000862e: 66 83 7d f6 00              	cmpw	$0, -10(%rbp)
100008633: 0f 84 0e 00 00 00           	je	14 <_builtin_constructor+0xb7>
100008639: 48 8d 3d be 76 00 00        	leaq	30398(%rip), %rdi
100008640: b0 00                       	movb	$0, %al
100008642: e8 0b 6f 00 00              	callq	28427 <dyld_stub_binder+0x10000f552>
100008647: 48 8b 45 e8                 	movq	-24(%rbp), %rax
10000864b: 48 89 45 d8                 	movq	%rax, -40(%rbp)
10000864f: 48 8d 3d 2a 72 00 00        	leaq	29226(%rip), %rdi
100008656: e8 fd 6e 00 00              	callq	28413 <dyld_stub_binder+0x10000f558>
10000865b: 48 8d 3d 84 75 00 00        	leaq	30084(%rip), %rdi
100008662: 89 45 c8                    	movl	%eax, -56(%rbp)
100008665: b0 00                       	movb	$0, %al
100008667: e8 e6 6e 00 00              	callq	28390 <dyld_stub_binder+0x10000f552>
10000866c: 48 8b 4d e0                 	movq	-32(%rbp), %rcx
100008670: 89 45 c4                    	movl	%eax, -60(%rbp)
100008673: 48 89 c8                    	movq	%rcx, %rax
100008676: 48 83 c4 40                 	addq	$64, %rsp
10000867a: 5d                          	popq	%rbp
10000867b: c3                          	retq
10000867c: 0f 1f 40 00                 	nopl	(%rax)

0000000100008680 _assignement_constructor:
100008680: 55                          	pushq	%rbp
100008681: 48 89 e5                    	movq	%rsp, %rbp
100008684: 48 83 ec 30                 	subq	$48, %rsp
100008688: 48 89 7d f8                 	movq	%rdi, -8(%rbp)
10000868c: 48 89 75 f0                 	movq	%rsi, -16(%rbp)
100008690: bf 18 00 00 00              	movl	$24, %edi
100008695: e8 9a 6e 00 00              	callq	28314 <dyld_stub_binder+0x10000f534>
10000869a: 31 f6                       	xorl	%esi, %esi
10000869c: 48 89 45 e8                 	movq	%rax, -24(%rbp)
1000086a0: 48 8b 45 e8                 	movq	-24(%rbp), %rax
1000086a4: 48 89 c7                    	movq	%rax, %rdi
1000086a7: ba 18 00 00 00              	movl	$24, %edx
1000086ac: e8 af 63 00 00              	callq	25519 <_ft_memset>
1000086b1: 48 8b 4d e8                 	movq	-24(%rbp), %rcx
1000086b5: c7 01 07 00 00 00           	movl	$7, (%rcx)
1000086bb: 48 8b 4d f8                 	movq	-8(%rbp), %rcx
1000086bf: 48 8b 55 e8                 	movq	-24(%rbp), %rdx
1000086c3: 48 89 4a 08                 	movq	%rcx, 8(%rdx)
1000086c7: 48 8b 4d f0                 	movq	-16(%rbp), %rcx
1000086cb: 48 8b 55 e8                 	movq	-24(%rbp), %rdx
1000086cf: 48 89 4a 10                 	movq	%rcx, 16(%rdx)
1000086d3: 48 8d 3d 39 76 00 00        	leaq	30265(%rip), %rdi
1000086da: 48 89 45 e0                 	movq	%rax, -32(%rbp)
1000086de: b0 00                       	movb	$0, %al
1000086e0: e8 6d 6e 00 00              	callq	28269 <dyld_stub_binder+0x10000f552>
1000086e5: 48 8b 4d e8                 	movq	-24(%rbp), %rcx
1000086e9: 48 8b 71 08                 	movq	8(%rcx), %rsi
1000086ed: 48 8d 3d 50 76 00 00        	leaq	30288(%rip), %rdi
1000086f4: 89 45 dc                    	movl	%eax, -36(%rbp)
1000086f7: b0 00                       	movb	$0, %al
1000086f9: e8 54 6e 00 00              	callq	28244 <dyld_stub_binder+0x10000f552>
1000086fe: 48 8b 4d e8                 	movq	-24(%rbp), %rcx
100008702: 48 8b 71 10                 	movq	16(%rcx), %rsi
100008706: 48 8d 3d 43 76 00 00        	leaq	30275(%rip), %rdi
10000870d: 89 45 d8                    	movl	%eax, -40(%rbp)
100008710: b0 00                       	movb	$0, %al
100008712: e8 3b 6e 00 00              	callq	28219 <dyld_stub_binder+0x10000f552>
100008717: 48 8d 3d c8 74 00 00        	leaq	29896(%rip), %rdi
10000871e: 89 45 d4                    	movl	%eax, -44(%rbp)
100008721: b0 00                       	movb	$0, %al
100008723: e8 2a 6e 00 00              	callq	28202 <dyld_stub_binder+0x10000f552>
100008728: 48 8b 4d e8                 	movq	-24(%rbp), %rcx
10000872c: 89 45 d0                    	movl	%eax, -48(%rbp)
10000872f: 48 89 c8                    	movq	%rcx, %rax
100008732: 48 83 c4 30                 	addq	$48, %rsp
100008736: 5d                          	popq	%rbp
100008737: c3                          	retq
100008738: 90                          	nop
100008739: 90                          	nop
10000873a: 90                          	nop
10000873b: 90                          	nop
10000873c: 90                          	nop
10000873d: 90                          	nop
10000873e: 90                          	nop
10000873f: 90                          	nop

0000000100008740 _echo:
100008740: 55                          	pushq	%rbp
100008741: 48 89 e5                    	movq	%rsp, %rbp
100008744: 48 83 ec 20                 	subq	$32, %rsp
100008748: 48 89 7d f8                 	movq	%rdi, -8(%rbp)
10000874c: 48 8b 45 f8                 	movq	-8(%rbp), %rax
100008750: 48 89 45 f0                 	movq	%rax, -16(%rbp)
100008754: 48 8b 45 f0                 	movq	-16(%rbp), %rax
100008758: 48 8b 40 10                 	movq	16(%rax), %rax
10000875c: 48 89 45 e8                 	movq	%rax, -24(%rbp)
100008760: 48 8b 7d e8                 	movq	-24(%rbp), %rdi
100008764: e8 17 da ff ff              	callq	-9705 <_expand_line>
100008769: 48 83 7d e8 00              	cmpq	$0, -24(%rbp)
10000876e: 0f 84 bf 00 00 00           	je	191 <_echo+0xf3>
100008774: 48 8b 45 e8                 	movq	-24(%rbp), %rax
100008778: 8a 48 08                    	movb	8(%rax), %cl
10000877b: 80 e1 0f                    	andb	$15, %cl
10000877e: 0f b6 d1                    	movzbl	%cl, %edx
100008781: 0f b7 f2                    	movzwl	%dx, %esi
100008784: 83 fe 02                    	cmpl	$2, %esi
100008787: 0f 84 19 00 00 00           	je	25 <_echo+0x66>
10000878d: 48 8b 45 e8                 	movq	-24(%rbp), %rax
100008791: 8a 48 08                    	movb	8(%rax), %cl
100008794: 80 e1 0f                    	andb	$15, %cl
100008797: 0f b6 d1                    	movzbl	%cl, %edx
10000879a: 0f b7 f2                    	movzwl	%dx, %esi
10000879d: 83 fe 04                    	cmpl	$4, %esi
1000087a0: 0f 85 2a 00 00 00           	jne	42 <_echo+0x90>
1000087a6: 48 8b 45 e8                 	movq	-24(%rbp), %rax
1000087aa: 8a 48 08                    	movb	8(%rax), %cl
1000087ad: 80 e1 0f                    	andb	$15, %cl
1000087b0: 0f b6 d1                    	movzbl	%cl, %edx
1000087b3: 0f b7 f2                    	movzwl	%dx, %esi
1000087b6: 48 8b 45 e8                 	movq	-24(%rbp), %rax
1000087ba: 48 8b 10                    	movq	(%rax), %rdx
1000087bd: 48 8d 3d 9a 75 00 00        	leaq	30106(%rip), %rdi
1000087c4: b0 00                       	movb	$0, %al
1000087c6: e8 87 6d 00 00              	callq	28039 <dyld_stub_binder+0x10000f552>
1000087cb: e9 52 00 00 00              	jmp	82 <_echo+0xe2>
1000087d0: 48 8b 45 e8                 	movq	-24(%rbp), %rax
1000087d4: 48 8b 40 10                 	movq	16(%rax), %rax
1000087d8: 48 89 45 e0                 	movq	%rax, -32(%rbp)
1000087dc: 48 83 7d e0 00              	cmpq	$0, -32(%rbp)
1000087e1: 0f 84 36 00 00 00           	je	54 <_echo+0xdd>
1000087e7: 48 8b 45 e0                 	movq	-32(%rbp), %rax
1000087eb: 8a 48 08                    	movb	8(%rax), %cl
1000087ee: 80 e1 0f                    	andb	$15, %cl
1000087f1: 0f b6 d1                    	movzbl	%cl, %edx
1000087f4: 0f b7 f2                    	movzwl	%dx, %esi
1000087f7: 48 8b 45 e0                 	movq	-32(%rbp), %rax
1000087fb: 48 8b 10                    	movq	(%rax), %rdx
1000087fe: 48 8d 3d 59 75 00 00        	leaq	30041(%rip), %rdi
100008805: b0 00                       	movb	$0, %al
100008807: e8 46 6d 00 00              	callq	27974 <dyld_stub_binder+0x10000f552>
10000880c: 48 8b 55 e0                 	movq	-32(%rbp), %rdx
100008810: 48 8b 52 18                 	movq	24(%rdx), %rdx
100008814: 48 89 55 e0                 	movq	%rdx, -32(%rbp)
100008818: e9 bf ff ff ff              	jmp	-65 <_echo+0x9c>
10000881d: e9 00 00 00 00              	jmp	0 <_echo+0xe2>
100008822: 48 8b 45 e8                 	movq	-24(%rbp), %rax
100008826: 48 8b 40 18                 	movq	24(%rax), %rax
10000882a: 48 89 45 e8                 	movq	%rax, -24(%rbp)
10000882e: e9 36 ff ff ff              	jmp	-202 <_echo+0x29>
100008833: 48 83 c4 20                 	addq	$32, %rsp
100008837: 5d                          	popq	%rbp
100008838: c3                          	retq
100008839: 90                          	nop
10000883a: 90                          	nop
10000883b: 90                          	nop
10000883c: 90                          	nop
10000883d: 90                          	nop
10000883e: 90                          	nop
10000883f: 90                          	nop

0000000100008840 _check_and_parsing:
100008840: 55                          	pushq	%rbp
100008841: 48 89 e5                    	movq	%rsp, %rbp
100008844: 48 83 ec 20                 	subq	$32, %rsp
100008848: 48 89 7d f0                 	movq	%rdi, -16(%rbp)
10000884c: 48 8b 45 f0                 	movq	-16(%rbp), %rax
100008850: 48 83 78 08 00              	cmpq	$0, 8(%rax)
100008855: 0f 84 0f 00 00 00           	je	15 <_check_and_parsing+0x2a>
10000885b: 48 8b 45 f0                 	movq	-16(%rbp), %rax
10000885f: 48 83 78 10 00              	cmpq	$0, 16(%rax)
100008864: 0f 85 0c 00 00 00           	jne	12 <_check_and_parsing+0x36>
10000886a: c7 45 fc 00 00 00 00        	movl	$0, -4(%rbp)
100008871: e9 25 00 00 00              	jmp	37 <_check_and_parsing+0x5b>
100008876: 48 8b 45 f0                 	movq	-16(%rbp), %rax
10000887a: 48 8b 78 08                 	movq	8(%rax), %rdi
10000887e: e8 2d 00 00 00              	callq	45 <_check_parsing>
100008883: 48 8b 4d f0                 	movq	-16(%rbp), %rcx
100008887: 48 8b 79 10                 	movq	16(%rcx), %rdi
10000888b: 89 45 ec                    	movl	%eax, -20(%rbp)
10000888e: e8 1d 00 00 00              	callq	29 <_check_parsing>
100008893: 8b 55 ec                    	movl	-20(%rbp), %edx
100008896: 21 c2                       	andl	%eax, %edx
100008898: 89 55 fc                    	movl	%edx, -4(%rbp)
10000889b: 8b 45 fc                    	movl	-4(%rbp), %eax
10000889e: 48 83 c4 20                 	addq	$32, %rsp
1000088a2: 5d                          	popq	%rbp
1000088a3: c3                          	retq
1000088a4: 66 2e 0f 1f 84 00 00 00 00 00       	nopw	%cs:(%rax,%rax)
1000088ae: 66 90                       	nop

00000001000088b0 _check_parsing:
1000088b0: 55                          	pushq	%rbp
1000088b1: 48 89 e5                    	movq	%rsp, %rbp
1000088b4: 48 83 ec 10                 	subq	$16, %rsp
1000088b8: 48 89 7d f0                 	movq	%rdi, -16(%rbp)
1000088bc: 48 83 7d f0 00              	cmpq	$0, -16(%rbp)
1000088c1: 0f 85 0c 00 00 00           	jne	12 <_check_parsing+0x23>
1000088c7: c7 45 fc 00 00 00 00        	movl	$0, -4(%rbp)
1000088ce: e9 8e 00 00 00              	jmp	142 <_check_parsing+0xb1>
1000088d3: 48 8b 45 f0                 	movq	-16(%rbp), %rax
1000088d7: 83 38 04                    	cmpl	$4, (%rax)
1000088da: 0f 85 11 00 00 00           	jne	17 <_check_parsing+0x41>
1000088e0: 48 8b 7d f0                 	movq	-16(%rbp), %rdi
1000088e4: e8 57 ff ff ff              	callq	-169 <_check_and_parsing>
1000088e9: 89 45 fc                    	movl	%eax, -4(%rbp)
1000088ec: e9 70 00 00 00              	jmp	112 <_check_parsing+0xb1>
1000088f1: 48 8b 45 f0                 	movq	-16(%rbp), %rax
1000088f5: 83 38 05                    	cmpl	$5, (%rax)
1000088f8: 0f 85 11 00 00 00           	jne	17 <_check_parsing+0x5f>
1000088fe: 48 8b 7d f0                 	movq	-16(%rbp), %rdi
100008902: e8 69 00 00 00              	callq	105 <_check_or_parsing>
100008907: 89 45 fc                    	movl	%eax, -4(%rbp)
10000890a: e9 52 00 00 00              	jmp	82 <_check_parsing+0xb1>
10000890f: 48 8b 45 f0                 	movq	-16(%rbp), %rax
100008913: 83 38 06                    	cmpl	$6, (%rax)
100008916: 0f 85 11 00 00 00           	jne	17 <_check_parsing+0x7d>
10000891c: 48 8b 7d f0                 	movq	-16(%rbp), %rdi
100008920: e8 bb 00 00 00              	callq	187 <_check_pipe_parsing>
100008925: 89 45 fc                    	movl	%eax, -4(%rbp)
100008928: e9 34 00 00 00              	jmp	52 <_check_parsing+0xb1>
10000892d: 48 8b 45 f0                 	movq	-16(%rbp), %rax
100008931: 83 38 02                    	cmpl	$2, (%rax)
100008934: 0f 85 11 00 00 00           	jne	17 <_check_parsing+0x9b>
10000893a: 48 8b 7d f0                 	movq	-16(%rbp), %rdi
10000893e: e8 0d 01 00 00              	callq	269 <_check_redir_parsing>
100008943: 89 45 fc                    	movl	%eax, -4(%rbp)
100008946: e9 16 00 00 00              	jmp	22 <_check_parsing+0xb1>
10000894b: e9 00 00 00 00              	jmp	0 <_check_parsing+0xa0>
100008950: e9 00 00 00 00              	jmp	0 <_check_parsing+0xa5>
100008955: e9 00 00 00 00              	jmp	0 <_check_parsing+0xaa>
10000895a: c7 45 fc 01 00 00 00        	movl	$1, -4(%rbp)
100008961: 8b 45 fc                    	movl	-4(%rbp), %eax
100008964: 48 83 c4 10                 	addq	$16, %rsp
100008968: 5d                          	popq	%rbp
100008969: c3                          	retq
10000896a: 66 0f 1f 44 00 00           	nopw	(%rax,%rax)

0000000100008970 _check_or_parsing:
100008970: 55                          	pushq	%rbp
100008971: 48 89 e5                    	movq	%rsp, %rbp
100008974: 48 83 ec 20                 	subq	$32, %rsp
100008978: 48 89 7d f0                 	movq	%rdi, -16(%rbp)
10000897c: 48 8b 45 f0                 	movq	-16(%rbp), %rax
100008980: 48 83 78 08 00              	cmpq	$0, 8(%rax)
100008985: 0f 84 0f 00 00 00           	je	15 <_check_or_parsing+0x2a>
10000898b: 48 8b 45 f0                 	movq	-16(%rbp), %rax
10000898f: 48 83 78 10 00              	cmpq	$0, 16(%rax)
100008994: 0f 85 0c 00 00 00           	jne	12 <_check_or_parsing+0x36>
10000899a: c7 45 fc 00 00 00 00        	movl	$0, -4(%rbp)
1000089a1: e9 25 00 00 00              	jmp	37 <_check_or_parsing+0x5b>
1000089a6: 48 8b 45 f0                 	movq	-16(%rbp), %rax
1000089aa: 48 8b 78 08                 	movq	8(%rax), %rdi
1000089ae: e8 fd fe ff ff              	callq	-259 <_check_parsing>
1000089b3: 48 8b 4d f0                 	movq	-16(%rbp), %rcx
1000089b7: 48 8b 79 10                 	movq	16(%rcx), %rdi
1000089bb: 89 45 ec                    	movl	%eax, -20(%rbp)
1000089be: e8 ed fe ff ff              	callq	-275 <_check_parsing>
1000089c3: 8b 55 ec                    	movl	-20(%rbp), %edx
1000089c6: 21 c2                       	andl	%eax, %edx
1000089c8: 89 55 fc                    	movl	%edx, -4(%rbp)
1000089cb: 8b 45 fc                    	movl	-4(%rbp), %eax
1000089ce: 48 83 c4 20                 	addq	$32, %rsp
1000089d2: 5d                          	popq	%rbp
1000089d3: c3                          	retq
1000089d4: 66 2e 0f 1f 84 00 00 00 00 00       	nopw	%cs:(%rax,%rax)
1000089de: 66 90                       	nop

00000001000089e0 _check_pipe_parsing:
1000089e0: 55                          	pushq	%rbp
1000089e1: 48 89 e5                    	movq	%rsp, %rbp
1000089e4: 48 83 ec 20                 	subq	$32, %rsp
1000089e8: 48 89 7d f0                 	movq	%rdi, -16(%rbp)
1000089ec: 48 8b 45 f0                 	movq	-16(%rbp), %rax
1000089f0: 48 83 78 08 00              	cmpq	$0, 8(%rax)
1000089f5: 0f 84 0f 00 00 00           	je	15 <_check_pipe_parsing+0x2a>
1000089fb: 48 8b 45 f0                 	movq	-16(%rbp), %rax
1000089ff: 48 83 78 10 00              	cmpq	$0, 16(%rax)
100008a04: 0f 85 0c 00 00 00           	jne	12 <_check_pipe_parsing+0x36>
100008a0a: c7 45 fc 00 00 00 00        	movl	$0, -4(%rbp)
100008a11: e9 25 00 00 00              	jmp	37 <_check_pipe_parsing+0x5b>
100008a16: 48 8b 45 f0                 	movq	-16(%rbp), %rax
100008a1a: 48 8b 78 08                 	movq	8(%rax), %rdi
100008a1e: e8 8d fe ff ff              	callq	-371 <_check_parsing>
100008a23: 48 8b 4d f0                 	movq	-16(%rbp), %rcx
100008a27: 48 8b 79 10                 	movq	16(%rcx), %rdi
100008a2b: 89 45 ec                    	movl	%eax, -20(%rbp)
100008a2e: e8 7d fe ff ff              	callq	-387 <_check_parsing>
100008a33: 8b 55 ec                    	movl	-20(%rbp), %edx
100008a36: 21 c2                       	andl	%eax, %edx
100008a38: 89 55 fc                    	movl	%edx, -4(%rbp)
100008a3b: 8b 45 fc                    	movl	-4(%rbp), %eax
100008a3e: 48 83 c4 20                 	addq	$32, %rsp
100008a42: 5d                          	popq	%rbp
100008a43: c3                          	retq
100008a44: 66 2e 0f 1f 84 00 00 00 00 00       	nopw	%cs:(%rax,%rax)
100008a4e: 66 90                       	nop

0000000100008a50 _check_redir_parsing:
100008a50: 55                          	pushq	%rbp
100008a51: 48 89 e5                    	movq	%rsp, %rbp
100008a54: 48 83 ec 30                 	subq	$48, %rsp
100008a58: 48 89 7d f0                 	movq	%rdi, -16(%rbp)
100008a5c: 48 8b 45 f0                 	movq	-16(%rbp), %rax
100008a60: 48 83 78 20 00              	cmpq	$0, 32(%rax)
100008a65: 0f 84 c4 00 00 00           	je	196 <_check_redir_parsing+0xdf>
100008a6b: 48 8b 45 f0                 	movq	-16(%rbp), %rax
100008a6f: 48 8b 40 20                 	movq	32(%rax), %rax
100008a73: 83 38 08                    	cmpl	$8, (%rax)
100008a76: 0f 85 b3 00 00 00           	jne	179 <_check_redir_parsing+0xdf>
100008a7c: 48 8b 45 f0                 	movq	-16(%rbp), %rax
100008a80: 48 8b 78 10                 	movq	16(%rax), %rdi
100008a84: e8 a7 44 00 00              	callq	17575 <_arguments_to_str>
100008a89: 48 89 45 e8                 	movq	%rax, -24(%rbp)
100008a8d: 48 8d 3d e1 72 00 00        	leaq	29409(%rip), %rdi
100008a94: e8 cb 6a 00 00              	callq	27339 <dyld_stub_binder+0x10000f564>
100008a99: 48 89 45 e0                 	movq	%rax, -32(%rbp)
100008a9d: 48 83 7d e0 00              	cmpq	$0, -32(%rbp)
100008aa2: 0f 85 05 00 00 00           	jne	5 <_check_redir_parsing+0x5d>
100008aa8: e9 51 00 00 00              	jmp	81 <_check_redir_parsing+0xae>
100008aad: 48 8b 7d e0                 	movq	-32(%rbp), %rdi
100008ab1: 48 8b 75 e8                 	movq	-24(%rbp), %rsi
100008ab5: 48 8b 45 e8                 	movq	-24(%rbp), %rax
100008ab9: 48 89 7d d8                 	movq	%rdi, -40(%rbp)
100008abd: 48 89 c7                    	movq	%rax, %rdi
100008ac0: 48 89 75 d0                 	movq	%rsi, -48(%rbp)
100008ac4: e8 17 61 00 00              	callq	24855 <_ft_strlen>
100008ac9: 48 8b 7d d8                 	movq	-40(%rbp), %rdi
100008acd: 48 8b 75 d0                 	movq	-48(%rbp), %rsi
100008ad1: 48 89 c2                    	movq	%rax, %rdx
100008ad4: e8 9d 6a 00 00              	callq	27293 <dyld_stub_binder+0x10000f576>
100008ad9: 83 f8 00                    	cmpl	$0, %eax
100008adc: 0f 85 0e 00 00 00           	jne	14 <_check_redir_parsing+0xa0>
100008ae2: 48 8b 7d e0                 	movq	-32(%rbp), %rdi
100008ae6: e8 31 6a 00 00              	callq	27185 <dyld_stub_binder+0x10000f51c>
100008aeb: e9 0e 00 00 00              	jmp	14 <_check_redir_parsing+0xae>
100008af0: 48 8b 7d e0                 	movq	-32(%rbp), %rdi
100008af4: e8 23 6a 00 00              	callq	27171 <dyld_stub_binder+0x10000f51c>
100008af9: e9 8f ff ff ff              	jmp	-113 <_check_redir_parsing+0x3d>
100008afe: 31 c0                       	xorl	%eax, %eax
100008b00: 89 c6                       	movl	%eax, %esi
100008b02: 48 8b 4d f0                 	movq	-16(%rbp), %rcx
100008b06: 48 8b 49 20                 	movq	32(%rcx), %rcx
100008b0a: 48 8b 51 08                 	movq	8(%rcx), %rdx
100008b0e: 48 8d 3d 6a 72 00 00        	leaq	29290(%rip), %rdi
100008b15: e8 26 25 00 00              	callq	9510 <_pr_custom_err>
100008b1a: 48 8b 7d e8                 	movq	-24(%rbp), %rdi
100008b1e: e8 f9 69 00 00              	callq	27129 <dyld_stub_binder+0x10000f51c>
100008b23: c7 45 fc 00 00 00 00        	movl	$0, -4(%rbp)
100008b2a: e9 07 00 00 00              	jmp	7 <_check_redir_parsing+0xe6>
100008b2f: c7 45 fc 01 00 00 00        	movl	$1, -4(%rbp)
100008b36: 8b 45 fc                    	movl	-4(%rbp), %eax
100008b39: 48 83 c4 30                 	addq	$48, %rsp
100008b3d: 5d                          	popq	%rbp
100008b3e: c3                          	retq
100008b3f: 90                          	nop

0000000100008b40 _print_arguments:
100008b40: 55                          	pushq	%rbp
100008b41: 48 89 e5                    	movq	%rsp, %rbp
100008b44: 48 83 ec 10                 	subq	$16, %rsp
100008b48: 48 89 7d f8                 	movq	%rdi, -8(%rbp)
100008b4c: 48 8d 3d 5d 72 00 00        	leaq	29277(%rip), %rdi
100008b53: b0 00                       	movb	$0, %al
100008b55: e8 f8 69 00 00              	callq	27128 <dyld_stub_binder+0x10000f552>
100008b5a: 48 83 7d f8 00              	cmpq	$0, -8(%rbp)
100008b5f: 0f 84 cc 00 00 00           	je	204 <_print_arguments+0xf1>
100008b65: 48 8b 45 f8                 	movq	-8(%rbp), %rax
100008b69: 8a 48 08                    	movb	8(%rax), %cl
100008b6c: 80 e1 0f                    	andb	$15, %cl
100008b6f: 0f b6 d1                    	movzbl	%cl, %edx
100008b72: 0f b7 f2                    	movzwl	%dx, %esi
100008b75: 83 fe 02                    	cmpl	$2, %esi
100008b78: 0f 84 19 00 00 00           	je	25 <_print_arguments+0x57>
100008b7e: 48 8b 45 f8                 	movq	-8(%rbp), %rax
100008b82: 8a 48 08                    	movb	8(%rax), %cl
100008b85: 80 e1 0f                    	andb	$15, %cl
100008b88: 0f b6 d1                    	movzbl	%cl, %edx
100008b8b: 0f b7 f2                    	movzwl	%dx, %esi
100008b8e: 83 fe 04                    	cmpl	$4, %esi
100008b91: 0f 85 2a 00 00 00           	jne	42 <_print_arguments+0x81>
100008b97: 48 8b 45 f8                 	movq	-8(%rbp), %rax
100008b9b: 8a 48 08                    	movb	8(%rax), %cl
100008b9e: 80 e1 0f                    	andb	$15, %cl
100008ba1: 0f b6 d1                    	movzbl	%cl, %edx
100008ba4: 0f b7 f2                    	movzwl	%dx, %esi
100008ba7: 48 8b 45 f8                 	movq	-8(%rbp), %rax
100008bab: 48 8b 10                    	movq	(%rax), %rdx
100008bae: 48 8d 3d 39 72 00 00        	leaq	29241(%rip), %rdi
100008bb5: b0 00                       	movb	$0, %al
100008bb7: e8 96 69 00 00              	callq	27030 <dyld_stub_binder+0x10000f552>
100008bbc: e9 5f 00 00 00              	jmp	95 <_print_arguments+0xe0>
100008bc1: e9 00 00 00 00              	jmp	0 <_print_arguments+0x86>
100008bc6: 48 8b 45 f8                 	movq	-8(%rbp), %rax
100008bca: 48 83 78 10 00              	cmpq	$0, 16(%rax)
100008bcf: 0f 84 46 00 00 00           	je	70 <_print_arguments+0xdb>
100008bd5: 48 8b 45 f8                 	movq	-8(%rbp), %rax
100008bd9: 48 8b 40 10                 	movq	16(%rax), %rax
100008bdd: 8a 48 08                    	movb	8(%rax), %cl
100008be0: 80 e1 0f                    	andb	$15, %cl
100008be3: 0f b6 d1                    	movzbl	%cl, %edx
100008be6: 0f b7 f2                    	movzwl	%dx, %esi
100008be9: 48 8b 45 f8                 	movq	-8(%rbp), %rax
100008bed: 48 8b 40 10                 	movq	16(%rax), %rax
100008bf1: 48 8b 10                    	movq	(%rax), %rdx
100008bf4: 48 8d 3d fb 71 00 00        	leaq	29179(%rip), %rdi
100008bfb: b0 00                       	movb	$0, %al
100008bfd: e8 50 69 00 00              	callq	26960 <dyld_stub_binder+0x10000f552>
100008c02: 48 8b 55 f8                 	movq	-8(%rbp), %rdx
100008c06: 48 8b 52 10                 	movq	16(%rdx), %rdx
100008c0a: 48 8b 52 18                 	movq	24(%rdx), %rdx
100008c0e: 48 8b 7d f8                 	movq	-8(%rbp), %rdi
100008c12: 48 89 57 10                 	movq	%rdx, 16(%rdi)
100008c16: e9 ab ff ff ff              	jmp	-85 <_print_arguments+0x86>
100008c1b: e9 00 00 00 00              	jmp	0 <_print_arguments+0xe0>
100008c20: 48 8b 45 f8                 	movq	-8(%rbp), %rax
100008c24: 48 8b 40 18                 	movq	24(%rax), %rax
100008c28: 48 89 45 f8                 	movq	%rax, -8(%rbp)
100008c2c: e9 29 ff ff ff              	jmp	-215 <_print_arguments+0x1a>
100008c31: 48 8d 3d c6 71 00 00        	leaq	29126(%rip), %rdi
100008c38: b0 00                       	movb	$0, %al
100008c3a: e8 13 69 00 00              	callq	26899 <dyld_stub_binder+0x10000f552>
100008c3f: 48 83 c4 10                 	addq	$16, %rsp
100008c43: 5d                          	popq	%rbp
100008c44: c3                          	retq
100008c45: 66 2e 0f 1f 84 00 00 00 00 00       	nopw	%cs:(%rax,%rax)
100008c4f: 90                          	nop

0000000100008c50 _print_cmd:
100008c50: 55                          	pushq	%rbp
100008c51: 48 89 e5                    	movq	%rsp, %rbp
100008c54: 48 83 ec 20                 	subq	$32, %rsp
100008c58: 48 89 7d f8                 	movq	%rdi, -8(%rbp)
100008c5c: 48 8b 45 f8                 	movq	-8(%rbp), %rax
100008c60: 48 89 45 f0                 	movq	%rax, -16(%rbp)
100008c64: 48 8d 3d d2 71 00 00        	leaq	29138(%rip), %rdi
100008c6b: b0 00                       	movb	$0, %al
100008c6d: e8 e0 68 00 00              	callq	26848 <dyld_stub_binder+0x10000f552>
100008c72: 48 83 7d f0 00              	cmpq	$0, -16(%rbp)
100008c77: 0f 85 05 00 00 00           	jne	5 <_print_cmd+0x32>
100008c7d: e9 4a 00 00 00              	jmp	74 <_print_cmd+0x7c>
100008c82: 48 8b 45 f0                 	movq	-16(%rbp), %rax
100008c86: 48 8b 78 08                 	movq	8(%rax), %rdi
100008c8a: e8 b1 fe ff ff              	callq	-335 <_print_arguments>
100008c8f: 48 8d 3d bf 71 00 00        	leaq	29119(%rip), %rdi
100008c96: b0 00                       	movb	$0, %al
100008c98: e8 b5 68 00 00              	callq	26805 <dyld_stub_binder+0x10000f552>
100008c9d: 48 8d 3d cd 71 00 00        	leaq	29133(%rip), %rdi
100008ca4: 89 45 ec                    	movl	%eax, -20(%rbp)
100008ca7: b0 00                       	movb	$0, %al
100008ca9: e8 a4 68 00 00              	callq	26788 <dyld_stub_binder+0x10000f552>
100008cae: 48 8b 4d f0                 	movq	-16(%rbp), %rcx
100008cb2: 48 8b 79 10                 	movq	16(%rcx), %rdi
100008cb6: 89 45 e8                    	movl	%eax, -24(%rbp)
100008cb9: e8 82 fe ff ff              	callq	-382 <_print_arguments>
100008cbe: 48 8d 3d 90 71 00 00        	leaq	29072(%rip), %rdi
100008cc5: b0 00                       	movb	$0, %al
100008cc7: e8 86 68 00 00              	callq	26758 <dyld_stub_binder+0x10000f552>
100008ccc: 48 83 c4 20                 	addq	$32, %rsp
100008cd0: 5d                          	popq	%rbp
100008cd1: c3                          	retq
100008cd2: 66 2e 0f 1f 84 00 00 00 00 00       	nopw	%cs:(%rax,%rax)
100008cdc: 0f 1f 40 00                 	nopl	(%rax)

0000000100008ce0 _controll_line:
100008ce0: 55                          	pushq	%rbp
100008ce1: 48 89 e5                    	movq	%rsp, %rbp
100008ce4: 48 83 ec 20                 	subq	$32, %rsp
100008ce8: 48 89 7d f8                 	movq	%rdi, -8(%rbp)
100008cec: 48 c7 45 f0 00 00 00 00     	movq	$0, -16(%rbp)
100008cf4: 48 8b 7d f8                 	movq	-8(%rbp), %rdi
100008cf8: e8 f3 f3 ff ff              	callq	-3085 <_complete_line>
100008cfd: 48 83 7d f8 00              	cmpq	$0, -8(%rbp)
100008d02: 0f 84 1e 00 00 00           	je	30 <_controll_line+0x46>
100008d08: 48 8b 45 f8                 	movq	-8(%rbp), %rax
100008d0c: 48 83 38 00                 	cmpq	$0, (%rax)
100008d10: 0f 84 10 00 00 00           	je	16 <_controll_line+0x46>
100008d16: 48 8b 45 f8                 	movq	-8(%rbp), %rax
100008d1a: 48 8b 38                    	movq	(%rax), %rdi
100008d1d: e8 fe 26 00 00              	callq	9982 <_parse_line>
100008d22: 48 89 45 f0                 	movq	%rax, -16(%rbp)
100008d26: 48 8b 45 f8                 	movq	-8(%rbp), %rax
100008d2a: 48 8b 30                    	movq	(%rax), %rsi
100008d2d: 48 8d 3d 59 71 00 00        	leaq	29017(%rip), %rdi
100008d34: b0 00                       	movb	$0, %al
100008d36: e8 17 68 00 00              	callq	26647 <dyld_stub_binder+0x10000f552>
100008d3b: 48 8b 75 f8                 	movq	-8(%rbp), %rsi
100008d3f: 48 8d 3d 47 71 00 00        	leaq	28999(%rip), %rdi
100008d46: 89 45 ec                    	movl	%eax, -20(%rbp)
100008d49: b0 00                       	movb	$0, %al
100008d4b: e8 02 68 00 00              	callq	26626 <dyld_stub_binder+0x10000f552>
100008d50: 48 83 7d f0 00              	cmpq	$0, -16(%rbp)
100008d55: 0f 84 09 00 00 00           	je	9 <_controll_line+0x84>
100008d5b: 48 8b 7d f0                 	movq	-16(%rbp), %rdi
100008d5f: e8 0c b5 ff ff              	callq	-19188 <_free_line>
100008d64: 48 83 c4 20                 	addq	$32, %rsp
100008d68: 5d                          	popq	%rbp
100008d69: c3                          	retq
100008d6a: 90                          	nop
100008d6b: 90                          	nop
100008d6c: 90                          	nop
100008d6d: 90                          	nop
100008d6e: 90                          	nop
100008d6f: 90                          	nop

0000000100008d70 _ft_chrpos:
100008d70: 55                          	pushq	%rbp
100008d71: 48 89 e5                    	movq	%rsp, %rbp
100008d74: 48 89 7d f0                 	movq	%rdi, -16(%rbp)
100008d78: 40 88 75 ef                 	movb	%sil, -17(%rbp)
100008d7c: c7 45 e8 00 00 00 00        	movl	$0, -24(%rbp)
100008d83: 48 83 7d f0 00              	cmpq	$0, -16(%rbp)
100008d88: 0f 85 0c 00 00 00           	jne	12 <_ft_chrpos+0x2a>
100008d8e: c7 45 fc ff ff ff ff        	movl	$4294967295, -4(%rbp)
100008d95: e9 81 00 00 00              	jmp	129 <_ft_chrpos+0xab>
100008d9a: e9 00 00 00 00              	jmp	0 <_ft_chrpos+0x2f>
100008d9f: 31 c0                       	xorl	%eax, %eax
100008da1: 48 8b 4d f0                 	movq	-16(%rbp), %rcx
100008da5: 48 63 55 e8                 	movslq	-24(%rbp), %rdx
100008da9: 0f be 34 11                 	movsbl	(%rcx,%rdx), %esi
100008dad: 83 fe 00                    	cmpl	$0, %esi
100008db0: 88 45 e7                    	movb	%al, -25(%rbp)
100008db3: 0f 84 1a 00 00 00           	je	26 <_ft_chrpos+0x63>
100008db9: 48 8b 45 f0                 	movq	-16(%rbp), %rax
100008dbd: 48 63 4d e8                 	movslq	-24(%rbp), %rcx
100008dc1: 0f be 14 08                 	movsbl	(%rax,%rcx), %edx
100008dc5: 0f be 75 ef                 	movsbl	-17(%rbp), %esi
100008dc9: 39 f2                       	cmpl	%esi, %edx
100008dcb: 40 0f 95 c7                 	setne	%dil
100008dcf: 40 88 7d e7                 	movb	%dil, -25(%rbp)
100008dd3: 8a 45 e7                    	movb	-25(%rbp), %al
100008dd6: a8 01                       	testb	$1, %al
100008dd8: 0f 85 05 00 00 00           	jne	5 <_ft_chrpos+0x73>
100008dde: e9 0e 00 00 00              	jmp	14 <_ft_chrpos+0x81>
100008de3: 8b 45 e8                    	movl	-24(%rbp), %eax
100008de6: 83 c0 01                    	addl	$1, %eax
100008de9: 89 45 e8                    	movl	%eax, -24(%rbp)
100008dec: e9 ae ff ff ff              	jmp	-82 <_ft_chrpos+0x2f>
100008df1: 48 8b 45 f0                 	movq	-16(%rbp), %rax
100008df5: 48 63 4d e8                 	movslq	-24(%rbp), %rcx
100008df9: 0f be 14 08                 	movsbl	(%rax,%rcx), %edx
100008dfd: 0f be 75 ef                 	movsbl	-17(%rbp), %esi
100008e01: 39 f2                       	cmpl	%esi, %edx
100008e03: 0f 85 0b 00 00 00           	jne	11 <_ft_chrpos+0xa4>
100008e09: 8b 45 e8                    	movl	-24(%rbp), %eax
100008e0c: 89 45 fc                    	movl	%eax, -4(%rbp)
100008e0f: e9 07 00 00 00              	jmp	7 <_ft_chrpos+0xab>
100008e14: c7 45 fc ff ff ff ff        	movl	$4294967295, -4(%rbp)
100008e1b: 8b 45 fc                    	movl	-4(%rbp), %eax
100008e1e: 5d                          	popq	%rbp
100008e1f: c3                          	retq

0000000100008e20 _ft_isvariable:
100008e20: 55                          	pushq	%rbp
100008e21: 48 89 e5                    	movq	%rsp, %rbp
100008e24: 48 83 ec 10                 	subq	$16, %rsp
100008e28: 40 88 7d ff                 	movb	%dil, -1(%rbp)
100008e2c: 0f be 7d ff                 	movsbl	-1(%rbp), %edi
100008e30: e8 8b 59 00 00              	callq	22923 <_ft_isalnum>
100008e35: 83 f8 00                    	cmpl	$0, %eax
100008e38: b1 01                       	movb	$1, %cl
100008e3a: 88 4d fe                    	movb	%cl, -2(%rbp)
100008e3d: 0f 85 0d 00 00 00           	jne	13 <_ft_isvariable+0x30>
100008e43: 0f be 45 ff                 	movsbl	-1(%rbp), %eax
100008e47: 83 f8 5f                    	cmpl	$95, %eax
100008e4a: 0f 94 c1                    	sete	%cl
100008e4d: 88 4d fe                    	movb	%cl, -2(%rbp)
100008e50: 8a 45 fe                    	movb	-2(%rbp), %al
100008e53: 24 01                       	andb	$1, %al
100008e55: 0f b6 c0                    	movzbl	%al, %eax
100008e58: 48 83 c4 10                 	addq	$16, %rsp
100008e5c: 5d                          	popq	%rbp
100008e5d: c3                          	retq
100008e5e: 66 90                       	nop

0000000100008e60 _ft_strjoin_free:
100008e60: 55                          	pushq	%rbp
100008e61: 48 89 e5                    	movq	%rsp, %rbp
100008e64: 48 83 ec 40                 	subq	$64, %rsp
100008e68: 48 89 7d f0                 	movq	%rdi, -16(%rbp)
100008e6c: 48 89 75 e8                 	movq	%rsi, -24(%rbp)
100008e70: 48 8b 7d f0                 	movq	-16(%rbp), %rdi
100008e74: e8 67 5d 00 00              	callq	23911 <_ft_strlen>
100008e79: 48 89 45 d8                 	movq	%rax, -40(%rbp)
100008e7d: 48 8b 7d e8                 	movq	-24(%rbp), %rdi
100008e81: e8 5a 5d 00 00              	callq	23898 <_ft_strlen>
100008e86: 48 89 45 d0                 	movq	%rax, -48(%rbp)
100008e8a: 48 8b 45 d8                 	movq	-40(%rbp), %rax
100008e8e: 48 03 45 d0                 	addq	-48(%rbp), %rax
100008e92: 48 05 01 00 00 00           	addq	$1, %rax
100008e98: 48 89 c7                    	movq	%rax, %rdi
100008e9b: be 01 00 00 00              	movl	$1, %esi
100008ea0: e8 cb 58 00 00              	callq	22731 <_ft_calloc>
100008ea5: 48 89 45 e0                 	movq	%rax, -32(%rbp)
100008ea9: 48 83 7d e0 00              	cmpq	$0, -32(%rbp)
100008eae: 0f 85 0d 00 00 00           	jne	13 <_ft_strjoin_free+0x61>
100008eb4: 48 c7 45 f8 00 00 00 00     	movq	$0, -8(%rbp)
100008ebc: e9 4b 00 00 00              	jmp	75 <_ft_strjoin_free+0xac>
100008ec1: 48 8b 7d e0                 	movq	-32(%rbp), %rdi
100008ec5: 48 8b 75 f0                 	movq	-16(%rbp), %rsi
100008ec9: 48 8b 55 d8                 	movq	-40(%rbp), %rdx
100008ecd: e8 fe 5a 00 00              	callq	23294 <_ft_memcpy>
100008ed2: 48 8b 4d e0                 	movq	-32(%rbp), %rcx
100008ed6: 48 03 4d d8                 	addq	-40(%rbp), %rcx
100008eda: 48 8b 75 e8                 	movq	-24(%rbp), %rsi
100008ede: 48 8b 55 d0                 	movq	-48(%rbp), %rdx
100008ee2: 48 89 cf                    	movq	%rcx, %rdi
100008ee5: 48 89 45 c8                 	movq	%rax, -56(%rbp)
100008ee9: e8 e2 5a 00 00              	callq	23266 <_ft_memcpy>
100008eee: 48 8b 7d f0                 	movq	-16(%rbp), %rdi
100008ef2: 48 89 45 c0                 	movq	%rax, -64(%rbp)
100008ef6: e8 21 66 00 00              	callq	26145 <dyld_stub_binder+0x10000f51c>
100008efb: 48 8b 7d e8                 	movq	-24(%rbp), %rdi
100008eff: e8 18 66 00 00              	callq	26136 <dyld_stub_binder+0x10000f51c>
100008f04: 48 8b 45 e0                 	movq	-32(%rbp), %rax
100008f08: 48 89 45 f8                 	movq	%rax, -8(%rbp)
100008f0c: 48 8b 45 f8                 	movq	-8(%rbp), %rax
100008f10: 48 83 c4 40                 	addq	$64, %rsp
100008f14: 5d                          	popq	%rbp
100008f15: c3                          	retq
100008f16: 66 2e 0f 1f 84 00 00 00 00 00       	nopw	%cs:(%rax,%rax)

0000000100008f20 _ft_double_strlen:
100008f20: 55                          	pushq	%rbp
100008f21: 48 89 e5                    	movq	%rsp, %rbp
100008f24: 48 89 7d f0                 	movq	%rdi, -16(%rbp)
100008f28: c7 45 ec 00 00 00 00        	movl	$0, -20(%rbp)
100008f2f: 48 83 7d f0 00              	cmpq	$0, -16(%rbp)
100008f34: 0f 85 0d 00 00 00           	jne	13 <_ft_double_strlen+0x27>
100008f3a: 48 c7 45 f8 00 00 00 00     	movq	$0, -8(%rbp)
100008f42: e9 2e 00 00 00              	jmp	46 <_ft_double_strlen+0x55>
100008f47: e9 00 00 00 00              	jmp	0 <_ft_double_strlen+0x2c>
100008f4c: 48 8b 45 f0                 	movq	-16(%rbp), %rax
100008f50: 48 63 4d ec                 	movslq	-20(%rbp), %rcx
100008f54: 48 83 3c c8 00              	cmpq	$0, (%rax,%rcx,8)
100008f59: 0f 84 0e 00 00 00           	je	14 <_ft_double_strlen+0x4d>
100008f5f: 8b 45 ec                    	movl	-20(%rbp), %eax
100008f62: 83 c0 01                    	addl	$1, %eax
100008f65: 89 45 ec                    	movl	%eax, -20(%rbp)
100008f68: e9 df ff ff ff              	jmp	-33 <_ft_double_strlen+0x2c>
100008f6d: 48 63 45 ec                 	movslq	-20(%rbp), %rax
100008f71: 48 89 45 f8                 	movq	%rax, -8(%rbp)
100008f75: 48 8b 45 f8                 	movq	-8(%rbp), %rax
100008f79: 5d                          	popq	%rbp
100008f7a: c3                          	retq
100008f7b: 0f 1f 44 00 00              	nopl	(%rax,%rax)

0000000100008f80 _ft_joindstrs:
100008f80: 55                          	pushq	%rbp
100008f81: 48 89 e5                    	movq	%rsp, %rbp
100008f84: 48 83 ec 30                 	subq	$48, %rsp
100008f88: 48 89 7d f0                 	movq	%rdi, -16(%rbp)
100008f8c: 48 89 75 e8                 	movq	%rsi, -24(%rbp)
100008f90: 48 8b 7d f0                 	movq	-16(%rbp), %rdi
100008f94: e8 87 ff ff ff              	callq	-121 <_ft_double_strlen>
100008f99: 89 45 dc                    	movl	%eax, -36(%rbp)
100008f9c: 48 8b 7d e8                 	movq	-24(%rbp), %rdi
100008fa0: e8 7b ff ff ff              	callq	-133 <_ft_double_strlen>
100008fa5: 89 45 d8                    	movl	%eax, -40(%rbp)
100008fa8: c7 45 d4 ff ff ff ff        	movl	$4294967295, -44(%rbp)
100008faf: c7 45 d0 00 00 00 00        	movl	$0, -48(%rbp)
100008fb6: 8b 45 dc                    	movl	-36(%rbp), %eax
100008fb9: 03 45 d8                    	addl	-40(%rbp), %eax
100008fbc: 83 c0 01                    	addl	$1, %eax
100008fbf: 48 63 c8                    	movslq	%eax, %rcx
100008fc2: 48 c1 e1 03                 	shlq	$3, %rcx
100008fc6: 48 89 cf                    	movq	%rcx, %rdi
100008fc9: e8 66 65 00 00              	callq	25958 <dyld_stub_binder+0x10000f534>
100008fce: 48 89 45 e0                 	movq	%rax, -32(%rbp)
100008fd2: 48 83 7d e0 00              	cmpq	$0, -32(%rbp)
100008fd7: 0f 85 0d 00 00 00           	jne	13 <_ft_joindstrs+0x6a>
100008fdd: 48 c7 45 f8 00 00 00 00     	movq	$0, -8(%rbp)
100008fe5: e9 b6 00 00 00              	jmp	182 <_ft_joindstrs+0x120>
100008fea: e9 00 00 00 00              	jmp	0 <_ft_joindstrs+0x6f>
100008fef: 48 8b 45 f0                 	movq	-16(%rbp), %rax
100008ff3: 8b 4d d4                    	movl	-44(%rbp), %ecx
100008ff6: 83 c1 01                    	addl	$1, %ecx
100008ff9: 89 4d d4                    	movl	%ecx, -44(%rbp)
100008ffc: 48 63 d1                    	movslq	%ecx, %rdx
100008fff: 48 83 3c d0 00              	cmpq	$0, (%rax,%rdx,8)
100009004: 0f 84 1d 00 00 00           	je	29 <_ft_joindstrs+0xa7>
10000900a: 48 8b 45 f0                 	movq	-16(%rbp), %rax
10000900e: 48 63 4d d4                 	movslq	-44(%rbp), %rcx
100009012: 48 8b 04 c8                 	movq	(%rax,%rcx,8), %rax
100009016: 48 8b 4d e0                 	movq	-32(%rbp), %rcx
10000901a: 48 63 55 d4                 	movslq	-44(%rbp), %rdx
10000901e: 48 89 04 d1                 	movq	%rax, (%rcx,%rdx,8)
100009022: e9 c8 ff ff ff              	jmp	-56 <_ft_joindstrs+0x6f>
100009027: e9 00 00 00 00              	jmp	0 <_ft_joindstrs+0xac>
10000902c: 48 8b 45 e8                 	movq	-24(%rbp), %rax
100009030: 48 63 4d d0                 	movslq	-48(%rbp), %rcx
100009034: 48 83 3c c8 00              	cmpq	$0, (%rax,%rcx,8)
100009039: 0f 84 31 00 00 00           	je	49 <_ft_joindstrs+0xf0>
10000903f: 48 8b 45 e8                 	movq	-24(%rbp), %rax
100009043: 8b 4d d0                    	movl	-48(%rbp), %ecx
100009046: 89 ca                       	movl	%ecx, %edx
100009048: 83 c2 01                    	addl	$1, %edx
10000904b: 89 55 d0                    	movl	%edx, -48(%rbp)
10000904e: 48 63 f1                    	movslq	%ecx, %rsi
100009051: 48 8b 04 f0                 	movq	(%rax,%rsi,8), %rax
100009055: 48 8b 75 e0                 	movq	-32(%rbp), %rsi
100009059: 8b 4d d4                    	movl	-44(%rbp), %ecx
10000905c: 89 ca                       	movl	%ecx, %edx
10000905e: 83 c2 01                    	addl	$1, %edx
100009061: 89 55 d4                    	movl	%edx, -44(%rbp)
100009064: 48 63 f9                    	movslq	%ecx, %rdi
100009067: 48 89 04 fe                 	movq	%rax, (%rsi,%rdi,8)
10000906b: e9 bc ff ff ff              	jmp	-68 <_ft_joindstrs+0xac>
100009070: 48 8b 45 e0                 	movq	-32(%rbp), %rax
100009074: 48 63 4d d4                 	movslq	-44(%rbp), %rcx
100009078: 48 c7 04 c8 00 00 00 00     	movq	$0, (%rax,%rcx,8)
100009080: 48 8b 45 f0                 	movq	-16(%rbp), %rax
100009084: 48 89 c7                    	movq	%rax, %rdi
100009087: e8 90 64 00 00              	callq	25744 <dyld_stub_binder+0x10000f51c>
10000908c: 48 8b 45 e8                 	movq	-24(%rbp), %rax
100009090: 48 89 c7                    	movq	%rax, %rdi
100009093: e8 84 64 00 00              	callq	25732 <dyld_stub_binder+0x10000f51c>
100009098: 48 8b 45 e0                 	movq	-32(%rbp), %rax
10000909c: 48 89 45 f8                 	movq	%rax, -8(%rbp)
1000090a0: 48 8b 45 f8                 	movq	-8(%rbp), %rax
1000090a4: 48 83 c4 30                 	addq	$48, %rsp
1000090a8: 5d                          	popq	%rbp
1000090a9: c3                          	retq
1000090aa: 90                          	nop
1000090ab: 90                          	nop
1000090ac: 90                          	nop
1000090ad: 90                          	nop
1000090ae: 90                          	nop
1000090af: 90                          	nop

00000001000090b0 _ft_split_char:
1000090b0: 55                          	pushq	%rbp
1000090b1: 48 89 e5                    	movq	%rsp, %rbp
1000090b4: 48 83 ec 30                 	subq	$48, %rsp
1000090b8: 48 89 7d f0                 	movq	%rdi, -16(%rbp)
1000090bc: 40 88 75 ef                 	movb	%sil, -17(%rbp)
1000090c0: 48 83 7d f0 00              	cmpq	$0, -16(%rbp)
1000090c5: 0f 85 0d 00 00 00           	jne	13 <_ft_split_char+0x28>
1000090cb: 48 c7 45 f8 00 00 00 00     	movq	$0, -8(%rbp)
1000090d3: e9 21 01 00 00              	jmp	289 <_ft_split_char+0x149>
1000090d8: c7 45 d8 00 00 00 00        	movl	$0, -40(%rbp)
1000090df: 48 8b 7d f0                 	movq	-16(%rbp), %rdi
1000090e3: 0f be 75 ef                 	movsbl	-17(%rbp), %esi
1000090e7: e8 24 01 00 00              	callq	292 <_word_count>
1000090ec: 89 45 dc                    	movl	%eax, -36(%rbp)
1000090ef: 8b 45 dc                    	movl	-36(%rbp), %eax
1000090f2: 83 c0 01                    	addl	$1, %eax
1000090f5: 48 63 c8                    	movslq	%eax, %rcx
1000090f8: 48 c1 e1 03                 	shlq	$3, %rcx
1000090fc: 48 89 cf                    	movq	%rcx, %rdi
1000090ff: e8 30 64 00 00              	callq	25648 <dyld_stub_binder+0x10000f534>
100009104: 48 89 45 e0                 	movq	%rax, -32(%rbp)
100009108: 8b 45 d8                    	movl	-40(%rbp), %eax
10000910b: 3b 45 dc                    	cmpl	-36(%rbp), %eax
10000910e: 0f 8d cd 00 00 00           	jge	205 <_ft_split_char+0x131>
100009114: c7 45 d4 00 00 00 00        	movl	$0, -44(%rbp)
10000911b: 48 8b 45 f0                 	movq	-16(%rbp), %rax
10000911f: 0f be 08                    	movsbl	(%rax), %ecx
100009122: 0f be 55 ef                 	movsbl	-17(%rbp), %edx
100009126: 39 d1                       	cmpl	%edx, %ecx
100009128: 0f 85 13 00 00 00           	jne	19 <_ft_split_char+0x91>
10000912e: 48 8b 45 f0                 	movq	-16(%rbp), %rax
100009132: 48 05 01 00 00 00           	addq	$1, %rax
100009138: 48 89 45 f0                 	movq	%rax, -16(%rbp)
10000913c: e9 da ff ff ff              	jmp	-38 <_ft_split_char+0x6b>
100009141: e9 00 00 00 00              	jmp	0 <_ft_split_char+0x96>
100009146: 31 c0                       	xorl	%eax, %eax
100009148: 48 8b 4d f0                 	movq	-16(%rbp), %rcx
10000914c: 48 63 55 d4                 	movslq	-44(%rbp), %rdx
100009150: 0f be 34 11                 	movsbl	(%rcx,%rdx), %esi
100009154: 0f be 7d ef                 	movsbl	-17(%rbp), %edi
100009158: 39 fe                       	cmpl	%edi, %esi
10000915a: 88 45 d3                    	movb	%al, -45(%rbp)
10000915d: 0f 84 17 00 00 00           	je	23 <_ft_split_char+0xca>
100009163: 48 8b 45 f0                 	movq	-16(%rbp), %rax
100009167: 48 63 4d d4                 	movslq	-44(%rbp), %rcx
10000916b: 0f be 14 08                 	movsbl	(%rax,%rcx), %edx
10000916f: 83 fa 00                    	cmpl	$0, %edx
100009172: 40 0f 95 c6                 	setne	%sil
100009176: 40 88 75 d3                 	movb	%sil, -45(%rbp)
10000917a: 8a 45 d3                    	movb	-45(%rbp), %al
10000917d: a8 01                       	testb	$1, %al
10000917f: 0f 85 05 00 00 00           	jne	5 <_ft_split_char+0xda>
100009185: e9 0e 00 00 00              	jmp	14 <_ft_split_char+0xe8>
10000918a: 8b 45 d4                    	movl	-44(%rbp), %eax
10000918d: 83 c0 01                    	addl	$1, %eax
100009190: 89 45 d4                    	movl	%eax, -44(%rbp)
100009193: e9 ae ff ff ff              	jmp	-82 <_ft_split_char+0x96>
100009198: 83 7d d4 00                 	cmpl	$0, -44(%rbp)
10000919c: 0f 85 05 00 00 00           	jne	5 <_ft_split_char+0xf7>
1000091a2: e9 3a 00 00 00              	jmp	58 <_ft_split_char+0x131>
1000091a7: 31 f6                       	xorl	%esi, %esi
1000091a9: 48 8b 7d f0                 	movq	-16(%rbp), %rdi
1000091ad: 48 63 55 d4                 	movslq	-44(%rbp), %rdx
1000091b1: e8 5a 5b 00 00              	callq	23386 <_ft_substr>
1000091b6: 48 8b 4d e0                 	movq	-32(%rbp), %rcx
1000091ba: 48 63 55 d8                 	movslq	-40(%rbp), %rdx
1000091be: 48 89 04 d1                 	movq	%rax, (%rcx,%rdx,8)
1000091c2: 8b 75 d4                    	movl	-44(%rbp), %esi
1000091c5: 48 8b 45 f0                 	movq	-16(%rbp), %rax
1000091c9: 48 63 ce                    	movslq	%esi, %rcx
1000091cc: 48 01 c8                    	addq	%rcx, %rax
1000091cf: 48 89 45 f0                 	movq	%rax, -16(%rbp)
1000091d3: 8b 75 d8                    	movl	-40(%rbp), %esi
1000091d6: 83 c6 01                    	addl	$1, %esi
1000091d9: 89 75 d8                    	movl	%esi, -40(%rbp)
1000091dc: e9 27 ff ff ff              	jmp	-217 <_ft_split_char+0x58>
1000091e1: 48 8b 45 e0                 	movq	-32(%rbp), %rax
1000091e5: 48 63 4d d8                 	movslq	-40(%rbp), %rcx
1000091e9: 48 c7 04 c8 00 00 00 00     	movq	$0, (%rax,%rcx,8)
1000091f1: 48 8b 45 e0                 	movq	-32(%rbp), %rax
1000091f5: 48 89 45 f8                 	movq	%rax, -8(%rbp)
1000091f9: 48 8b 45 f8                 	movq	-8(%rbp), %rax
1000091fd: 48 83 c4 30                 	addq	$48, %rsp
100009201: 5d                          	popq	%rbp
100009202: c3                          	retq
100009203: 66 2e 0f 1f 84 00 00 00 00 00       	nopw	%cs:(%rax,%rax)
10000920d: 0f 1f 00                    	nopl	(%rax)

0000000100009210 _word_count:
100009210: 55                          	pushq	%rbp
100009211: 48 89 e5                    	movq	%rsp, %rbp
100009214: 48 89 7d f8                 	movq	%rdi, -8(%rbp)
100009218: 40 88 75 f7                 	movb	%sil, -9(%rbp)
10000921c: c7 45 f0 00 00 00 00        	movl	$0, -16(%rbp)
100009223: 48 8b 45 f8                 	movq	-8(%rbp), %rax
100009227: 48 89 c1                    	movq	%rax, %rcx
10000922a: 48 81 c1 01 00 00 00        	addq	$1, %rcx
100009231: 48 89 4d f8                 	movq	%rcx, -8(%rbp)
100009235: 80 38 00                    	cmpb	$0, (%rax)
100009238: 0f 84 42 00 00 00           	je	66 <_word_count+0x70>
10000923e: 48 8b 45 f8                 	movq	-8(%rbp), %rax
100009242: 0f be 48 ff                 	movsbl	-1(%rax), %ecx
100009246: 0f be 55 f7                 	movsbl	-9(%rbp), %edx
10000924a: 39 d1                       	cmpl	%edx, %ecx
10000924c: 0f 84 29 00 00 00           	je	41 <_word_count+0x6b>
100009252: 48 8b 45 f8                 	movq	-8(%rbp), %rax
100009256: 0f be 08                    	movsbl	(%rax), %ecx
100009259: 0f be 55 f7                 	movsbl	-9(%rbp), %edx
10000925d: 39 d1                       	cmpl	%edx, %ecx
10000925f: 0f 84 0d 00 00 00           	je	13 <_word_count+0x62>
100009265: 48 8b 45 f8                 	movq	-8(%rbp), %rax
100009269: 80 38 00                    	cmpb	$0, (%rax)
10000926c: 0f 85 09 00 00 00           	jne	9 <_word_count+0x6b>
100009272: 8b 45 f0                    	movl	-16(%rbp), %eax
100009275: 83 c0 01                    	addl	$1, %eax
100009278: 89 45 f0                    	movl	%eax, -16(%rbp)
10000927b: e9 a3 ff ff ff              	jmp	-93 <_word_count+0x13>
100009280: 8b 45 f0                    	movl	-16(%rbp), %eax
100009283: 5d                          	popq	%rbp
100009284: c3                          	retq
100009285: 90                          	nop
100009286: 90                          	nop
100009287: 90                          	nop
100009288: 90                          	nop
100009289: 90                          	nop
10000928a: 90                          	nop
10000928b: 90                          	nop
10000928c: 90                          	nop
10000928d: 90                          	nop
10000928e: 90                          	nop
10000928f: 90                          	nop

0000000100009290 _and_parser:
100009290: 55                          	pushq	%rbp
100009291: 48 89 e5                    	movq	%rsp, %rbp
100009294: 48 83 ec 30                 	subq	$48, %rsp
100009298: 48 89 7d f0                 	movq	%rdi, -16(%rbp)
10000929c: 48 83 7d f0 00              	cmpq	$0, -16(%rbp)
1000092a1: 0f 85 0d 00 00 00           	jne	13 <_and_parser+0x24>
1000092a7: 48 c7 45 f8 00 00 00 00     	movq	$0, -8(%rbp)
1000092af: e9 c2 01 00 00              	jmp	450 <_and_parser+0x1e6>
1000092b4: c7 45 e4 00 00 00 00        	movl	$0, -28(%rbp)
1000092bb: 48 c7 45 e8 00 00 00 00     	movq	$0, -24(%rbp)
1000092c3: 48 8d 7d d8                 	leaq	-40(%rbp), %rdi
1000092c7: e8 04 16 00 00              	callq	5636 <_set_zero_var>
1000092cc: 48 8b 7d f0                 	movq	-16(%rbp), %rdi
1000092d0: e8 1b 1d 00 00              	callq	7451 <_skip_spaces_front>
1000092d5: 89 45 e4                    	movl	%eax, -28(%rbp)
1000092d8: 48 8b 4d f0                 	movq	-16(%rbp), %rcx
1000092dc: 48 63 55 e4                 	movslq	-28(%rbp), %rdx
1000092e0: 0f be 04 11                 	movsbl	(%rcx,%rdx), %eax
1000092e4: 83 f8 29                    	cmpl	$41, %eax
1000092e7: 0f 84 2a 00 00 00           	je	42 <_and_parser+0x87>
1000092ed: 48 8b 45 f0                 	movq	-16(%rbp), %rax
1000092f1: 48 63 4d e4                 	movslq	-28(%rbp), %rcx
1000092f5: 0f be 14 08                 	movsbl	(%rax,%rcx), %edx
1000092f9: 83 fa 26                    	cmpl	$38, %edx
1000092fc: 0f 84 15 00 00 00           	je	21 <_and_parser+0x87>
100009302: 48 8b 45 f0                 	movq	-16(%rbp), %rax
100009306: 48 63 4d e4                 	movslq	-28(%rbp), %rcx
10000930a: 0f be 14 08                 	movsbl	(%rax,%rcx), %edx
10000930e: 83 fa 7c                    	cmpl	$124, %edx
100009311: 0f 85 2b 00 00 00           	jne	43 <_and_parser+0xb2>
100009317: 48 8b 75 f0                 	movq	-16(%rbp), %rsi
10000931b: 48 8b 45 f0                 	movq	-16(%rbp), %rax
10000931f: 48 63 4d e4                 	movslq	-28(%rbp), %rcx
100009323: 48 01 c8                    	addq	%rcx, %rax
100009326: 48 8d 3d 52 6a 00 00        	leaq	27218(%rip), %rdi
10000932d: 48 89 c2                    	movq	%rax, %rdx
100009330: e8 0b 1d 00 00              	callq	7435 <_pr_custom_err>
100009335: 48 c7 45 f8 00 00 00 00     	movq	$0, -8(%rbp)
10000933d: e9 34 01 00 00              	jmp	308 <_and_parser+0x1e6>
100009342: e9 00 00 00 00              	jmp	0 <_and_parser+0xb7>
100009347: 48 8b 45 f0                 	movq	-16(%rbp), %rax
10000934b: 48 63 4d e4                 	movslq	-28(%rbp), %rcx
10000934f: 80 3c 08 00                 	cmpb	$0, (%rax,%rcx)
100009353: 0f 84 ea 00 00 00           	je	234 <_and_parser+0x1b3>
100009359: 48 8b 45 f0                 	movq	-16(%rbp), %rax
10000935d: 48 63 4d e4                 	movslq	-28(%rbp), %rcx
100009361: 0f be 3c 08                 	movsbl	(%rax,%rcx), %edi
100009365: 48 8d 75 d8                 	leaq	-40(%rbp), %rsi
100009369: e8 82 15 00 00              	callq	5506 <_check_out_of_quotes>
10000936e: 48 8b 45 f0                 	movq	-16(%rbp), %rax
100009372: 48 63 4d e4                 	movslq	-28(%rbp), %rcx
100009376: 0f be 14 08                 	movsbl	(%rax,%rcx), %edx
10000937a: 83 fa 28                    	cmpl	$40, %edx
10000937d: 0f 85 49 00 00 00           	jne	73 <_and_parser+0x13c>
100009383: 8a 45 d8                    	movb	-40(%rbp), %al
100009386: 24 01                       	andb	$1, %al
100009388: 0f b6 c8                    	movzbl	%al, %ecx
10000938b: 83 f9 00                    	cmpl	$0, %ecx
10000938e: 0f 85 38 00 00 00           	jne	56 <_and_parser+0x13c>
100009394: 8a 45 d8                    	movb	-40(%rbp), %al
100009397: c0 e8 01                    	shrb	$1, %al
10000939a: 24 01                       	andb	$1, %al
10000939c: 0f b6 c8                    	movzbl	%al, %ecx
10000939f: 83 f9 00                    	cmpl	$0, %ecx
1000093a2: 0f 85 24 00 00 00           	jne	36 <_and_parser+0x13c>
1000093a8: 48 8b 45 f0                 	movq	-16(%rbp), %rax
1000093ac: 48 63 4d e4                 	movslq	-28(%rbp), %rcx
1000093b0: 48 01 c8                    	addq	%rcx, %rax
1000093b3: 48 05 01 00 00 00           	addq	$1, %rax
1000093b9: 48 89 c7                    	movq	%rax, %rdi
1000093bc: e8 ef 13 00 00              	callq	5103 <_close_parenthise>
1000093c1: 03 45 e4                    	addl	-28(%rbp), %eax
1000093c4: 89 45 e4                    	movl	%eax, -28(%rbp)
1000093c7: e9 7b ff ff ff              	jmp	-133 <_and_parser+0xb7>
1000093cc: 48 8b 45 f0                 	movq	-16(%rbp), %rax
1000093d0: 48 63 4d e4                 	movslq	-28(%rbp), %rcx
1000093d4: 0f be 14 08                 	movsbl	(%rax,%rcx), %edx
1000093d8: 83 fa 26                    	cmpl	$38, %edx
1000093db: 0f 85 54 00 00 00           	jne	84 <_and_parser+0x1a5>
1000093e1: 48 8b 45 f0                 	movq	-16(%rbp), %rax
1000093e5: 8b 4d e4                    	movl	-28(%rbp), %ecx
1000093e8: 83 c1 01                    	addl	$1, %ecx
1000093eb: 48 63 d1                    	movslq	%ecx, %rdx
1000093ee: 0f be 0c 10                 	movsbl	(%rax,%rdx), %ecx
1000093f2: 83 f9 26                    	cmpl	$38, %ecx
1000093f5: 0f 85 3a 00 00 00           	jne	58 <_and_parser+0x1a5>
1000093fb: 8a 45 d8                    	movb	-40(%rbp), %al
1000093fe: 24 01                       	andb	$1, %al
100009400: 0f b6 c8                    	movzbl	%al, %ecx
100009403: 83 f9 00                    	cmpl	$0, %ecx
100009406: 0f 85 29 00 00 00           	jne	41 <_and_parser+0x1a5>
10000940c: 8a 45 d8                    	movb	-40(%rbp), %al
10000940f: c0 e8 01                    	shrb	$1, %al
100009412: 24 01                       	andb	$1, %al
100009414: 0f b6 c8                    	movzbl	%al, %ecx
100009417: 83 f9 00                    	cmpl	$0, %ecx
10000941a: 0f 85 15 00 00 00           	jne	21 <_and_parser+0x1a5>
100009420: 8b 75 e4                    	movl	-28(%rbp), %esi
100009423: 48 8d 7d f0                 	leaq	-16(%rbp), %rdi
100009427: e8 54 00 00 00              	callq	84 <_call_and>
10000942c: 48 89 45 e8                 	movq	%rax, -24(%rbp)
100009430: e9 0e 00 00 00              	jmp	14 <_and_parser+0x1b3>
100009435: 8b 45 e4                    	movl	-28(%rbp), %eax
100009438: 83 c0 01                    	addl	$1, %eax
10000943b: 89 45 e4                    	movl	%eax, -28(%rbp)
10000943e: e9 04 ff ff ff              	jmp	-252 <_and_parser+0xb7>
100009443: 48 83 7d e8 00              	cmpq	$0, -24(%rbp)
100009448: 0f 85 20 00 00 00           	jne	32 <_and_parser+0x1de>
10000944e: 48 83 7d f0 00              	cmpq	$0, -16(%rbp)
100009453: 0f 84 15 00 00 00           	je	21 <_and_parser+0x1de>
100009459: 48 8b 7d f0                 	movq	-16(%rbp), %rdi
10000945d: e8 ae 0f 00 00              	callq	4014 <_remove_unused_parenthesis>
100009462: 48 89 c7                    	movq	%rax, %rdi
100009465: e8 76 0b 00 00              	callq	2934 <_or_parser>
10000946a: 48 89 45 e8                 	movq	%rax, -24(%rbp)
10000946e: 48 8b 45 e8                 	movq	-24(%rbp), %rax
100009472: 48 89 45 f8                 	movq	%rax, -8(%rbp)
100009476: 48 8b 45 f8                 	movq	-8(%rbp), %rax
10000947a: 48 83 c4 30                 	addq	$48, %rsp
10000947e: 5d                          	popq	%rbp
10000947f: c3                          	retq

0000000100009480 _call_and:
100009480: 55                          	pushq	%rbp
100009481: 48 89 e5                    	movq	%rsp, %rbp
100009484: 48 83 ec 30                 	subq	$48, %rsp
100009488: 48 89 7d f8                 	movq	%rdi, -8(%rbp)
10000948c: 89 75 f4                    	movl	%esi, -12(%rbp)
10000948f: 48 c7 45 e8 00 00 00 00     	movq	$0, -24(%rbp)
100009497: 48 8b 45 f8                 	movq	-8(%rbp), %rax
10000949b: 48 8b 00                    	movq	(%rax), %rax
10000949e: 48 63 4d f4                 	movslq	-12(%rbp), %rcx
1000094a2: 0f be 14 08                 	movsbl	(%rax,%rcx), %edx
1000094a6: 83 fa 26                    	cmpl	$38, %edx
1000094a9: 0f 85 c2 00 00 00           	jne	194 <_call_and+0xf1>
1000094af: 48 8b 45 f8                 	movq	-8(%rbp), %rax
1000094b3: 48 8b 00                    	movq	(%rax), %rax
1000094b6: 8b 4d f4                    	movl	-12(%rbp), %ecx
1000094b9: 83 c1 01                    	addl	$1, %ecx
1000094bc: 48 63 d1                    	movslq	%ecx, %rdx
1000094bf: 0f be 0c 10                 	movsbl	(%rax,%rdx), %ecx
1000094c3: 83 f9 26                    	cmpl	$38, %ecx
1000094c6: 0f 85 a5 00 00 00           	jne	165 <_call_and+0xf1>
1000094cc: 31 f6                       	xorl	%esi, %esi
1000094ce: 48 8b 45 f8                 	movq	-8(%rbp), %rax
1000094d2: 48 8b 38                    	movq	(%rax), %rdi
1000094d5: 48 63 55 f4                 	movslq	-12(%rbp), %rdx
1000094d9: e8 32 58 00 00              	callq	22578 <_ft_substr>
1000094de: 48 89 c7                    	movq	%rax, %rdi
1000094e1: e8 2a 0f 00 00              	callq	3882 <_remove_unused_parenthesis>
1000094e6: 48 89 c7                    	movq	%rax, %rdi
1000094e9: e8 a2 fd ff ff              	callq	-606 <_and_parser>
1000094ee: 48 89 45 e8                 	movq	%rax, -24(%rbp)
1000094f2: 48 8b 7d e8                 	movq	-24(%rbp), %rdi
1000094f6: 48 8b 45 f8                 	movq	-8(%rbp), %rax
1000094fa: 48 8b 00                    	movq	(%rax), %rax
1000094fd: 8b 4d f4                    	movl	-12(%rbp), %ecx
100009500: 83 c1 02                    	addl	$2, %ecx
100009503: 48 8b 55 f8                 	movq	-8(%rbp), %rdx
100009507: 48 8b 12                    	movq	(%rdx), %rdx
10000950a: 4c 63 45 f4                 	movslq	-12(%rbp), %r8
10000950e: 4c 01 c2                    	addq	%r8, %rdx
100009511: 48 81 c2 02 00 00 00        	addq	$2, %rdx
100009518: 48 89 7d e0                 	movq	%rdi, -32(%rbp)
10000951c: 48 89 d7                    	movq	%rdx, %rdi
10000951f: 48 89 45 d8                 	movq	%rax, -40(%rbp)
100009523: 89 4d d4                    	movl	%ecx, -44(%rbp)
100009526: e8 b5 56 00 00              	callq	22197 <_ft_strlen>
10000952b: 48 8b 7d d8                 	movq	-40(%rbp), %rdi
10000952f: 8b 75 d4                    	movl	-44(%rbp), %esi
100009532: 48 89 c2                    	movq	%rax, %rdx
100009535: e8 d6 57 00 00              	callq	22486 <_ft_substr>
10000953a: 48 89 c7                    	movq	%rax, %rdi
10000953d: e8 ce 0e 00 00              	callq	3790 <_remove_unused_parenthesis>
100009542: 48 89 c7                    	movq	%rax, %rdi
100009545: e8 46 fd ff ff              	callq	-698 <_and_parser>
10000954a: 48 8b 7d e0                 	movq	-32(%rbp), %rdi
10000954e: 48 89 c6                    	movq	%rax, %rsi
100009551: e8 aa ee ff ff              	callq	-4438 <_and_constructor>
100009556: 48 89 45 e8                 	movq	%rax, -24(%rbp)
10000955a: 48 8b 45 f8                 	movq	-8(%rbp), %rax
10000955e: 48 8b 38                    	movq	(%rax), %rdi
100009561: e8 b6 5f 00 00              	callq	24502 <dyld_stub_binder+0x10000f51c>
100009566: 48 8b 45 f8                 	movq	-8(%rbp), %rax
10000956a: 48 c7 00 00 00 00 00        	movq	$0, (%rax)
100009571: 48 8b 45 e8                 	movq	-24(%rbp), %rax
100009575: 48 83 c4 30                 	addq	$48, %rsp
100009579: 5d                          	popq	%rbp
10000957a: c3                          	retq
10000957b: 90                          	nop
10000957c: 90                          	nop
10000957d: 90                          	nop
10000957e: 90                          	nop
10000957f: 90                          	nop

0000000100009580 _call_builtin_constructor:
100009580: 55                          	pushq	%rbp
100009581: 48 89 e5                    	movq	%rsp, %rbp
100009584: 48 83 ec 30                 	subq	$48, %rsp
100009588: 48 89 7d f8                 	movq	%rdi, -8(%rbp)
10000958c: 89 75 f4                    	movl	%esi, -12(%rbp)
10000958f: 48 89 55 e8                 	movq	%rdx, -24(%rbp)
100009593: 48 c7 45 d8 00 00 00 00     	movq	$0, -40(%rbp)
10000959b: 48 8b 45 f8                 	movq	-8(%rbp), %rax
10000959f: 48 63 4d f4                 	movslq	-12(%rbp), %rcx
1000095a3: 48 01 c8                    	addq	%rcx, %rax
1000095a6: 48 89 c7                    	movq	%rax, %rdi
1000095a9: e8 92 55 00 00              	callq	21906 <_ft_strdup>
1000095ae: 31 f6                       	xorl	%esi, %esi
1000095b0: 89 f7                       	movl	%esi, %edi
1000095b2: 48 89 c6                    	movq	%rax, %rsi
1000095b5: ba 02 00 00 00              	movl	$2, %edx
1000095ba: e8 d1 3e 00 00              	callq	16081 <_arguments_constructor>
1000095bf: 48 89 45 d8                 	movq	%rax, -40(%rbp)
1000095c3: 48 8b 7d e8                 	movq	-24(%rbp), %rdi
1000095c7: e8 74 55 00 00              	callq	21876 <_ft_strdup>
1000095cc: 31 f6                       	xorl	%esi, %esi
1000095ce: 48 8b 55 d8                 	movq	-40(%rbp), %rdx
1000095d2: 48 89 c7                    	movq	%rax, %rdi
1000095d5: e8 b6 ef ff ff              	callq	-4170 <_builtin_constructor>
1000095da: 48 89 45 e0                 	movq	%rax, -32(%rbp)
1000095de: 48 8b 45 e0                 	movq	-32(%rbp), %rax
1000095e2: 48 83 c4 30                 	addq	$48, %rsp
1000095e6: 5d                          	popq	%rbp
1000095e7: c3                          	retq
1000095e8: 0f 1f 84 00 00 00 00 00     	nopl	(%rax,%rax)

00000001000095f0 _search_for_builtin:
1000095f0: 55                          	pushq	%rbp
1000095f1: 48 89 e5                    	movq	%rsp, %rbp
1000095f4: 48 83 ec 20                 	subq	$32, %rsp
1000095f8: 48 89 7d f8                 	movq	%rdi, -8(%rbp)
1000095fc: 48 89 75 f0                 	movq	%rsi, -16(%rbp)
100009600: 89 55 ec                    	movl	%edx, -20(%rbp)
100009603: 48 c7 45 e0 00 00 00 00     	movq	$0, -32(%rbp)
10000960b: 48 8b 7d f8                 	movq	-8(%rbp), %rdi
10000960f: 48 8d 35 7b 68 00 00        	leaq	26747(%rip), %rsi
100009616: ba 04 00 00 00              	movl	$4, %edx
10000961b: e8 20 56 00 00              	callq	22048 <_ft_strncmp>
100009620: 83 f8 00                    	cmpl	$0, %eax
100009623: 0f 85 1c 00 00 00           	jne	28 <_search_for_builtin+0x55>
100009629: 48 8b 7d f0                 	movq	-16(%rbp), %rdi
10000962d: 8b 75 ec                    	movl	-20(%rbp), %esi
100009630: 48 8d 15 5a 68 00 00        	leaq	26714(%rip), %rdx
100009637: e8 44 ff ff ff              	callq	-188 <_call_builtin_constructor>
10000963c: 48 89 45 e0                 	movq	%rax, -32(%rbp)
100009640: e9 f7 00 00 00              	jmp	247 <_search_for_builtin+0x14c>
100009645: 48 8b 7d f8                 	movq	-8(%rbp), %rdi
100009649: 48 8d 35 45 68 00 00        	leaq	26693(%rip), %rsi
100009650: ba 06 00 00 00              	movl	$6, %edx
100009655: e8 e6 55 00 00              	callq	21990 <_ft_strncmp>
10000965a: 83 f8 00                    	cmpl	$0, %eax
10000965d: 0f 85 1c 00 00 00           	jne	28 <_search_for_builtin+0x8f>
100009663: 48 8b 7d f0                 	movq	-16(%rbp), %rdi
100009667: 8b 75 ec                    	movl	-20(%rbp), %esi
10000966a: 48 8d 15 24 68 00 00        	leaq	26660(%rip), %rdx
100009671: e8 0a ff ff ff              	callq	-246 <_call_builtin_constructor>
100009676: 48 89 45 e0                 	movq	%rax, -32(%rbp)
10000967a: e9 b8 00 00 00              	jmp	184 <_search_for_builtin+0x147>
10000967f: 48 8b 7d f8                 	movq	-8(%rbp), %rdi
100009683: 48 8d 35 11 68 00 00        	leaq	26641(%rip), %rsi
10000968a: ba 04 00 00 00              	movl	$4, %edx
10000968f: e8 ac 55 00 00              	callq	21932 <_ft_strncmp>
100009694: 83 f8 00                    	cmpl	$0, %eax
100009697: 0f 85 1c 00 00 00           	jne	28 <_search_for_builtin+0xc9>
10000969d: 48 8b 7d f0                 	movq	-16(%rbp), %rdi
1000096a1: 8b 75 ec                    	movl	-20(%rbp), %esi
1000096a4: 48 8d 15 f0 67 00 00        	leaq	26608(%rip), %rdx
1000096ab: e8 d0 fe ff ff              	callq	-304 <_call_builtin_constructor>
1000096b0: 48 89 45 e0                 	movq	%rax, -32(%rbp)
1000096b4: e9 79 00 00 00              	jmp	121 <_search_for_builtin+0x142>
1000096b9: 48 8b 7d f8                 	movq	-8(%rbp), %rdi
1000096bd: 48 8d 35 db 67 00 00        	leaq	26587(%rip), %rsi
1000096c4: ba 07 00 00 00              	movl	$7, %edx
1000096c9: e8 72 55 00 00              	callq	21874 <_ft_strncmp>
1000096ce: 83 f8 00                    	cmpl	$0, %eax
1000096d1: 0f 85 1c 00 00 00           	jne	28 <_search_for_builtin+0x103>
1000096d7: 48 8b 7d f0                 	movq	-16(%rbp), %rdi
1000096db: 8b 75 ec                    	movl	-20(%rbp), %esi
1000096de: 48 8d 15 ba 67 00 00        	leaq	26554(%rip), %rdx
1000096e5: e8 96 fe ff ff              	callq	-362 <_call_builtin_constructor>
1000096ea: 48 89 45 e0                 	movq	%rax, -32(%rbp)
1000096ee: e9 3a 00 00 00              	jmp	58 <_search_for_builtin+0x13d>
1000096f3: 48 8b 7d f8                 	movq	-8(%rbp), %rdi
1000096f7: 48 8d 35 f9 5f 00 00        	leaq	24569(%rip), %rsi
1000096fe: ba 05 00 00 00              	movl	$5, %edx
100009703: e8 38 55 00 00              	callq	21816 <_ft_strncmp>
100009708: 83 f8 00                    	cmpl	$0, %eax
10000970b: 0f 85 17 00 00 00           	jne	23 <_search_for_builtin+0x138>
100009711: 48 8b 7d f0                 	movq	-16(%rbp), %rdi
100009715: 8b 75 ec                    	movl	-20(%rbp), %esi
100009718: 48 8d 15 d8 5f 00 00        	leaq	24536(%rip), %rdx
10000971f: e8 5c fe ff ff              	callq	-420 <_call_builtin_constructor>
100009724: 48 89 45 e0                 	movq	%rax, -32(%rbp)
100009728: e9 00 00 00 00              	jmp	0 <_search_for_builtin+0x13d>
10000972d: e9 00 00 00 00              	jmp	0 <_search_for_builtin+0x142>
100009732: e9 00 00 00 00              	jmp	0 <_search_for_builtin+0x147>
100009737: e9 00 00 00 00              	jmp	0 <_search_for_builtin+0x14c>
10000973c: 48 8b 45 e0                 	movq	-32(%rbp), %rax
100009740: 48 83 c4 20                 	addq	$32, %rsp
100009744: 5d                          	popq	%rbp
100009745: c3                          	retq
100009746: 66 2e 0f 1f 84 00 00 00 00 00       	nopw	%cs:(%rax,%rax)

0000000100009750 _get_token_builtins:
100009750: 55                          	pushq	%rbp
100009751: 48 89 e5                    	movq	%rsp, %rbp
100009754: 48 83 ec 50                 	subq	$80, %rsp
100009758: 48 89 7d f0                 	movq	%rdi, -16(%rbp)
10000975c: 89 75 ec                    	movl	%esi, -20(%rbp)
10000975f: 48 83 7d f0 00              	cmpq	$0, -16(%rbp)
100009764: 0f 85 0d 00 00 00           	jne	13 <_get_token_builtins+0x27>
10000976a: 48 c7 45 f8 00 00 00 00     	movq	$0, -8(%rbp)
100009772: e9 47 01 00 00              	jmp	327 <_get_token_builtins+0x16e>
100009777: 48 c7 45 d8 00 00 00 00     	movq	$0, -40(%rbp)
10000977f: 48 8b 45 f0                 	movq	-16(%rbp), %rax
100009783: 48 63 4d ec                 	movslq	-20(%rbp), %rcx
100009787: 48 01 c8                    	addq	%rcx, %rax
10000978a: 48 89 c7                    	movq	%rax, %rdi
10000978d: e8 5e 18 00 00              	callq	6238 <_skip_spaces_front>
100009792: 31 f6                       	xorl	%esi, %esi
100009794: 89 45 cc                    	movl	%eax, -52(%rbp)
100009797: 48 8b 7d f0                 	movq	-16(%rbp), %rdi
10000979b: 48 63 55 ec                 	movslq	-20(%rbp), %rdx
10000979f: e8 6c 55 00 00              	callq	21868 <_ft_substr>
1000097a4: 48 89 45 d0                 	movq	%rax, -48(%rbp)
1000097a8: 48 8b 7d d0                 	movq	-48(%rbp), %rdi
1000097ac: 48 8d 35 f3 66 00 00        	leaq	26355(%rip), %rsi
1000097b3: ba 05 00 00 00              	movl	$5, %edx
1000097b8: e8 83 54 00 00              	callq	21635 <_ft_strncmp>
1000097bd: 83 f8 00                    	cmpl	$0, %eax
1000097c0: 0f 85 69 00 00 00           	jne	105 <_get_token_builtins+0xdf>
1000097c6: 48 8b 45 f0                 	movq	-16(%rbp), %rax
1000097ca: 48 63 4d ec                 	movslq	-20(%rbp), %rcx
1000097ce: 48 01 c8                    	addq	%rcx, %rax
1000097d1: 48 89 c7                    	movq	%rax, %rdi
1000097d4: 48 8d 75 c8                 	leaq	-56(%rbp), %rsi
1000097d8: e8 f3 00 00 00              	callq	243 <_echo_has_option>
1000097dd: 89 45 cc                    	movl	%eax, -52(%rbp)
1000097e0: 48 8d 3d bf 66 00 00        	leaq	26303(%rip), %rdi
1000097e7: e8 54 53 00 00              	callq	21332 <_ft_strdup>
1000097ec: 31 d2                       	xorl	%edx, %edx
1000097ee: 89 d6                       	movl	%edx, %esi
1000097f0: 31 c9                       	xorl	%ecx, %ecx
1000097f2: 8b 55 cc                    	movl	-52(%rbp), %edx
1000097f5: 48 8b 7d f0                 	movq	-16(%rbp), %rdi
1000097f9: 44 8b 45 ec                 	movl	-20(%rbp), %r8d
1000097fd: 44 03 45 c8                 	addl	-56(%rbp), %r8d
100009801: 66 89 55 c6                 	movw	%dx, -58(%rbp)
100009805: 44 89 c2                    	movl	%r8d, %edx
100009808: 48 89 45 b8                 	movq	%rax, -72(%rbp)
10000980c: e8 4f 45 00 00              	callq	17743 <_get_argument>
100009811: 48 8b 7d b8                 	movq	-72(%rbp), %rdi
100009815: 66 44 8b 4d c6              	movw	-58(%rbp), %r9w
10000981a: 41 0f b7 f1                 	movzwl	%r9w, %esi
10000981e: 48 89 c2                    	movq	%rax, %rdx
100009821: e8 6a ed ff ff              	callq	-4758 <_builtin_constructor>
100009826: 48 89 45 d8                 	movq	%rax, -40(%rbp)
10000982a: e9 75 00 00 00              	jmp	117 <_get_token_builtins+0x154>
10000982f: 48 8b 7d d0                 	movq	-48(%rbp), %rdi
100009833: 48 8d 35 71 66 00 00        	leaq	26225(%rip), %rsi
10000983a: ba 07 00 00 00              	movl	$7, %edx
10000983f: e8 fc 53 00 00              	callq	21500 <_ft_strncmp>
100009844: 83 f8 00                    	cmpl	$0, %eax
100009847: 0f 85 3e 00 00 00           	jne	62 <_get_token_builtins+0x13b>
10000984d: 31 c0                       	xorl	%eax, %eax
10000984f: 89 c6                       	movl	%eax, %esi
100009851: 31 c9                       	xorl	%ecx, %ecx
100009853: 48 8b 7d f0                 	movq	-16(%rbp), %rdi
100009857: 8b 45 ec                    	movl	-20(%rbp), %eax
10000985a: 03 45 cc                    	addl	-52(%rbp), %eax
10000985d: 89 c2                       	movl	%eax, %edx
10000985f: e8 fc 44 00 00              	callq	17660 <_get_argument>
100009864: 48 89 45 e0                 	movq	%rax, -32(%rbp)
100009868: 48 8d 3d 3c 66 00 00        	leaq	26172(%rip), %rdi
10000986f: e8 cc 52 00 00              	callq	21196 <_ft_strdup>
100009874: 31 f6                       	xorl	%esi, %esi
100009876: 48 8b 55 e0                 	movq	-32(%rbp), %rdx
10000987a: 48 89 c7                    	movq	%rax, %rdi
10000987d: e8 0e ed ff ff              	callq	-4850 <_builtin_constructor>
100009882: 48 89 45 d8                 	movq	%rax, -40(%rbp)
100009886: e9 14 00 00 00              	jmp	20 <_get_token_builtins+0x14f>
10000988b: 48 8b 7d d0                 	movq	-48(%rbp), %rdi
10000988f: 48 8b 75 f0                 	movq	-16(%rbp), %rsi
100009893: 8b 55 ec                    	movl	-20(%rbp), %edx
100009896: e8 55 fd ff ff              	callq	-683 <_search_for_builtin>
10000989b: 48 89 45 d8                 	movq	%rax, -40(%rbp)
10000989f: e9 00 00 00 00              	jmp	0 <_get_token_builtins+0x154>
1000098a4: 48 8b 7d f0                 	movq	-16(%rbp), %rdi
1000098a8: e8 6f 5c 00 00              	callq	23663 <dyld_stub_binder+0x10000f51c>
1000098ad: 48 8b 7d d0                 	movq	-48(%rbp), %rdi
1000098b1: e8 66 5c 00 00              	callq	23654 <dyld_stub_binder+0x10000f51c>
1000098b6: 48 8b 45 d8                 	movq	-40(%rbp), %rax
1000098ba: 48 89 45 f8                 	movq	%rax, -8(%rbp)
1000098be: 48 8b 45 f8                 	movq	-8(%rbp), %rax
1000098c2: 48 83 c4 50                 	addq	$80, %rsp
1000098c6: 5d                          	popq	%rbp
1000098c7: c3                          	retq
1000098c8: 0f 1f 84 00 00 00 00 00     	nopl	(%rax,%rax)

00000001000098d0 _echo_has_option:
1000098d0: 55                          	pushq	%rbp
1000098d1: 48 89 e5                    	movq	%rsp, %rbp
1000098d4: 48 83 ec 20                 	subq	$32, %rsp
1000098d8: 48 89 7d f8                 	movq	%rdi, -8(%rbp)
1000098dc: 48 89 75 f0                 	movq	%rsi, -16(%rbp)
1000098e0: 48 8b 45 f0                 	movq	-16(%rbp), %rax
1000098e4: c7 00 00 00 00 00           	movl	$0, (%rax)
1000098ea: c7 45 ec 00 00 00 00        	movl	$0, -20(%rbp)
1000098f1: 48 8b 45 f8                 	movq	-8(%rbp), %rax
1000098f5: 48 8b 4d f0                 	movq	-16(%rbp), %rcx
1000098f9: 48 63 09                    	movslq	(%rcx), %rcx
1000098fc: 80 3c 08 00                 	cmpb	$0, (%rax,%rcx)
100009900: 0f 84 ab 00 00 00           	je	171 <_echo_has_option+0xe1>
100009906: e9 00 00 00 00              	jmp	0 <_echo_has_option+0x3b>
10000990b: 48 8b 45 f8                 	movq	-8(%rbp), %rax
10000990f: 48 8b 4d f0                 	movq	-16(%rbp), %rcx
100009913: 48 63 09                    	movslq	(%rcx), %rcx
100009916: 0f be 3c 08                 	movsbl	(%rax,%rcx), %edi
10000991a: e8 61 4f 00 00              	callq	20321 <_ft_isspace>
10000991f: 83 f8 00                    	cmpl	$0, %eax
100009922: 0f 84 10 00 00 00           	je	16 <_echo_has_option+0x68>
100009928: 48 8b 45 f0                 	movq	-16(%rbp), %rax
10000992c: 8b 08                       	movl	(%rax), %ecx
10000992e: 83 c1 01                    	addl	$1, %ecx
100009931: 89 08                       	movl	%ecx, (%rax)
100009933: e9 d3 ff ff ff              	jmp	-45 <_echo_has_option+0x3b>
100009938: c7 45 e8 00 00 00 00        	movl	$0, -24(%rbp)
10000993f: 48 8b 7d f8                 	movq	-8(%rbp), %rdi
100009943: 48 8b 45 f0                 	movq	-16(%rbp), %rax
100009947: 8b 30                       	movl	(%rax), %esi
100009949: 8b 55 e8                    	movl	-24(%rbp), %edx
10000994c: e8 6f 00 00 00              	callq	111 <_check_nl_option>
100009951: 89 45 e8                    	movl	%eax, -24(%rbp)
100009954: 48 8b 4d f8                 	movq	-8(%rbp), %rcx
100009958: 48 8b 7d f0                 	movq	-16(%rbp), %rdi
10000995c: 8b 07                       	movl	(%rdi), %eax
10000995e: 03 45 e8                    	addl	-24(%rbp), %eax
100009961: 48 63 f8                    	movslq	%eax, %rdi
100009964: 0f be 3c 39                 	movsbl	(%rcx,%rdi), %edi
100009968: e8 13 4f 00 00              	callq	20243 <_ft_isspace>
10000996d: 83 f8 00                    	cmpl	$0, %eax
100009970: 0f 85 1a 00 00 00           	jne	26 <_echo_has_option+0xc0>
100009976: 48 8b 45 f8                 	movq	-8(%rbp), %rax
10000997a: 48 8b 4d f0                 	movq	-16(%rbp), %rcx
10000997e: 8b 11                       	movl	(%rcx), %edx
100009980: 03 55 e8                    	addl	-24(%rbp), %edx
100009983: 48 63 ca                    	movslq	%edx, %rcx
100009986: 80 3c 08 00                 	cmpb	$0, (%rax,%rcx)
10000998a: 0f 85 17 00 00 00           	jne	23 <_echo_has_option+0xd7>
100009990: c7 45 ec 01 00 00 00        	movl	$1, -20(%rbp)
100009997: 8b 45 e8                    	movl	-24(%rbp), %eax
10000999a: 48 8b 4d f0                 	movq	-16(%rbp), %rcx
10000999e: 03 01                       	addl	(%rcx), %eax
1000099a0: 89 01                       	movl	%eax, (%rcx)
1000099a2: e9 05 00 00 00              	jmp	5 <_echo_has_option+0xdc>
1000099a7: e9 05 00 00 00              	jmp	5 <_echo_has_option+0xe1>
1000099ac: e9 40 ff ff ff              	jmp	-192 <_echo_has_option+0x21>
1000099b1: 8b 45 ec                    	movl	-20(%rbp), %eax
1000099b4: 48 83 c4 20                 	addq	$32, %rsp
1000099b8: 5d                          	popq	%rbp
1000099b9: c3                          	retq
1000099ba: 66 0f 1f 44 00 00           	nopw	(%rax,%rax)

00000001000099c0 _check_nl_option:
1000099c0: 55                          	pushq	%rbp
1000099c1: 48 89 e5                    	movq	%rsp, %rbp
1000099c4: 48 89 7d f8                 	movq	%rdi, -8(%rbp)
1000099c8: 89 75 f4                    	movl	%esi, -12(%rbp)
1000099cb: 89 55 f0                    	movl	%edx, -16(%rbp)
1000099ce: 48 8b 45 f8                 	movq	-8(%rbp), %rax
1000099d2: 8b 4d f4                    	movl	-12(%rbp), %ecx
1000099d5: 03 4d f0                    	addl	-16(%rbp), %ecx
1000099d8: 48 63 f9                    	movslq	%ecx, %rdi
1000099db: 0f be 0c 38                 	movsbl	(%rax,%rdi), %ecx
1000099df: 83 f9 2d                    	cmpl	$45, %ecx
1000099e2: 0f 85 53 00 00 00           	jne	83 <_check_nl_option+0x7b>
1000099e8: 48 8b 45 f8                 	movq	-8(%rbp), %rax
1000099ec: 8b 4d f4                    	movl	-12(%rbp), %ecx
1000099ef: 03 4d f0                    	addl	-16(%rbp), %ecx
1000099f2: 83 c1 01                    	addl	$1, %ecx
1000099f5: 48 63 d1                    	movslq	%ecx, %rdx
1000099f8: 0f be 0c 10                 	movsbl	(%rax,%rdx), %ecx
1000099fc: 83 f9 6e                    	cmpl	$110, %ecx
1000099ff: 0f 85 36 00 00 00           	jne	54 <_check_nl_option+0x7b>
100009a05: 8b 45 f0                    	movl	-16(%rbp), %eax
100009a08: 83 c0 01                    	addl	$1, %eax
100009a0b: 89 45 f0                    	movl	%eax, -16(%rbp)
100009a0e: 48 8b 45 f8                 	movq	-8(%rbp), %rax
100009a12: 8b 4d f4                    	movl	-12(%rbp), %ecx
100009a15: 03 4d f0                    	addl	-16(%rbp), %ecx
100009a18: 48 63 d1                    	movslq	%ecx, %rdx
100009a1b: 0f be 0c 10                 	movsbl	(%rax,%rdx), %ecx
100009a1f: 83 f9 6e                    	cmpl	$110, %ecx
100009a22: 0f 85 0e 00 00 00           	jne	14 <_check_nl_option+0x76>
100009a28: 8b 45 f0                    	movl	-16(%rbp), %eax
100009a2b: 83 c0 01                    	addl	$1, %eax
100009a2e: 89 45 f0                    	movl	%eax, -16(%rbp)
100009a31: e9 d8 ff ff ff              	jmp	-40 <_check_nl_option+0x4e>
100009a36: e9 64 01 00 00              	jmp	356 <_check_nl_option+0x1df>
100009a3b: 48 8b 45 f8                 	movq	-8(%rbp), %rax
100009a3f: 8b 4d f4                    	movl	-12(%rbp), %ecx
100009a42: 03 4d f0                    	addl	-16(%rbp), %ecx
100009a45: 48 63 d1                    	movslq	%ecx, %rdx
100009a48: 0f be 0c 10                 	movsbl	(%rax,%rdx), %ecx
100009a4c: 83 f9 22                    	cmpl	$34, %ecx
100009a4f: 0f 85 93 00 00 00           	jne	147 <_check_nl_option+0x128>
100009a55: 48 8b 45 f8                 	movq	-8(%rbp), %rax
100009a59: 8b 4d f4                    	movl	-12(%rbp), %ecx
100009a5c: 03 4d f0                    	addl	-16(%rbp), %ecx
100009a5f: 83 c1 01                    	addl	$1, %ecx
100009a62: 48 63 d1                    	movslq	%ecx, %rdx
100009a65: 0f be 0c 10                 	movsbl	(%rax,%rdx), %ecx
100009a69: 83 f9 2d                    	cmpl	$45, %ecx
100009a6c: 0f 85 76 00 00 00           	jne	118 <_check_nl_option+0x128>
100009a72: 48 8b 45 f8                 	movq	-8(%rbp), %rax
100009a76: 8b 4d f4                    	movl	-12(%rbp), %ecx
100009a79: 03 4d f0                    	addl	-16(%rbp), %ecx
100009a7c: 83 c1 02                    	addl	$2, %ecx
100009a7f: 48 63 d1                    	movslq	%ecx, %rdx
100009a82: 0f be 0c 10                 	movsbl	(%rax,%rdx), %ecx
100009a86: 83 f9 6e                    	cmpl	$110, %ecx
100009a89: 0f 85 59 00 00 00           	jne	89 <_check_nl_option+0x128>
100009a8f: 8b 45 f0                    	movl	-16(%rbp), %eax
100009a92: 83 c0 02                    	addl	$2, %eax
100009a95: 89 45 f0                    	movl	%eax, -16(%rbp)
100009a98: 48 8b 45 f8                 	movq	-8(%rbp), %rax
100009a9c: 8b 4d f4                    	movl	-12(%rbp), %ecx
100009a9f: 03 4d f0                    	addl	-16(%rbp), %ecx
100009aa2: 48 63 d1                    	movslq	%ecx, %rdx
100009aa5: 0f be 0c 10                 	movsbl	(%rax,%rdx), %ecx
100009aa9: 83 f9 6e                    	cmpl	$110, %ecx
100009aac: 0f 85 0e 00 00 00           	jne	14 <_check_nl_option+0x100>
100009ab2: 8b 45 f0                    	movl	-16(%rbp), %eax
100009ab5: 83 c0 01                    	addl	$1, %eax
100009ab8: 89 45 f0                    	movl	%eax, -16(%rbp)
100009abb: e9 d8 ff ff ff              	jmp	-40 <_check_nl_option+0xd8>
100009ac0: 48 8b 45 f8                 	movq	-8(%rbp), %rax
100009ac4: 8b 4d f4                    	movl	-12(%rbp), %ecx
100009ac7: 03 4d f0                    	addl	-16(%rbp), %ecx
100009aca: 48 63 d1                    	movslq	%ecx, %rdx
100009acd: 0f be 0c 10                 	movsbl	(%rax,%rdx), %ecx
100009ad1: 83 f9 22                    	cmpl	$34, %ecx
100009ad4: 0f 85 09 00 00 00           	jne	9 <_check_nl_option+0x123>
100009ada: 8b 45 f0                    	movl	-16(%rbp), %eax
100009add: 83 c0 01                    	addl	$1, %eax
100009ae0: 89 45 f0                    	movl	%eax, -16(%rbp)
100009ae3: e9 b2 00 00 00              	jmp	178 <_check_nl_option+0x1da>
100009ae8: 48 8b 45 f8                 	movq	-8(%rbp), %rax
100009aec: 8b 4d f4                    	movl	-12(%rbp), %ecx
100009aef: 03 4d f0                    	addl	-16(%rbp), %ecx
100009af2: 48 63 d1                    	movslq	%ecx, %rdx
100009af5: 0f be 0c 10                 	movsbl	(%rax,%rdx), %ecx
100009af9: 83 f9 27                    	cmpl	$39, %ecx
100009afc: 0f 85 93 00 00 00           	jne	147 <_check_nl_option+0x1d5>
100009b02: 48 8b 45 f8                 	movq	-8(%rbp), %rax
100009b06: 8b 4d f4                    	movl	-12(%rbp), %ecx
100009b09: 03 4d f0                    	addl	-16(%rbp), %ecx
100009b0c: 83 c1 01                    	addl	$1, %ecx
100009b0f: 48 63 d1                    	movslq	%ecx, %rdx
100009b12: 0f be 0c 10                 	movsbl	(%rax,%rdx), %ecx
100009b16: 83 f9 2d                    	cmpl	$45, %ecx
100009b19: 0f 85 76 00 00 00           	jne	118 <_check_nl_option+0x1d5>
100009b1f: 48 8b 45 f8                 	movq	-8(%rbp), %rax
100009b23: 8b 4d f4                    	movl	-12(%rbp), %ecx
100009b26: 03 4d f0                    	addl	-16(%rbp), %ecx
100009b29: 83 c1 02                    	addl	$2, %ecx
100009b2c: 48 63 d1                    	movslq	%ecx, %rdx
100009b2f: 0f be 0c 10                 	movsbl	(%rax,%rdx), %ecx
100009b33: 83 f9 6e                    	cmpl	$110, %ecx
100009b36: 0f 85 59 00 00 00           	jne	89 <_check_nl_option+0x1d5>
100009b3c: 8b 45 f0                    	movl	-16(%rbp), %eax
100009b3f: 83 c0 02                    	addl	$2, %eax
100009b42: 89 45 f0                    	movl	%eax, -16(%rbp)
100009b45: 48 8b 45 f8                 	movq	-8(%rbp), %rax
100009b49: 8b 4d f4                    	movl	-12(%rbp), %ecx
100009b4c: 03 4d f0                    	addl	-16(%rbp), %ecx
100009b4f: 48 63 d1                    	movslq	%ecx, %rdx
100009b52: 0f be 0c 10                 	movsbl	(%rax,%rdx), %ecx
100009b56: 83 f9 6e                    	cmpl	$110, %ecx
100009b59: 0f 85 0e 00 00 00           	jne	14 <_check_nl_option+0x1ad>
100009b5f: 8b 45 f0                    	movl	-16(%rbp), %eax
100009b62: 83 c0 01                    	addl	$1, %eax
100009b65: 89 45 f0                    	movl	%eax, -16(%rbp)
100009b68: e9 d8 ff ff ff              	jmp	-40 <_check_nl_option+0x185>
100009b6d: 48 8b 45 f8                 	movq	-8(%rbp), %rax
100009b71: 8b 4d f4                    	movl	-12(%rbp), %ecx
100009b74: 03 4d f0                    	addl	-16(%rbp), %ecx
100009b77: 48 63 d1                    	movslq	%ecx, %rdx
100009b7a: 0f be 0c 10                 	movsbl	(%rax,%rdx), %ecx
100009b7e: 83 f9 27                    	cmpl	$39, %ecx
100009b81: 0f 85 09 00 00 00           	jne	9 <_check_nl_option+0x1d0>
100009b87: 8b 45 f0                    	movl	-16(%rbp), %eax
100009b8a: 83 c0 01                    	addl	$1, %eax
100009b8d: 89 45 f0                    	movl	%eax, -16(%rbp)
100009b90: e9 00 00 00 00              	jmp	0 <_check_nl_option+0x1d5>
100009b95: e9 00 00 00 00              	jmp	0 <_check_nl_option+0x1da>
100009b9a: e9 00 00 00 00              	jmp	0 <_check_nl_option+0x1df>
100009b9f: 8b 45 f0                    	movl	-16(%rbp), %eax
100009ba2: 5d                          	popq	%rbp
100009ba3: c3                          	retq
100009ba4: 90                          	nop
100009ba5: 90                          	nop
100009ba6: 90                          	nop
100009ba7: 90                          	nop
100009ba8: 90                          	nop
100009ba9: 90                          	nop
100009baa: 90                          	nop
100009bab: 90                          	nop
100009bac: 90                          	nop
100009bad: 90                          	nop
100009bae: 90                          	nop
100009baf: 90                          	nop

0000000100009bb0 _skip_spaces_back:
100009bb0: 55                          	pushq	%rbp
100009bb1: 48 89 e5                    	movq	%rsp, %rbp
100009bb4: 48 83 ec 30                 	subq	$48, %rsp
100009bb8: 48 89 7d f8                 	movq	%rdi, -8(%rbp)
100009bbc: 48 c7 45 e0 00 00 00 00     	movq	$0, -32(%rbp)
100009bc4: 48 8b 45 f8                 	movq	-8(%rbp), %rax
100009bc8: 48 89 45 f0                 	movq	%rax, -16(%rbp)
100009bcc: c7 45 ec 00 00 00 00        	movl	$0, -20(%rbp)
100009bd3: 48 8b 45 f0                 	movq	-16(%rbp), %rax
100009bd7: 48 83 78 18 00              	cmpq	$0, 24(%rax)
100009bdc: 0f 84 11 00 00 00           	je	17 <_skip_spaces_back+0x43>
100009be2: 48 8b 45 f0                 	movq	-16(%rbp), %rax
100009be6: 48 8b 40 18                 	movq	24(%rax), %rax
100009bea: 48 89 45 f0                 	movq	%rax, -16(%rbp)
100009bee: e9 e0 ff ff ff              	jmp	-32 <_skip_spaces_back+0x23>
100009bf3: e9 00 00 00 00              	jmp	0 <_skip_spaces_back+0x48>
100009bf8: 48 8b 45 f0                 	movq	-16(%rbp), %rax
100009bfc: 48 8b 00                    	movq	(%rax), %rax
100009bff: 48 63 4d ec                 	movslq	-20(%rbp), %rcx
100009c03: 80 3c 08 00                 	cmpb	$0, (%rax,%rcx)
100009c07: 0f 84 b1 00 00 00           	je	177 <_skip_spaces_back+0x10e>
100009c0d: c7 45 e8 00 00 00 00        	movl	$0, -24(%rbp)
100009c14: 48 8b 45 f0                 	movq	-16(%rbp), %rax
100009c18: 48 8b 00                    	movq	(%rax), %rax
100009c1b: 8b 4d ec                    	movl	-20(%rbp), %ecx
100009c1e: 03 4d e8                    	addl	-24(%rbp), %ecx
100009c21: 48 63 d1                    	movslq	%ecx, %rdx
100009c24: 80 3c 10 00                 	cmpb	$0, (%rax,%rdx)
100009c28: 40 b6 01                    	movb	$1, %sil
100009c2b: 40 88 75 df                 	movb	%sil, -33(%rbp)
100009c2f: 0f 84 24 00 00 00           	je	36 <_skip_spaces_back+0xa9>
100009c35: 48 8b 45 f0                 	movq	-16(%rbp), %rax
100009c39: 48 8b 00                    	movq	(%rax), %rax
100009c3c: 8b 4d ec                    	movl	-20(%rbp), %ecx
100009c3f: 03 4d e8                    	addl	-24(%rbp), %ecx
100009c42: 48 63 d1                    	movslq	%ecx, %rdx
100009c45: 0f be 3c 10                 	movsbl	(%rax,%rdx), %edi
100009c49: e8 32 4c 00 00              	callq	19506 <_ft_isspace>
100009c4e: 83 f8 00                    	cmpl	$0, %eax
100009c51: 40 0f 95 c6                 	setne	%sil
100009c55: 40 88 75 df                 	movb	%sil, -33(%rbp)
100009c59: 8a 45 df                    	movb	-33(%rbp), %al
100009c5c: a8 01                       	testb	$1, %al
100009c5e: 0f 85 05 00 00 00           	jne	5 <_skip_spaces_back+0xb9>
100009c64: e9 3e 00 00 00              	jmp	62 <_skip_spaces_back+0xf7>
100009c69: 48 8b 45 f0                 	movq	-16(%rbp), %rax
100009c6d: 48 8b 00                    	movq	(%rax), %rax
100009c70: 8b 4d ec                    	movl	-20(%rbp), %ecx
100009c73: 03 4d e8                    	addl	-24(%rbp), %ecx
100009c76: 48 63 d1                    	movslq	%ecx, %rdx
100009c79: 80 3c 10 00                 	cmpb	$0, (%rax,%rdx)
100009c7d: 0f 85 16 00 00 00           	jne	22 <_skip_spaces_back+0xe9>
100009c83: 31 f6                       	xorl	%esi, %esi
100009c85: 48 8b 45 f0                 	movq	-16(%rbp), %rax
100009c89: 48 8b 38                    	movq	(%rax), %rdi
100009c8c: 48 63 55 ec                 	movslq	-20(%rbp), %rdx
100009c90: e8 7b 50 00 00              	callq	20603 <_ft_substr>
100009c95: 48 89 45 e0                 	movq	%rax, -32(%rbp)
100009c99: 8b 45 e8                    	movl	-24(%rbp), %eax
100009c9c: 83 c0 01                    	addl	$1, %eax
100009c9f: 89 45 e8                    	movl	%eax, -24(%rbp)
100009ca2: e9 6d ff ff ff              	jmp	-147 <_skip_spaces_back+0x64>
100009ca7: 8b 45 e8                    	movl	-24(%rbp), %eax
100009caa: 03 45 ec                    	addl	-20(%rbp), %eax
100009cad: 89 45 ec                    	movl	%eax, -20(%rbp)
100009cb0: 8b 45 ec                    	movl	-20(%rbp), %eax
100009cb3: 83 c0 01                    	addl	$1, %eax
100009cb6: 89 45 ec                    	movl	%eax, -20(%rbp)
100009cb9: e9 3a ff ff ff              	jmp	-198 <_skip_spaces_back+0x48>
100009cbe: 48 83 7d e0 00              	cmpq	$0, -32(%rbp)
100009cc3: 0f 84 17 00 00 00           	je	23 <_skip_spaces_back+0x130>
100009cc9: 48 8b 45 f0                 	movq	-16(%rbp), %rax
100009ccd: 48 8b 38                    	movq	(%rax), %rdi
100009cd0: e8 47 58 00 00              	callq	22599 <dyld_stub_binder+0x10000f51c>
100009cd5: 48 8b 45 e0                 	movq	-32(%rbp), %rax
100009cd9: 48 8b 4d f0                 	movq	-16(%rbp), %rcx
100009cdd: 48 89 01                    	movq	%rax, (%rcx)
100009ce0: 48 8b 45 f8                 	movq	-8(%rbp), %rax
100009ce4: 48 83 c4 30                 	addq	$48, %rsp
100009ce8: 5d                          	popq	%rbp
100009ce9: c3                          	retq
100009cea: 66 0f 1f 44 00 00           	nopw	(%rax,%rax)

0000000100009cf0 _get_token_cmd:
100009cf0: 55                          	pushq	%rbp
100009cf1: 48 89 e5                    	movq	%rsp, %rbp
100009cf4: 48 83 ec 40                 	subq	$64, %rsp
100009cf8: 48 89 7d f0                 	movq	%rdi, -16(%rbp)
100009cfc: 89 75 ec                    	movl	%esi, -20(%rbp)
100009cff: c7 45 cc 00 00 00 00        	movl	$0, -52(%rbp)
100009d06: 48 83 7d f0 00              	cmpq	$0, -16(%rbp)
100009d0b: 0f 84 0d 00 00 00           	je	13 <_get_token_cmd+0x2e>
100009d11: 48 8b 45 f0                 	movq	-16(%rbp), %rax
100009d15: 80 38 00                    	cmpb	$0, (%rax)
100009d18: 0f 85 0d 00 00 00           	jne	13 <_get_token_cmd+0x3b>
100009d1e: 48 c7 45 f8 00 00 00 00     	movq	$0, -8(%rbp)
100009d26: e9 3b 01 00 00              	jmp	315 <_get_token_cmd+0x176>
100009d2b: 48 8d 7d c8                 	leaq	-56(%rbp), %rdi
100009d2f: e8 9c 0b 00 00              	callq	2972 <_set_zero_var>
100009d34: 48 8b 45 f0                 	movq	-16(%rbp), %rax
100009d38: 48 63 4d cc                 	movslq	-52(%rbp), %rcx
100009d3c: 80 3c 08 00                 	cmpb	$0, (%rax,%rcx)
100009d40: 0f 84 68 00 00 00           	je	104 <_get_token_cmd+0xbe>
100009d46: 48 8b 45 f0                 	movq	-16(%rbp), %rax
100009d4a: 48 63 4d cc                 	movslq	-52(%rbp), %rcx
100009d4e: 0f be 3c 08                 	movsbl	(%rax,%rcx), %edi
100009d52: 48 8d 75 c8                 	leaq	-56(%rbp), %rsi
100009d56: e8 95 0b 00 00              	callq	2965 <_check_out_of_quotes>
100009d5b: 8a 55 c8                    	movb	-56(%rbp), %dl
100009d5e: 80 e2 01                    	andb	$1, %dl
100009d61: 0f b6 fa                    	movzbl	%dl, %edi
100009d64: 83 ff 00                    	cmpl	$0, %edi
100009d67: 0f 85 33 00 00 00           	jne	51 <_get_token_cmd+0xb0>
100009d6d: 8a 45 c8                    	movb	-56(%rbp), %al
100009d70: c0 e8 01                    	shrb	$1, %al
100009d73: 24 01                       	andb	$1, %al
100009d75: 0f b6 c8                    	movzbl	%al, %ecx
100009d78: 83 f9 00                    	cmpl	$0, %ecx
100009d7b: 0f 85 1f 00 00 00           	jne	31 <_get_token_cmd+0xb0>
100009d81: 48 8b 45 f0                 	movq	-16(%rbp), %rax
100009d85: 48 63 4d cc                 	movslq	-52(%rbp), %rcx
100009d89: 0f be 3c 08                 	movsbl	(%rax,%rcx), %edi
100009d8d: e8 ee 4a 00 00              	callq	19182 <_ft_isspace>
100009d92: 83 f8 00                    	cmpl	$0, %eax
100009d95: 0f 84 05 00 00 00           	je	5 <_get_token_cmd+0xb0>
100009d9b: e9 0e 00 00 00              	jmp	14 <_get_token_cmd+0xbe>
100009da0: 8b 45 cc                    	movl	-52(%rbp), %eax
100009da3: 83 c0 01                    	addl	$1, %eax
100009da6: 89 45 cc                    	movl	%eax, -52(%rbp)
100009da9: e9 86 ff ff ff              	jmp	-122 <_get_token_cmd+0x44>
100009dae: 31 f6                       	xorl	%esi, %esi
100009db0: 48 8b 7d f0                 	movq	-16(%rbp), %rdi
100009db4: 48 63 55 cc                 	movslq	-52(%rbp), %rdx
100009db8: e8 53 4f 00 00              	callq	20307 <_ft_substr>
100009dbd: 31 c9                       	xorl	%ecx, %ecx
100009dbf: 89 ce                       	movl	%ecx, %esi
100009dc1: 31 c9                       	xorl	%ecx, %ecx
100009dc3: 48 89 45 d8                 	movq	%rax, -40(%rbp)
100009dc7: 48 8b 7d d8                 	movq	-40(%rbp), %rdi
100009dcb: 89 ca                       	movl	%ecx, %edx
100009dcd: e8 8e 3f 00 00              	callq	16270 <_get_argument>
100009dd2: 48 89 45 e0                 	movq	%rax, -32(%rbp)
100009dd6: 48 8b 7d d8                 	movq	-40(%rbp), %rdi
100009dda: e8 3d 57 00 00              	callq	22333 <dyld_stub_binder+0x10000f51c>
100009ddf: 48 8b 45 f0                 	movq	-16(%rbp), %rax
100009de3: 48 63 75 cc                 	movslq	-52(%rbp), %rsi
100009de7: 48 01 f0                    	addq	%rsi, %rax
100009dea: 48 89 c7                    	movq	%rax, %rdi
100009ded: e8 fe 11 00 00              	callq	4606 <_skip_spaces_front>
100009df2: 03 45 cc                    	addl	-52(%rbp), %eax
100009df5: 89 45 cc                    	movl	%eax, -52(%rbp)
100009df8: 48 8b 75 f0                 	movq	-16(%rbp), %rsi
100009dfc: 48 63 7d cc                 	movslq	-52(%rbp), %rdi
100009e00: 80 3c 3e 00                 	cmpb	$0, (%rsi,%rdi)
100009e04: 0f 84 3a 00 00 00           	je	58 <_get_token_cmd+0x154>
100009e0a: 31 c0                       	xorl	%eax, %eax
100009e0c: 89 c6                       	movl	%eax, %esi
100009e0e: 31 c0                       	xorl	%eax, %eax
100009e10: 48 8b 7d e0                 	movq	-32(%rbp), %rdi
100009e14: 48 8b 4d f0                 	movq	-16(%rbp), %rcx
100009e18: 48 63 55 cc                 	movslq	-52(%rbp), %rdx
100009e1c: 48 01 d1                    	addq	%rdx, %rcx
100009e1f: 48 89 7d c0                 	movq	%rdi, -64(%rbp)
100009e23: 48 89 cf                    	movq	%rcx, %rdi
100009e26: 89 c2                       	movl	%eax, %edx
100009e28: 89 c1                       	movl	%eax, %ecx
100009e2a: e8 31 3f 00 00              	callq	16177 <_get_argument>
100009e2f: 48 8b 7d c0                 	movq	-64(%rbp), %rdi
100009e33: 48 89 c6                    	movq	%rax, %rsi
100009e36: e8 15 e4 ff ff              	callq	-7147 <_execcmd_constructor>
100009e3b: 48 89 45 d0                 	movq	%rax, -48(%rbp)
100009e3f: e9 11 00 00 00              	jmp	17 <_get_token_cmd+0x165>
100009e44: 31 c0                       	xorl	%eax, %eax
100009e46: 89 c6                       	movl	%eax, %esi
100009e48: 48 8b 7d e0                 	movq	-32(%rbp), %rdi
100009e4c: e8 ff e3 ff ff              	callq	-7169 <_execcmd_constructor>
100009e51: 48 89 45 d0                 	movq	%rax, -48(%rbp)
100009e55: 48 8b 7d f0                 	movq	-16(%rbp), %rdi
100009e59: e8 be 56 00 00              	callq	22206 <dyld_stub_binder+0x10000f51c>
100009e5e: 48 8b 45 d0                 	movq	-48(%rbp), %rax
100009e62: 48 89 45 f8                 	movq	%rax, -8(%rbp)
100009e66: 48 8b 45 f8                 	movq	-8(%rbp), %rax
100009e6a: 48 83 c4 40                 	addq	$64, %rsp
100009e6e: 5d                          	popq	%rbp
100009e6f: c3                          	retq

0000000100009e70 _executable_parser:
100009e70: 55                          	pushq	%rbp
100009e71: 48 89 e5                    	movq	%rsp, %rbp
100009e74: 48 83 ec 30                 	subq	$48, %rsp
100009e78: 48 89 7d f0                 	movq	%rdi, -16(%rbp)
100009e7c: 48 83 7d f0 00              	cmpq	$0, -16(%rbp)
100009e81: 0f 85 0d 00 00 00           	jne	13 <_executable_parser+0x24>
100009e87: 48 c7 45 f8 00 00 00 00     	movq	$0, -8(%rbp)
100009e8f: e9 34 01 00 00              	jmp	308 <_executable_parser+0x158>
100009e94: c7 45 e4 00 00 00 00        	movl	$0, -28(%rbp)
100009e9b: c7 45 e0 00 00 00 00        	movl	$0, -32(%rbp)
100009ea2: c7 45 dc 00 00 00 00        	movl	$0, -36(%rbp)
100009ea9: 48 c7 45 e8 00 00 00 00     	movq	$0, -24(%rbp)
100009eb1: 48 8b 45 f0                 	movq	-16(%rbp), %rax
100009eb5: 80 38 00                    	cmpb	$0, (%rax)
100009eb8: 0f 85 16 00 00 00           	jne	22 <_executable_parser+0x64>
100009ebe: 48 8b 7d f0                 	movq	-16(%rbp), %rdi
100009ec2: e8 55 56 00 00              	callq	22101 <dyld_stub_binder+0x10000f51c>
100009ec7: 48 c7 45 f8 00 00 00 00     	movq	$0, -8(%rbp)
100009ecf: e9 f4 00 00 00              	jmp	244 <_executable_parser+0x158>
100009ed4: e9 00 00 00 00              	jmp	0 <_executable_parser+0x69>
100009ed9: 48 8b 45 f0                 	movq	-16(%rbp), %rax
100009edd: 48 63 4d e4                 	movslq	-28(%rbp), %rcx
100009ee1: 0f be 3c 08                 	movsbl	(%rax,%rcx), %edi
100009ee5: e8 96 49 00 00              	callq	18838 <_ft_isspace>
100009eea: 83 f8 00                    	cmpl	$0, %eax
100009eed: 0f 84 0e 00 00 00           	je	14 <_executable_parser+0x91>
100009ef3: 8b 45 e4                    	movl	-28(%rbp), %eax
100009ef6: 83 c0 01                    	addl	$1, %eax
100009ef9: 89 45 e4                    	movl	%eax, -28(%rbp)
100009efc: e9 d8 ff ff ff              	jmp	-40 <_executable_parser+0x69>
100009f01: e9 00 00 00 00              	jmp	0 <_executable_parser+0x96>
100009f06: 31 c0                       	xorl	%eax, %eax
100009f08: 48 8b 4d f0                 	movq	-16(%rbp), %rcx
100009f0c: 8b 55 e4                    	movl	-28(%rbp), %edx
100009f0f: 03 55 e0                    	addl	-32(%rbp), %edx
100009f12: 48 63 f2                    	movslq	%edx, %rsi
100009f15: 0f be 14 31                 	movsbl	(%rcx,%rsi), %edx
100009f19: 83 fa 00                    	cmpl	$0, %edx
100009f1c: 88 45 db                    	movb	%al, -37(%rbp)
100009f1f: 0f 84 25 00 00 00           	je	37 <_executable_parser+0xda>
100009f25: 48 8b 45 f0                 	movq	-16(%rbp), %rax
100009f29: 8b 4d e4                    	movl	-28(%rbp), %ecx
100009f2c: 03 4d e0                    	addl	-32(%rbp), %ecx
100009f2f: 48 63 d1                    	movslq	%ecx, %rdx
100009f32: 0f be 3c 10                 	movsbl	(%rax,%rdx), %edi
100009f36: e8 45 49 00 00              	callq	18757 <_ft_isspace>
100009f3b: 83 f8 00                    	cmpl	$0, %eax
100009f3e: 40 0f 95 c6                 	setne	%sil
100009f42: 40 80 f6 ff                 	xorb	$-1, %sil
100009f46: 40 88 75 db                 	movb	%sil, -37(%rbp)
100009f4a: 8a 45 db                    	movb	-37(%rbp), %al
100009f4d: a8 01                       	testb	$1, %al
100009f4f: 0f 85 05 00 00 00           	jne	5 <_executable_parser+0xea>
100009f55: e9 0e 00 00 00              	jmp	14 <_executable_parser+0xf8>
100009f5a: 8b 45 e0                    	movl	-32(%rbp), %eax
100009f5d: 83 c0 01                    	addl	$1, %eax
100009f60: 89 45 e0                    	movl	%eax, -32(%rbp)
100009f63: e9 9e ff ff ff              	jmp	-98 <_executable_parser+0x96>
100009f68: 48 8b 45 f0                 	movq	-16(%rbp), %rax
100009f6c: 48 63 4d e4                 	movslq	-28(%rbp), %rcx
100009f70: 48 01 c8                    	addq	%rcx, %rax
100009f73: 48 89 c7                    	movq	%rax, %rdi
100009f76: e8 c5 4b 00 00              	callq	19397 <_ft_strdup>
100009f7b: 8b 75 e0                    	movl	-32(%rbp), %esi
100009f7e: 48 89 c7                    	movq	%rax, %rdi
100009f81: e8 ca f7 ff ff              	callq	-2102 <_get_token_builtins>
100009f86: 48 89 45 e8                 	movq	%rax, -24(%rbp)
100009f8a: 48 83 7d e8 00              	cmpq	$0, -24(%rbp)
100009f8f: 0f 85 22 00 00 00           	jne	34 <_executable_parser+0x147>
100009f95: 48 8b 45 f0                 	movq	-16(%rbp), %rax
100009f99: 48 63 4d e4                 	movslq	-28(%rbp), %rcx
100009f9d: 48 01 c8                    	addq	%rcx, %rax
100009fa0: 48 89 c7                    	movq	%rax, %rdi
100009fa3: e8 98 4b 00 00              	callq	19352 <_ft_strdup>
100009fa8: 8b 75 e0                    	movl	-32(%rbp), %esi
100009fab: 48 89 c7                    	movq	%rax, %rdi
100009fae: e8 3d fd ff ff              	callq	-707 <_get_token_cmd>
100009fb3: 48 89 45 e8                 	movq	%rax, -24(%rbp)
100009fb7: 48 8b 7d f0                 	movq	-16(%rbp), %rdi
100009fbb: e8 5c 55 00 00              	callq	21852 <dyld_stub_binder+0x10000f51c>
100009fc0: 48 8b 45 e8                 	movq	-24(%rbp), %rax
100009fc4: 48 89 45 f8                 	movq	%rax, -8(%rbp)
100009fc8: 48 8b 45 f8                 	movq	-8(%rbp), %rax
100009fcc: 48 83 c4 30                 	addq	$48, %rsp
100009fd0: 5d                          	popq	%rbp
100009fd1: c3                          	retq
100009fd2: 90                          	nop
100009fd3: 90                          	nop
100009fd4: 90                          	nop
100009fd5: 90                          	nop
100009fd6: 90                          	nop
100009fd7: 90                          	nop
100009fd8: 90                          	nop
100009fd9: 90                          	nop
100009fda: 90                          	nop
100009fdb: 90                          	nop
100009fdc: 90                          	nop
100009fdd: 90                          	nop
100009fde: 90                          	nop
100009fdf: 90                          	nop

0000000100009fe0 _or_parser:
100009fe0: 55                          	pushq	%rbp
100009fe1: 48 89 e5                    	movq	%rsp, %rbp
100009fe4: 48 83 ec 30                 	subq	$48, %rsp
100009fe8: 48 89 7d f0                 	movq	%rdi, -16(%rbp)
100009fec: 48 83 7d f0 00              	cmpq	$0, -16(%rbp)
100009ff1: 0f 85 0d 00 00 00           	jne	13 <_or_parser+0x24>
100009ff7: 48 c7 45 f8 00 00 00 00     	movq	$0, -8(%rbp)
100009fff: e9 16 02 00 00              	jmp	534 <_or_parser+0x23a>
10000a004: c7 45 e4 00 00 00 00        	movl	$0, -28(%rbp)
10000a00b: 48 c7 45 e8 00 00 00 00     	movq	$0, -24(%rbp)
10000a013: 48 8d 7d d8                 	leaq	-40(%rbp), %rdi
10000a017: e8 b4 08 00 00              	callq	2228 <_set_zero_var>
10000a01c: 48 8b 7d f0                 	movq	-16(%rbp), %rdi
10000a020: e8 cb 0f 00 00              	callq	4043 <_skip_spaces_front>
10000a025: 89 45 e4                    	movl	%eax, -28(%rbp)
10000a028: 48 8b 4d f0                 	movq	-16(%rbp), %rcx
10000a02c: 48 63 55 e4                 	movslq	-28(%rbp), %rdx
10000a030: 0f be 04 11                 	movsbl	(%rcx,%rdx), %eax
10000a034: 83 f8 29                    	cmpl	$41, %eax
10000a037: 0f 84 2a 00 00 00           	je	42 <_or_parser+0x87>
10000a03d: 48 8b 45 f0                 	movq	-16(%rbp), %rax
10000a041: 48 63 4d e4                 	movslq	-28(%rbp), %rcx
10000a045: 0f be 14 08                 	movsbl	(%rax,%rcx), %edx
10000a049: 83 fa 26                    	cmpl	$38, %edx
10000a04c: 0f 84 15 00 00 00           	je	21 <_or_parser+0x87>
10000a052: 48 8b 45 f0                 	movq	-16(%rbp), %rax
10000a056: 48 63 4d e4                 	movslq	-28(%rbp), %rcx
10000a05a: 0f be 14 08                 	movsbl	(%rax,%rcx), %edx
10000a05e: 83 fa 7c                    	cmpl	$124, %edx
10000a061: 0f 85 2b 00 00 00           	jne	43 <_or_parser+0xb2>
10000a067: 48 8b 75 f0                 	movq	-16(%rbp), %rsi
10000a06b: 48 8b 45 f0                 	movq	-16(%rbp), %rax
10000a06f: 48 63 4d e4                 	movslq	-28(%rbp), %rcx
10000a073: 48 01 c8                    	addq	%rcx, %rax
10000a076: 48 8d 3d 31 5e 00 00        	leaq	24113(%rip), %rdi
10000a07d: 48 89 c2                    	movq	%rax, %rdx
10000a080: e8 bb 0f 00 00              	callq	4027 <_pr_custom_err>
10000a085: 48 c7 45 f8 00 00 00 00     	movq	$0, -8(%rbp)
10000a08d: e9 88 01 00 00              	jmp	392 <_or_parser+0x23a>
10000a092: e9 00 00 00 00              	jmp	0 <_or_parser+0xb7>
10000a097: 48 8b 45 f0                 	movq	-16(%rbp), %rax
10000a09b: 48 63 4d e4                 	movslq	-28(%rbp), %rcx
10000a09f: 80 3c 08 00                 	cmpb	$0, (%rax,%rcx)
10000a0a3: 0f 84 3e 01 00 00           	je	318 <_or_parser+0x207>
10000a0a9: 48 8b 45 f0                 	movq	-16(%rbp), %rax
10000a0ad: 48 63 4d e4                 	movslq	-28(%rbp), %rcx
10000a0b1: 0f be 3c 08                 	movsbl	(%rax,%rcx), %edi
10000a0b5: 48 8d 75 d8                 	leaq	-40(%rbp), %rsi
10000a0b9: e8 32 08 00 00              	callq	2098 <_check_out_of_quotes>
10000a0be: 48 8b 45 f0                 	movq	-16(%rbp), %rax
10000a0c2: 48 63 4d e4                 	movslq	-28(%rbp), %rcx
10000a0c6: 0f be 14 08                 	movsbl	(%rax,%rcx), %edx
10000a0ca: 83 fa 28                    	cmpl	$40, %edx
10000a0cd: 0f 85 49 00 00 00           	jne	73 <_or_parser+0x13c>
10000a0d3: 8a 45 d8                    	movb	-40(%rbp), %al
10000a0d6: 24 01                       	andb	$1, %al
10000a0d8: 0f b6 c8                    	movzbl	%al, %ecx
10000a0db: 83 f9 00                    	cmpl	$0, %ecx
10000a0de: 0f 85 38 00 00 00           	jne	56 <_or_parser+0x13c>
10000a0e4: 8a 45 d8                    	movb	-40(%rbp), %al
10000a0e7: c0 e8 01                    	shrb	$1, %al
10000a0ea: 24 01                       	andb	$1, %al
10000a0ec: 0f b6 c8                    	movzbl	%al, %ecx
10000a0ef: 83 f9 00                    	cmpl	$0, %ecx
10000a0f2: 0f 85 24 00 00 00           	jne	36 <_or_parser+0x13c>
10000a0f8: 48 8b 45 f0                 	movq	-16(%rbp), %rax
10000a0fc: 48 63 4d e4                 	movslq	-28(%rbp), %rcx
10000a100: 48 01 c8                    	addq	%rcx, %rax
10000a103: 48 05 01 00 00 00           	addq	$1, %rax
10000a109: 48 89 c7                    	movq	%rax, %rdi
10000a10c: e8 9f 06 00 00              	callq	1695 <_close_parenthise>
10000a111: 03 45 e4                    	addl	-28(%rbp), %eax
10000a114: 89 45 e4                    	movl	%eax, -28(%rbp)
10000a117: e9 7b ff ff ff              	jmp	-133 <_or_parser+0xb7>
10000a11c: 48 8b 45 f0                 	movq	-16(%rbp), %rax
10000a120: 48 63 4d e4                 	movslq	-28(%rbp), %rcx
10000a124: 0f be 14 08                 	movsbl	(%rax,%rcx), %edx
10000a128: 83 fa 7c                    	cmpl	$124, %edx
10000a12b: 0f 85 54 00 00 00           	jne	84 <_or_parser+0x1a5>
10000a131: 48 8b 45 f0                 	movq	-16(%rbp), %rax
10000a135: 8b 4d e4                    	movl	-28(%rbp), %ecx
10000a138: 83 c1 01                    	addl	$1, %ecx
10000a13b: 48 63 d1                    	movslq	%ecx, %rdx
10000a13e: 0f be 0c 10                 	movsbl	(%rax,%rdx), %ecx
10000a142: 83 f9 7c                    	cmpl	$124, %ecx
10000a145: 0f 85 3a 00 00 00           	jne	58 <_or_parser+0x1a5>
10000a14b: 8a 45 d8                    	movb	-40(%rbp), %al
10000a14e: 24 01                       	andb	$1, %al
10000a150: 0f b6 c8                    	movzbl	%al, %ecx
10000a153: 83 f9 00                    	cmpl	$0, %ecx
10000a156: 0f 85 29 00 00 00           	jne	41 <_or_parser+0x1a5>
10000a15c: 8a 45 d8                    	movb	-40(%rbp), %al
10000a15f: c0 e8 01                    	shrb	$1, %al
10000a162: 24 01                       	andb	$1, %al
10000a164: 0f b6 c8                    	movzbl	%al, %ecx
10000a167: 83 f9 00                    	cmpl	$0, %ecx
10000a16a: 0f 85 15 00 00 00           	jne	21 <_or_parser+0x1a5>
10000a170: 8b 75 e4                    	movl	-28(%rbp), %esi
10000a173: 48 8d 7d f0                 	leaq	-16(%rbp), %rdi
10000a177: e8 b4 00 00 00              	callq	180 <_call_or>
10000a17c: 48 89 45 e8                 	movq	%rax, -24(%rbp)
10000a180: e9 62 00 00 00              	jmp	98 <_or_parser+0x207>
10000a185: 48 8b 45 f0                 	movq	-16(%rbp), %rax
10000a189: 48 63 4d e4                 	movslq	-28(%rbp), %rcx
10000a18d: 0f be 14 08                 	movsbl	(%rax,%rcx), %edx
10000a191: 83 fa 7c                    	cmpl	$124, %edx
10000a194: 0f 85 3a 00 00 00           	jne	58 <_or_parser+0x1f4>
10000a19a: 8a 45 d8                    	movb	-40(%rbp), %al
10000a19d: 24 01                       	andb	$1, %al
10000a19f: 0f b6 c8                    	movzbl	%al, %ecx
10000a1a2: 83 f9 00                    	cmpl	$0, %ecx
10000a1a5: 0f 85 29 00 00 00           	jne	41 <_or_parser+0x1f4>
10000a1ab: 8a 45 d8                    	movb	-40(%rbp), %al
10000a1ae: c0 e8 01                    	shrb	$1, %al
10000a1b1: 24 01                       	andb	$1, %al
10000a1b3: 0f b6 c8                    	movzbl	%al, %ecx
10000a1b6: 83 f9 00                    	cmpl	$0, %ecx
10000a1b9: 0f 85 15 00 00 00           	jne	21 <_or_parser+0x1f4>
10000a1bf: 8b 75 e4                    	movl	-28(%rbp), %esi
10000a1c2: 48 8d 7d f0                 	leaq	-16(%rbp), %rdi
10000a1c6: e8 95 0f 00 00              	callq	3989 <_call_pipe>
10000a1cb: 48 89 45 e8                 	movq	%rax, -24(%rbp)
10000a1cf: e9 13 00 00 00              	jmp	19 <_or_parser+0x207>
10000a1d4: e9 00 00 00 00              	jmp	0 <_or_parser+0x1f9>
10000a1d9: 8b 45 e4                    	movl	-28(%rbp), %eax
10000a1dc: 83 c0 01                    	addl	$1, %eax
10000a1df: 89 45 e4                    	movl	%eax, -28(%rbp)
10000a1e2: e9 b0 fe ff ff              	jmp	-336 <_or_parser+0xb7>
10000a1e7: 48 83 7d e8 00              	cmpq	$0, -24(%rbp)
10000a1ec: 0f 85 20 00 00 00           	jne	32 <_or_parser+0x232>
10000a1f2: 48 83 7d f0 00              	cmpq	$0, -16(%rbp)
10000a1f7: 0f 84 15 00 00 00           	je	21 <_or_parser+0x232>
10000a1fd: 48 8b 7d f0                 	movq	-16(%rbp), %rdi
10000a201: e8 0a 02 00 00              	callq	522 <_remove_unused_parenthesis>
10000a206: 48 89 c7                    	movq	%rax, %rdi
10000a209: e8 32 10 00 00              	callq	4146 <_pipe_parser>
10000a20e: 48 89 45 e8                 	movq	%rax, -24(%rbp)
10000a212: 48 8b 45 e8                 	movq	-24(%rbp), %rax
10000a216: 48 89 45 f8                 	movq	%rax, -8(%rbp)
10000a21a: 48 8b 45 f8                 	movq	-8(%rbp), %rax
10000a21e: 48 83 c4 30                 	addq	$48, %rsp
10000a222: 5d                          	popq	%rbp
10000a223: c3                          	retq
10000a224: 66 2e 0f 1f 84 00 00 00 00 00       	nopw	%cs:(%rax,%rax)
10000a22e: 66 90                       	nop

000000010000a230 _call_or:
10000a230: 55                          	pushq	%rbp
10000a231: 48 89 e5                    	movq	%rsp, %rbp
10000a234: 48 83 ec 30                 	subq	$48, %rsp
10000a238: 48 89 7d f8                 	movq	%rdi, -8(%rbp)
10000a23c: 89 75 f4                    	movl	%esi, -12(%rbp)
10000a23f: 48 c7 45 e8 00 00 00 00     	movq	$0, -24(%rbp)
10000a247: 48 8b 45 f8                 	movq	-8(%rbp), %rax
10000a24b: 48 8b 00                    	movq	(%rax), %rax
10000a24e: 48 63 4d f4                 	movslq	-12(%rbp), %rcx
10000a252: 0f be 14 08                 	movsbl	(%rax,%rcx), %edx
10000a256: 83 fa 7c                    	cmpl	$124, %edx
10000a259: 0f 85 c2 00 00 00           	jne	194 <_call_or+0xf1>
10000a25f: 48 8b 45 f8                 	movq	-8(%rbp), %rax
10000a263: 48 8b 00                    	movq	(%rax), %rax
10000a266: 8b 4d f4                    	movl	-12(%rbp), %ecx
10000a269: 83 c1 01                    	addl	$1, %ecx
10000a26c: 48 63 d1                    	movslq	%ecx, %rdx
10000a26f: 0f be 0c 10                 	movsbl	(%rax,%rdx), %ecx
10000a273: 83 f9 7c                    	cmpl	$124, %ecx
10000a276: 0f 85 a5 00 00 00           	jne	165 <_call_or+0xf1>
10000a27c: 31 f6                       	xorl	%esi, %esi
10000a27e: 48 8b 45 f8                 	movq	-8(%rbp), %rax
10000a282: 48 8b 38                    	movq	(%rax), %rdi
10000a285: 48 63 55 f4                 	movslq	-12(%rbp), %rdx
10000a289: e8 82 4a 00 00              	callq	19074 <_ft_substr>
10000a28e: 48 89 c7                    	movq	%rax, %rdi
10000a291: e8 7a 01 00 00              	callq	378 <_remove_unused_parenthesis>
10000a296: 48 89 c7                    	movq	%rax, %rdi
10000a299: e8 f2 ef ff ff              	callq	-4110 <_and_parser>
10000a29e: 48 89 45 e8                 	movq	%rax, -24(%rbp)
10000a2a2: 48 8b 7d e8                 	movq	-24(%rbp), %rdi
10000a2a6: 48 8b 45 f8                 	movq	-8(%rbp), %rax
10000a2aa: 48 8b 00                    	movq	(%rax), %rax
10000a2ad: 8b 4d f4                    	movl	-12(%rbp), %ecx
10000a2b0: 83 c1 02                    	addl	$2, %ecx
10000a2b3: 48 8b 55 f8                 	movq	-8(%rbp), %rdx
10000a2b7: 48 8b 12                    	movq	(%rdx), %rdx
10000a2ba: 4c 63 45 f4                 	movslq	-12(%rbp), %r8
10000a2be: 4c 01 c2                    	addq	%r8, %rdx
10000a2c1: 48 81 c2 02 00 00 00        	addq	$2, %rdx
10000a2c8: 48 89 7d e0                 	movq	%rdi, -32(%rbp)
10000a2cc: 48 89 d7                    	movq	%rdx, %rdi
10000a2cf: 48 89 45 d8                 	movq	%rax, -40(%rbp)
10000a2d3: 89 4d d4                    	movl	%ecx, -44(%rbp)
10000a2d6: e8 05 49 00 00              	callq	18693 <_ft_strlen>
10000a2db: 48 8b 7d d8                 	movq	-40(%rbp), %rdi
10000a2df: 8b 75 d4                    	movl	-44(%rbp), %esi
10000a2e2: 48 89 c2                    	movq	%rax, %rdx
10000a2e5: e8 26 4a 00 00              	callq	18982 <_ft_substr>
10000a2ea: 48 89 c7                    	movq	%rax, %rdi
10000a2ed: e8 1e 01 00 00              	callq	286 <_remove_unused_parenthesis>
10000a2f2: 48 89 c7                    	movq	%rax, %rdi
10000a2f5: e8 96 ef ff ff              	callq	-4202 <_and_parser>
10000a2fa: 48 8b 7d e0                 	movq	-32(%rbp), %rdi
10000a2fe: 48 89 c6                    	movq	%rax, %rsi
10000a301: e8 7a e1 ff ff              	callq	-7814 <_or_constructor>
10000a306: 48 89 45 e8                 	movq	%rax, -24(%rbp)
10000a30a: 48 8b 45 f8                 	movq	-8(%rbp), %rax
10000a30e: 48 8b 38                    	movq	(%rax), %rdi
10000a311: e8 06 52 00 00              	callq	20998 <dyld_stub_binder+0x10000f51c>
10000a316: 48 8b 45 f8                 	movq	-8(%rbp), %rax
10000a31a: 48 c7 00 00 00 00 00        	movq	$0, (%rax)
10000a321: 48 8b 45 e8                 	movq	-24(%rbp), %rax
10000a325: 48 83 c4 30                 	addq	$48, %rsp
10000a329: 5d                          	popq	%rbp
10000a32a: c3                          	retq
10000a32b: 90                          	nop
10000a32c: 90                          	nop
10000a32d: 90                          	nop
10000a32e: 90                          	nop
10000a32f: 90                          	nop

000000010000a330 _remove_selected_parenthesis:
10000a330: 55                          	pushq	%rbp
10000a331: 48 89 e5                    	movq	%rsp, %rbp
10000a334: 48 83 ec 30                 	subq	$48, %rsp
10000a338: 48 89 7d f8                 	movq	%rdi, -8(%rbp)
10000a33c: 89 75 f4                    	movl	%esi, -12(%rbp)
10000a33f: 89 55 f0                    	movl	%edx, -16(%rbp)
10000a342: 89 4d ec                    	movl	%ecx, -20(%rbp)
10000a345: 8b 45 f0                    	movl	-16(%rbp), %eax
10000a348: 83 c0 01                    	addl	$1, %eax
10000a34b: 89 45 f0                    	movl	%eax, -16(%rbp)
10000a34e: 31 c0                       	xorl	%eax, %eax
10000a350: 48 8b 4d f8                 	movq	-8(%rbp), %rcx
10000a354: 8b 55 f4                    	movl	-12(%rbp), %edx
10000a357: 03 55 f0                    	addl	-16(%rbp), %edx
10000a35a: 48 63 f2                    	movslq	%edx, %rsi
10000a35d: 0f be 14 31                 	movsbl	(%rcx,%rsi), %edx
10000a361: 83 fa 00                    	cmpl	$0, %edx
10000a364: 88 45 df                    	movb	%al, -33(%rbp)
10000a367: 0f 84 21 00 00 00           	je	33 <_remove_selected_parenthesis+0x5e>
10000a36d: 48 8b 45 f8                 	movq	-8(%rbp), %rax
10000a371: 8b 4d f4                    	movl	-12(%rbp), %ecx
10000a374: 03 4d f0                    	addl	-16(%rbp), %ecx
10000a377: 48 63 d1                    	movslq	%ecx, %rdx
10000a37a: 0f be 3c 10                 	movsbl	(%rax,%rdx), %edi
10000a37e: e8 fd 44 00 00              	callq	17661 <_ft_isspace>
10000a383: 83 f8 00                    	cmpl	$0, %eax
10000a386: 40 0f 95 c6                 	setne	%sil
10000a38a: 40 88 75 df                 	movb	%sil, -33(%rbp)
10000a38e: 8a 45 df                    	movb	-33(%rbp), %al
10000a391: a8 01                       	testb	$1, %al
10000a393: 0f 85 05 00 00 00           	jne	5 <_remove_selected_parenthesis+0x6e>
10000a399: e9 0e 00 00 00              	jmp	14 <_remove_selected_parenthesis+0x7c>
10000a39e: 8b 45 f0                    	movl	-16(%rbp), %eax
10000a3a1: 83 c0 01                    	addl	$1, %eax
10000a3a4: 89 45 f0                    	movl	%eax, -16(%rbp)
10000a3a7: e9 a2 ff ff ff              	jmp	-94 <_remove_selected_parenthesis+0x1e>
10000a3ac: 48 8b 45 f8                 	movq	-8(%rbp), %rax
10000a3b0: 8b 4d f4                    	movl	-12(%rbp), %ecx
10000a3b3: 03 4d f0                    	addl	-16(%rbp), %ecx
10000a3b6: 48 63 d1                    	movslq	%ecx, %rdx
10000a3b9: 80 3c 10 00                 	cmpb	$0, (%rax,%rdx)
10000a3bd: 0f 85 3e 00 00 00           	jne	62 <_remove_selected_parenthesis+0xd1>
10000a3c3: 8b 45 ec                    	movl	-20(%rbp), %eax
10000a3c6: 3b 45 f4                    	cmpl	-12(%rbp), %eax
10000a3c9: 0f 8e 32 00 00 00           	jle	50 <_remove_selected_parenthesis+0xd1>
10000a3cf: 48 8b 45 f8                 	movq	-8(%rbp), %rax
10000a3d3: 48 89 45 e0                 	movq	%rax, -32(%rbp)
10000a3d7: 48 8b 7d f8                 	movq	-8(%rbp), %rdi
10000a3db: 8b 75 f4                    	movl	-12(%rbp), %esi
10000a3de: 8b 4d ec                    	movl	-20(%rbp), %ecx
10000a3e1: 2b 4d f4                    	subl	-12(%rbp), %ecx
10000a3e4: 48 63 d1                    	movslq	%ecx, %rdx
10000a3e7: e8 24 49 00 00              	callq	18724 <_ft_substr>
10000a3ec: 48 89 c7                    	movq	%rax, %rdi
10000a3ef: e8 1c 00 00 00              	callq	28 <_remove_unused_parenthesis>
10000a3f4: 48 89 45 f8                 	movq	%rax, -8(%rbp)
10000a3f8: 48 8b 7d e0                 	movq	-32(%rbp), %rdi
10000a3fc: e8 1b 51 00 00              	callq	20763 <dyld_stub_binder+0x10000f51c>
10000a401: 48 8b 45 f8                 	movq	-8(%rbp), %rax
10000a405: 48 83 c4 30                 	addq	$48, %rsp
10000a409: 5d                          	popq	%rbp
10000a40a: c3                          	retq
10000a40b: 0f 1f 44 00 00              	nopl	(%rax,%rax)

000000010000a410 _remove_unused_parenthesis:
10000a410: 55                          	pushq	%rbp
10000a411: 48 89 e5                    	movq	%rsp, %rbp
10000a414: 48 83 ec 30                 	subq	$48, %rsp
10000a418: 48 89 7d f0                 	movq	%rdi, -16(%rbp)
10000a41c: 48 8d 7d e0                 	leaq	-32(%rbp), %rdi
10000a420: e8 ab 04 00 00              	callq	1195 <_set_zero_var>
10000a425: c7 45 ec 00 00 00 00        	movl	$0, -20(%rbp)
10000a42c: c7 45 e8 00 00 00 00        	movl	$0, -24(%rbp)
10000a433: c7 45 e4 00 00 00 00        	movl	$0, -28(%rbp)
10000a43a: 31 c0                       	xorl	%eax, %eax
10000a43c: 48 8b 4d f0                 	movq	-16(%rbp), %rcx
10000a440: 48 63 55 ec                 	movslq	-20(%rbp), %rdx
10000a444: 0f be 34 11                 	movsbl	(%rcx,%rdx), %esi
10000a448: 83 fe 00                    	cmpl	$0, %esi
10000a44b: 88 45 d7                    	movb	%al, -41(%rbp)
10000a44e: 0f 84 1a 00 00 00           	je	26 <_remove_unused_parenthesis+0x5e>
10000a454: 48 8b 45 f0                 	movq	-16(%rbp), %rax
10000a458: 48 63 4d ec                 	movslq	-20(%rbp), %rcx
10000a45c: 0f be 3c 08                 	movsbl	(%rax,%rcx), %edi
10000a460: e8 1b 44 00 00              	callq	17435 <_ft_isspace>
10000a465: 83 f8 00                    	cmpl	$0, %eax
10000a468: 0f 95 c2                    	setne	%dl
10000a46b: 88 55 d7                    	movb	%dl, -41(%rbp)
10000a46e: 8a 45 d7                    	movb	-41(%rbp), %al
10000a471: a8 01                       	testb	$1, %al
10000a473: 0f 85 05 00 00 00           	jne	5 <_remove_unused_parenthesis+0x6e>
10000a479: e9 0e 00 00 00              	jmp	14 <_remove_unused_parenthesis+0x7c>
10000a47e: 8b 45 ec                    	movl	-20(%rbp), %eax
10000a481: 83 c0 01                    	addl	$1, %eax
10000a484: 89 45 ec                    	movl	%eax, -20(%rbp)
10000a487: e9 ae ff ff ff              	jmp	-82 <_remove_unused_parenthesis+0x2a>
10000a48c: 48 8b 45 f0                 	movq	-16(%rbp), %rax
10000a490: 48 63 4d ec                 	movslq	-20(%rbp), %rcx
10000a494: 0f be 14 08                 	movsbl	(%rax,%rcx), %edx
10000a498: 83 fa 00                    	cmpl	$0, %edx
10000a49b: 0f 84 27 00 00 00           	je	39 <_remove_unused_parenthesis+0xb8>
10000a4a1: 48 8b 45 f0                 	movq	-16(%rbp), %rax
10000a4a5: 48 63 4d ec                 	movslq	-20(%rbp), %rcx
10000a4a9: 0f be 14 08                 	movsbl	(%rax,%rcx), %edx
10000a4ad: 83 fa 28                    	cmpl	$40, %edx
10000a4b0: 0f 85 12 00 00 00           	jne	18 <_remove_unused_parenthesis+0xb8>
10000a4b6: 8b 45 e8                    	movl	-24(%rbp), %eax
10000a4b9: 83 c0 01                    	addl	$1, %eax
10000a4bc: 89 45 e8                    	movl	%eax, -24(%rbp)
10000a4bf: 8b 45 ec                    	movl	-20(%rbp), %eax
10000a4c2: 83 c0 01                    	addl	$1, %eax
10000a4c5: 89 45 ec                    	movl	%eax, -20(%rbp)
10000a4c8: 83 7d e8 00                 	cmpl	$0, -24(%rbp)
10000a4cc: 0f 84 1b 00 00 00           	je	27 <_remove_unused_parenthesis+0xdd>
10000a4d2: 48 8b 7d f0                 	movq	-16(%rbp), %rdi
10000a4d6: 8b 75 ec                    	movl	-20(%rbp), %esi
10000a4d9: 8b 4d e8                    	movl	-24(%rbp), %ecx
10000a4dc: 8b 55 e0                    	movl	-32(%rbp), %edx
10000a4df: e8 3c 00 00 00              	callq	60 <_select_unused_parenthesis>
10000a4e4: 48 89 45 f0                 	movq	%rax, -16(%rbp)
10000a4e8: e9 12 00 00 00              	jmp	18 <_remove_unused_parenthesis+0xef>
10000a4ed: 48 8b 7d f0                 	movq	-16(%rbp), %rdi
10000a4f1: e8 fa 01 00 00              	callq	506 <_remove_parenthisis_syntax_checker>
10000a4f6: 48 89 45 f8                 	movq	%rax, -8(%rbp)
10000a4fa: e9 08 00 00 00              	jmp	8 <_remove_unused_parenthesis+0xf7>
10000a4ff: 48 8b 45 f0                 	movq	-16(%rbp), %rax
10000a503: 48 89 45 f8                 	movq	%rax, -8(%rbp)
10000a507: 48 8b 45 f8                 	movq	-8(%rbp), %rax
10000a50b: 48 83 c4 30                 	addq	$48, %rsp
10000a50f: 5d                          	popq	%rbp
10000a510: c3                          	retq
10000a511: 66 2e 0f 1f 84 00 00 00 00 00       	nopw	%cs:(%rax,%rax)
10000a51b: 0f 1f 44 00 00              	nopl	(%rax,%rax)

000000010000a520 _select_unused_parenthesis:
10000a520: 55                          	pushq	%rbp
10000a521: 48 89 e5                    	movq	%rsp, %rbp
10000a524: 48 83 ec 30                 	subq	$48, %rsp
10000a528: 89 55 f8                    	movl	%edx, -8(%rbp)
10000a52b: 48 89 7d f0                 	movq	%rdi, -16(%rbp)
10000a52f: 89 75 ec                    	movl	%esi, -20(%rbp)
10000a532: 89 4d e8                    	movl	%ecx, -24(%rbp)
10000a535: c7 45 dc 00 00 00 00        	movl	$0, -36(%rbp)
10000a53c: c7 45 e0 00 00 00 00        	movl	$0, -32(%rbp)
10000a543: c7 45 e4 ff ff ff ff        	movl	$4294967295, -28(%rbp)
10000a54a: 48 8b 45 f0                 	movq	-16(%rbp), %rax
10000a54e: 8b 4d ec                    	movl	-20(%rbp), %ecx
10000a551: 8b 55 e4                    	movl	-28(%rbp), %edx
10000a554: 83 c2 01                    	addl	$1, %edx
10000a557: 89 55 e4                    	movl	%edx, -28(%rbp)
10000a55a: 01 d1                       	addl	%edx, %ecx
10000a55c: 48 63 f1                    	movslq	%ecx, %rsi
10000a55f: 80 3c 30 00                 	cmpb	$0, (%rax,%rsi)
10000a563: 0f 84 e9 00 00 00           	je	233 <_select_unused_parenthesis+0x132>
10000a569: 48 8b 45 f0                 	movq	-16(%rbp), %rax
10000a56d: 8b 4d ec                    	movl	-20(%rbp), %ecx
10000a570: 03 4d e4                    	addl	-28(%rbp), %ecx
10000a573: 48 63 d1                    	movslq	%ecx, %rdx
10000a576: 0f be 3c 10                 	movsbl	(%rax,%rdx), %edi
10000a57a: 48 8d 75 f8                 	leaq	-8(%rbp), %rsi
10000a57e: e8 6d 03 00 00              	callq	877 <_check_out_of_quotes>
10000a583: 48 8b 45 f0                 	movq	-16(%rbp), %rax
10000a587: 8b 4d ec                    	movl	-20(%rbp), %ecx
10000a58a: 03 4d e4                    	addl	-28(%rbp), %ecx
10000a58d: 48 63 d1                    	movslq	%ecx, %rdx
10000a590: 0f be 0c 10                 	movsbl	(%rax,%rdx), %ecx
10000a594: 83 f9 28                    	cmpl	$40, %ecx
10000a597: 0f 85 33 00 00 00           	jne	51 <_select_unused_parenthesis+0xb0>
10000a59d: 8a 45 f8                    	movb	-8(%rbp), %al
10000a5a0: 24 01                       	andb	$1, %al
10000a5a2: 0f b6 c8                    	movzbl	%al, %ecx
10000a5a5: 83 f9 00                    	cmpl	$0, %ecx
10000a5a8: 0f 85 22 00 00 00           	jne	34 <_select_unused_parenthesis+0xb0>
10000a5ae: 8a 45 f8                    	movb	-8(%rbp), %al
10000a5b1: c0 e8 01                    	shrb	$1, %al
10000a5b4: 24 01                       	andb	$1, %al
10000a5b6: 0f b6 c8                    	movzbl	%al, %ecx
10000a5b9: 83 f9 00                    	cmpl	$0, %ecx
10000a5bc: 0f 85 0e 00 00 00           	jne	14 <_select_unused_parenthesis+0xb0>
10000a5c2: 8b 45 e8                    	movl	-24(%rbp), %eax
10000a5c5: 83 c0 01                    	addl	$1, %eax
10000a5c8: 89 45 e8                    	movl	%eax, -24(%rbp)
10000a5cb: e9 56 00 00 00              	jmp	86 <_select_unused_parenthesis+0x106>
10000a5d0: 48 8b 45 f0                 	movq	-16(%rbp), %rax
10000a5d4: 8b 4d ec                    	movl	-20(%rbp), %ecx
10000a5d7: 03 4d e4                    	addl	-28(%rbp), %ecx
10000a5da: 48 63 d1                    	movslq	%ecx, %rdx
10000a5dd: 0f be 0c 10                 	movsbl	(%rax,%rdx), %ecx
10000a5e1: 83 f9 29                    	cmpl	$41, %ecx
10000a5e4: 0f 85 37 00 00 00           	jne	55 <_select_unused_parenthesis+0x101>
10000a5ea: 8a 45 f8                    	movb	-8(%rbp), %al
10000a5ed: 24 01                       	andb	$1, %al
10000a5ef: 0f b6 c8                    	movzbl	%al, %ecx
10000a5f2: 83 f9 00                    	cmpl	$0, %ecx
10000a5f5: 0f 85 26 00 00 00           	jne	38 <_select_unused_parenthesis+0x101>
10000a5fb: 8a 45 f8                    	movb	-8(%rbp), %al
10000a5fe: c0 e8 01                    	shrb	$1, %al
10000a601: 24 01                       	andb	$1, %al
10000a603: 0f b6 c8                    	movzbl	%al, %ecx
10000a606: 83 f9 00                    	cmpl	$0, %ecx
10000a609: 0f 85 12 00 00 00           	jne	18 <_select_unused_parenthesis+0x101>
10000a60f: 8b 45 e0                    	movl	-32(%rbp), %eax
10000a612: 83 c0 01                    	addl	$1, %eax
10000a615: 89 45 e0                    	movl	%eax, -32(%rbp)
10000a618: 8b 45 ec                    	movl	-20(%rbp), %eax
10000a61b: 03 45 e4                    	addl	-28(%rbp), %eax
10000a61e: 89 45 dc                    	movl	%eax, -36(%rbp)
10000a621: e9 00 00 00 00              	jmp	0 <_select_unused_parenthesis+0x106>
10000a626: 8b 45 e8                    	movl	-24(%rbp), %eax
10000a629: 3b 45 e0                    	cmpl	-32(%rbp), %eax
10000a62c: 0f 85 1b 00 00 00           	jne	27 <_select_unused_parenthesis+0x12d>
10000a632: 48 8b 7d f0                 	movq	-16(%rbp), %rdi
10000a636: 8b 75 ec                    	movl	-20(%rbp), %esi
10000a639: 8b 55 e4                    	movl	-28(%rbp), %edx
10000a63c: 8b 4d dc                    	movl	-36(%rbp), %ecx
10000a63f: e8 ec fc ff ff              	callq	-788 <_remove_selected_parenthesis>
10000a644: 48 89 45 f0                 	movq	%rax, -16(%rbp)
10000a648: e9 05 00 00 00              	jmp	5 <_select_unused_parenthesis+0x132>
10000a64d: e9 f8 fe ff ff              	jmp	-264 <_select_unused_parenthesis+0x2a>
10000a652: 48 8b 45 f0                 	movq	-16(%rbp), %rax
10000a656: 48 83 c4 30                 	addq	$48, %rsp
10000a65a: 5d                          	popq	%rbp
10000a65b: c3                          	retq
10000a65c: 0f 1f 40 00                 	nopl	(%rax)

000000010000a660 _has_syntax_error:
10000a660: 55                          	pushq	%rbp
10000a661: 48 89 e5                    	movq	%rsp, %rbp
10000a664: 48 89 7d f8                 	movq	%rdi, -8(%rbp)
10000a668: 89 75 f4                    	movl	%esi, -12(%rbp)
10000a66b: c7 45 f0 00 00 00 00        	movl	$0, -16(%rbp)
10000a672: c7 45 ec 00 00 00 00        	movl	$0, -20(%rbp)
10000a679: 83 7d f4 00                 	cmpl	$0, -12(%rbp)
10000a67d: 0f 84 5a 00 00 00           	je	90 <_has_syntax_error+0x7d>
10000a683: 48 8b 45 f8                 	movq	-8(%rbp), %rax
10000a687: 8b 4d f4                    	movl	-12(%rbp), %ecx
10000a68a: 83 e9 01                    	subl	$1, %ecx
10000a68d: 48 63 d1                    	movslq	%ecx, %rdx
10000a690: 0f be 0c 10                 	movsbl	(%rax,%rdx), %ecx
10000a694: 83 f9 7c                    	cmpl	$124, %ecx
10000a697: 0f 85 0c 00 00 00           	jne	12 <_has_syntax_error+0x49>
10000a69d: c7 45 f0 01 00 00 00        	movl	$1, -16(%rbp)
10000a6a4: e9 26 00 00 00              	jmp	38 <_has_syntax_error+0x6f>
10000a6a9: 48 8b 45 f8                 	movq	-8(%rbp), %rax
10000a6ad: 8b 4d f4                    	movl	-12(%rbp), %ecx
10000a6b0: 83 e9 01                    	subl	$1, %ecx
10000a6b3: 48 63 d1                    	movslq	%ecx, %rdx
10000a6b6: 0f be 0c 10                 	movsbl	(%rax,%rdx), %ecx
10000a6ba: 83 f9 3c                    	cmpl	$60, %ecx
10000a6bd: 0f 85 07 00 00 00           	jne	7 <_has_syntax_error+0x6a>
10000a6c3: c7 45 ec 01 00 00 00        	movl	$1, -20(%rbp)
10000a6ca: e9 00 00 00 00              	jmp	0 <_has_syntax_error+0x6f>
10000a6cf: 8b 45 f4                    	movl	-12(%rbp), %eax
10000a6d2: 83 c0 ff                    	addl	$-1, %eax
10000a6d5: 89 45 f4                    	movl	%eax, -12(%rbp)
10000a6d8: e9 9c ff ff ff              	jmp	-100 <_has_syntax_error+0x19>
10000a6dd: 8b 45 f0                    	movl	-16(%rbp), %eax
10000a6e0: 0b 45 ec                    	orl	-20(%rbp), %eax
10000a6e3: 5d                          	popq	%rbp
10000a6e4: c3                          	retq
10000a6e5: 66 2e 0f 1f 84 00 00 00 00 00       	nopw	%cs:(%rax,%rax)
10000a6ef: 90                          	nop

000000010000a6f0 _remove_parenthisis_syntax_checker:
10000a6f0: 55                          	pushq	%rbp
10000a6f1: 48 89 e5                    	movq	%rsp, %rbp
10000a6f4: 48 83 ec 20                 	subq	$32, %rsp
10000a6f8: 48 89 7d f0                 	movq	%rdi, -16(%rbp)
10000a6fc: c7 45 e4 00 00 00 00        	movl	$0, -28(%rbp)
10000a703: 48 8b 45 f0                 	movq	-16(%rbp), %rax
10000a707: 48 63 4d e4                 	movslq	-28(%rbp), %rcx
10000a70b: 80 3c 08 00                 	cmpb	$0, (%rax,%rcx)
10000a70f: 0f 84 7f 00 00 00           	je	127 <_remove_parenthisis_syntax_checker+0xa4>
10000a715: 48 8b 45 f0                 	movq	-16(%rbp), %rax
10000a719: 48 63 4d e4                 	movslq	-28(%rbp), %rcx
10000a71d: 0f be 14 08                 	movsbl	(%rax,%rcx), %edx
10000a721: 83 fa 28                    	cmpl	$40, %edx
10000a724: 0f 85 5c 00 00 00           	jne	92 <_remove_parenthisis_syntax_checker+0x96>
10000a72a: 83 7d e4 00                 	cmpl	$0, -28(%rbp)
10000a72e: 0f 84 52 00 00 00           	je	82 <_remove_parenthisis_syntax_checker+0x96>
10000a734: 48 8b 7d f0                 	movq	-16(%rbp), %rdi
10000a738: 8b 75 e4                    	movl	-28(%rbp), %esi
10000a73b: e8 20 ff ff ff              	callq	-224 <_has_syntax_error>
10000a740: 83 f8 00                    	cmpl	$0, %eax
10000a743: 0f 85 3d 00 00 00           	jne	61 <_remove_parenthisis_syntax_checker+0x96>
10000a749: 31 f6                       	xorl	%esi, %esi
10000a74b: 48 8b 7d f0                 	movq	-16(%rbp), %rdi
10000a74f: 48 63 55 e4                 	movslq	-28(%rbp), %rdx
10000a753: e8 b8 45 00 00              	callq	17848 <_ft_substr>
10000a758: 48 89 45 e8                 	movq	%rax, -24(%rbp)
10000a75c: 48 8b 7d f0                 	movq	-16(%rbp), %rdi
10000a760: e8 b7 4d 00 00              	callq	19895 <dyld_stub_binder+0x10000f51c>
10000a765: 48 8b 75 e8                 	movq	-24(%rbp), %rsi
10000a769: 48 8b 55 e8                 	movq	-24(%rbp), %rdx
10000a76d: 48 8d 3d 0b 56 00 00        	leaq	22027(%rip), %rdi
10000a774: e8 c7 08 00 00              	callq	2247 <_pr_custom_err>
10000a779: 48 c7 45 f8 00 00 00 00     	movq	$0, -8(%rbp)
10000a781: e9 16 00 00 00              	jmp	22 <_remove_parenthisis_syntax_checker+0xac>
10000a786: 8b 45 e4                    	movl	-28(%rbp), %eax
10000a789: 83 c0 01                    	addl	$1, %eax
10000a78c: 89 45 e4                    	movl	%eax, -28(%rbp)
10000a78f: e9 6f ff ff ff              	jmp	-145 <_remove_parenthisis_syntax_checker+0x13>
10000a794: 48 8b 45 f0                 	movq	-16(%rbp), %rax
10000a798: 48 89 45 f8                 	movq	%rax, -8(%rbp)
10000a79c: 48 8b 45 f8                 	movq	-8(%rbp), %rax
10000a7a0: 48 83 c4 20                 	addq	$32, %rsp
10000a7a4: 5d                          	popq	%rbp
10000a7a5: c3                          	retq
10000a7a6: 90                          	nop
10000a7a7: 90                          	nop
10000a7a8: 90                          	nop
10000a7a9: 90                          	nop
10000a7aa: 90                          	nop
10000a7ab: 90                          	nop
10000a7ac: 90                          	nop
10000a7ad: 90                          	nop
10000a7ae: 90                          	nop
10000a7af: 90                          	nop

000000010000a7b0 _close_parenthise:
10000a7b0: 55                          	pushq	%rbp
10000a7b1: 48 89 e5                    	movq	%rsp, %rbp
10000a7b4: 48 83 ec 20                 	subq	$32, %rsp
10000a7b8: 48 89 7d f8                 	movq	%rdi, -8(%rbp)
10000a7bc: c7 45 f4 00 00 00 00        	movl	$0, -12(%rbp)
10000a7c3: 48 8d 7d e8                 	leaq	-24(%rbp), %rdi
10000a7c7: e8 04 01 00 00              	callq	260 <_set_zero_var>
10000a7cc: c7 45 f0 01 00 00 00        	movl	$1, -16(%rbp)
10000a7d3: c7 45 ec 00 00 00 00        	movl	$0, -20(%rbp)
10000a7da: 48 8b 45 f8                 	movq	-8(%rbp), %rax
10000a7de: 48 63 4d f4                 	movslq	-12(%rbp), %rcx
10000a7e2: 80 3c 08 00                 	cmpb	$0, (%rax,%rcx)
10000a7e6: 0f 84 cd 00 00 00           	je	205 <_close_parenthise+0x109>
10000a7ec: 48 8b 45 f8                 	movq	-8(%rbp), %rax
10000a7f0: 48 63 4d f4                 	movslq	-12(%rbp), %rcx
10000a7f4: 0f be 3c 08                 	movsbl	(%rax,%rcx), %edi
10000a7f8: 48 8d 75 e8                 	leaq	-24(%rbp), %rsi
10000a7fc: e8 ef 00 00 00              	callq	239 <_check_out_of_quotes>
10000a801: 48 8b 45 f8                 	movq	-8(%rbp), %rax
10000a805: 48 63 4d f4                 	movslq	-12(%rbp), %rcx
10000a809: 0f be 14 08                 	movsbl	(%rax,%rcx), %edx
10000a80d: 83 fa 28                    	cmpl	$40, %edx
10000a810: 0f 85 33 00 00 00           	jne	51 <_close_parenthise+0x99>
10000a816: 8a 45 e8                    	movb	-24(%rbp), %al
10000a819: c0 e8 01                    	shrb	$1, %al
10000a81c: 24 01                       	andb	$1, %al
10000a81e: 0f b6 c8                    	movzbl	%al, %ecx
10000a821: 83 f9 00                    	cmpl	$0, %ecx
10000a824: 0f 85 1f 00 00 00           	jne	31 <_close_parenthise+0x99>
10000a82a: 8a 45 e8                    	movb	-24(%rbp), %al
10000a82d: 24 01                       	andb	$1, %al
10000a82f: 0f b6 c8                    	movzbl	%al, %ecx
10000a832: 83 f9 00                    	cmpl	$0, %ecx
10000a835: 0f 85 0e 00 00 00           	jne	14 <_close_parenthise+0x99>
10000a83b: 8b 45 f0                    	movl	-16(%rbp), %eax
10000a83e: 83 c0 01                    	addl	$1, %eax
10000a841: 89 45 f0                    	movl	%eax, -16(%rbp)
10000a844: e9 48 00 00 00              	jmp	72 <_close_parenthise+0xe1>
10000a849: 48 8b 45 f8                 	movq	-8(%rbp), %rax
10000a84d: 48 63 4d f4                 	movslq	-12(%rbp), %rcx
10000a851: 0f be 14 08                 	movsbl	(%rax,%rcx), %edx
10000a855: 83 fa 29                    	cmpl	$41, %edx
10000a858: 0f 85 2e 00 00 00           	jne	46 <_close_parenthise+0xdc>
10000a85e: 8a 45 e8                    	movb	-24(%rbp), %al
10000a861: c0 e8 01                    	shrb	$1, %al
10000a864: 24 01                       	andb	$1, %al
10000a866: 0f b6 c8                    	movzbl	%al, %ecx
10000a869: 83 f9 00                    	cmpl	$0, %ecx
10000a86c: 0f 85 1a 00 00 00           	jne	26 <_close_parenthise+0xdc>
10000a872: 8a 45 e8                    	movb	-24(%rbp), %al
10000a875: 24 01                       	andb	$1, %al
10000a877: 0f b6 c8                    	movzbl	%al, %ecx
10000a87a: 83 f9 00                    	cmpl	$0, %ecx
10000a87d: 0f 85 09 00 00 00           	jne	9 <_close_parenthise+0xdc>
10000a883: 8b 45 ec                    	movl	-20(%rbp), %eax
10000a886: 83 c0 01                    	addl	$1, %eax
10000a889: 89 45 ec                    	movl	%eax, -20(%rbp)
10000a88c: e9 00 00 00 00              	jmp	0 <_close_parenthise+0xe1>
10000a891: 8b 45 f4                    	movl	-12(%rbp), %eax
10000a894: 83 c0 01                    	addl	$1, %eax
10000a897: 89 45 f4                    	movl	%eax, -12(%rbp)
10000a89a: 8b 45 ec                    	movl	-20(%rbp), %eax
10000a89d: 3b 45 f0                    	cmpl	-16(%rbp), %eax
10000a8a0: 0f 85 0e 00 00 00           	jne	14 <_close_parenthise+0x104>
10000a8a6: 8b 45 f4                    	movl	-12(%rbp), %eax
10000a8a9: 83 c0 01                    	addl	$1, %eax
10000a8ac: 89 45 f4                    	movl	%eax, -12(%rbp)
10000a8af: e9 05 00 00 00              	jmp	5 <_close_parenthise+0x109>
10000a8b4: e9 21 ff ff ff              	jmp	-223 <_close_parenthise+0x2a>
10000a8b9: 8b 45 f4                    	movl	-12(%rbp), %eax
10000a8bc: 48 83 c4 20                 	addq	$32, %rsp
10000a8c0: 5d                          	popq	%rbp
10000a8c1: c3                          	retq
10000a8c2: 66 2e 0f 1f 84 00 00 00 00 00       	nopw	%cs:(%rax,%rax)
10000a8cc: 0f 1f 40 00                 	nopl	(%rax)

000000010000a8d0 _set_zero_var:
10000a8d0: 55                          	pushq	%rbp
10000a8d1: 48 89 e5                    	movq	%rsp, %rbp
10000a8d4: 48 89 7d f8                 	movq	%rdi, -8(%rbp)
10000a8d8: 48 8b 45 f8                 	movq	-8(%rbp), %rax
10000a8dc: 8a 08                       	movb	(%rax), %cl
10000a8de: 80 e1 fd                    	andb	$-3, %cl
10000a8e1: 88 08                       	movb	%cl, (%rax)
10000a8e3: 48 8b 45 f8                 	movq	-8(%rbp), %rax
10000a8e7: 8a 08                       	movb	(%rax), %cl
10000a8e9: 80 e1 fe                    	andb	$-2, %cl
10000a8ec: 88 08                       	movb	%cl, (%rax)
10000a8ee: 5d                          	popq	%rbp
10000a8ef: c3                          	retq

000000010000a8f0 _check_out_of_quotes:
10000a8f0: 55                          	pushq	%rbp
10000a8f1: 48 89 e5                    	movq	%rsp, %rbp
10000a8f4: 40 88 7d ff                 	movb	%dil, -1(%rbp)
10000a8f8: 48 89 75 f0                 	movq	%rsi, -16(%rbp)
10000a8fc: 0f be 45 ff                 	movsbl	-1(%rbp), %eax
10000a900: 83 f8 22                    	cmpl	$34, %eax
10000a903: 0f 85 46 00 00 00           	jne	70 <_check_out_of_quotes+0x5f>
10000a909: 48 8b 45 f0                 	movq	-16(%rbp), %rax
10000a90d: 8a 08                       	movb	(%rax), %cl
10000a90f: 80 e1 01                    	andb	$1, %cl
10000a912: 0f b6 d1                    	movzbl	%cl, %edx
10000a915: 83 fa 00                    	cmpl	$0, %edx
10000a918: 0f 85 31 00 00 00           	jne	49 <_check_out_of_quotes+0x5f>
10000a91e: 48 8b 45 f0                 	movq	-16(%rbp), %rax
10000a922: 8a 08                       	movb	(%rax), %cl
10000a924: c0 e9 01                    	shrb	$1, %cl
10000a927: 80 e1 01                    	andb	$1, %cl
10000a92a: 0f b6 d1                    	movzbl	%cl, %edx
10000a92d: 83 fa 00                    	cmpl	$0, %edx
10000a930: 0f 95 c1                    	setne	%cl
10000a933: 80 f1 ff                    	xorb	$-1, %cl
10000a936: 80 e1 01                    	andb	$1, %cl
10000a939: 0f b6 d1                    	movzbl	%cl, %edx
10000a93c: 48 8b 45 f0                 	movq	-16(%rbp), %rax
10000a940: 8a 08                       	movb	(%rax), %cl
10000a942: 80 e2 01                    	andb	$1, %dl
10000a945: c0 e2 01                    	shlb	$1, %dl
10000a948: 80 e1 fd                    	andb	$-3, %cl
10000a94b: 08 d1                       	orb	%dl, %cl
10000a94d: 88 08                       	movb	%cl, (%rax)
10000a94f: 0f be 45 ff                 	movsbl	-1(%rbp), %eax
10000a953: 83 f8 27                    	cmpl	$39, %eax
10000a956: 0f 85 43 00 00 00           	jne	67 <_check_out_of_quotes+0xaf>
10000a95c: 48 8b 45 f0                 	movq	-16(%rbp), %rax
10000a960: 8a 08                       	movb	(%rax), %cl
10000a962: c0 e9 01                    	shrb	$1, %cl
10000a965: 80 e1 01                    	andb	$1, %cl
10000a968: 0f b6 d1                    	movzbl	%cl, %edx
10000a96b: 83 fa 00                    	cmpl	$0, %edx
10000a96e: 0f 85 2b 00 00 00           	jne	43 <_check_out_of_quotes+0xaf>
10000a974: 48 8b 45 f0                 	movq	-16(%rbp), %rax
10000a978: 8a 08                       	movb	(%rax), %cl
10000a97a: 80 e1 01                    	andb	$1, %cl
10000a97d: 0f b6 d1                    	movzbl	%cl, %edx
10000a980: 83 fa 00                    	cmpl	$0, %edx
10000a983: 0f 95 c1                    	setne	%cl
10000a986: 80 f1 ff                    	xorb	$-1, %cl
10000a989: 80 e1 01                    	andb	$1, %cl
10000a98c: 0f b6 d1                    	movzbl	%cl, %edx
10000a98f: 48 8b 45 f0                 	movq	-16(%rbp), %rax
10000a993: 8a 08                       	movb	(%rax), %cl
10000a995: 80 e2 01                    	andb	$1, %dl
10000a998: 80 e1 fe                    	andb	$-2, %cl
10000a99b: 08 d1                       	orb	%dl, %cl
10000a99d: 88 08                       	movb	%cl, (%rax)
10000a99f: 5d                          	popq	%rbp
10000a9a0: c3                          	retq
10000a9a1: 66 2e 0f 1f 84 00 00 00 00 00       	nopw	%cs:(%rax,%rax)
10000a9ab: 0f 1f 44 00 00              	nopl	(%rax,%rax)

000000010000a9b0 _something_wrong:
10000a9b0: 55                          	pushq	%rbp
10000a9b1: 48 89 e5                    	movq	%rsp, %rbp
10000a9b4: 48 83 ec 20                 	subq	$32, %rsp
10000a9b8: 48 89 7d f8                 	movq	%rdi, -8(%rbp)
10000a9bc: 48 89 75 f0                 	movq	%rsi, -16(%rbp)
10000a9c0: 48 8b 7d f0                 	movq	-16(%rbp), %rdi
10000a9c4: e8 53 4b 00 00              	callq	19283 <dyld_stub_binder+0x10000f51c>
10000a9c9: 48 8b 7d f8                 	movq	-8(%rbp), %rdi
10000a9cd: be 02 00 00 00              	movl	$2, %esi
10000a9d2: e8 a9 48 00 00              	callq	18601 <_ft_putendl_fd>
10000a9d7: 31 c0                       	xorl	%eax, %eax
10000a9d9: 89 c7                       	movl	%eax, %edi
10000a9db: be ff 00 00 00              	movl	$255, %esi
10000a9e0: e8 0b cc ff ff              	callq	-13301 <_set__get_option_variables>
10000a9e5: bf 01 00 00 00              	movl	$1, %edi
10000a9ea: 48 89 45 e8                 	movq	%rax, -24(%rbp)
10000a9ee: e8 1d 4b 00 00              	callq	19229 <dyld_stub_binder+0x10000f510>
10000a9f3: 66 2e 0f 1f 84 00 00 00 00 00       	nopw	%cs:(%rax,%rax)
10000a9fd: 0f 1f 00                    	nopl	(%rax)

000000010000aa00 _transform_dollar:
10000aa00: 55                          	pushq	%rbp
10000aa01: 48 89 e5                    	movq	%rsp, %rbp
10000aa04: 48 83 ec 30                 	subq	$48, %rsp
10000aa08: 48 89 7d f8                 	movq	%rdi, -8(%rbp)
10000aa0c: 48 89 75 f0                 	movq	%rsi, -16(%rbp)
10000aa10: 48 89 55 e8                 	movq	%rdx, -24(%rbp)
10000aa14: 48 89 4d e0                 	movq	%rcx, -32(%rbp)
10000aa18: 48 8b 45 f8                 	movq	-8(%rbp), %rax
10000aa1c: 48 8b 4d f0                 	movq	-16(%rbp), %rcx
10000aa20: 44 8b 01                    	movl	(%rcx), %r8d
10000aa23: 41 83 c0 01                 	addl	$1, %r8d
10000aa27: 49 63 c8                    	movslq	%r8d, %rcx
10000aa2a: 0f be 3c 08                 	movsbl	(%rax,%rcx), %edi
10000aa2e: e8 1d 3e 00 00              	callq	15901 <_ft_isdigit>
10000aa33: 83 f8 00                    	cmpl	$0, %eax
10000aa36: 0f 84 10 00 00 00           	je	16 <_transform_dollar+0x4c>
10000aa3c: 48 8b 45 f0                 	movq	-16(%rbp), %rax
10000aa40: 8b 08                       	movl	(%rax), %ecx
10000aa42: 83 c1 02                    	addl	$2, %ecx
10000aa45: 89 08                       	movl	%ecx, (%rax)
10000aa47: e9 e5 01 00 00              	jmp	485 <_transform_dollar+0x231>
10000aa4c: 48 8b 45 f8                 	movq	-8(%rbp), %rax
10000aa50: 48 8b 4d f0                 	movq	-16(%rbp), %rcx
10000aa54: 48 63 09                    	movslq	(%rcx), %rcx
10000aa57: 0f be 14 08                 	movsbl	(%rax,%rcx), %edx
10000aa5b: 83 fa 24                    	cmpl	$36, %edx
10000aa5e: 0f 85 74 00 00 00           	jne	116 <_transform_dollar+0xd8>
10000aa64: 48 8b 45 f8                 	movq	-8(%rbp), %rax
10000aa68: 48 8b 4d f0                 	movq	-16(%rbp), %rcx
10000aa6c: 8b 11                       	movl	(%rcx), %edx
10000aa6e: 83 c2 01                    	addl	$1, %edx
10000aa71: 48 63 ca                    	movslq	%edx, %rcx
10000aa74: 80 3c 08 00                 	cmpb	$0, (%rax,%rcx)
10000aa78: 0f 84 22 00 00 00           	je	34 <_transform_dollar+0xa0>
10000aa7e: 48 8b 45 f8                 	movq	-8(%rbp), %rax
10000aa82: 48 8b 4d f0                 	movq	-16(%rbp), %rcx
10000aa86: 8b 11                       	movl	(%rcx), %edx
10000aa88: 83 c2 01                    	addl	$1, %edx
10000aa8b: 48 63 ca                    	movslq	%edx, %rcx
10000aa8e: 0f be 3c 08                 	movsbl	(%rax,%rcx), %edi
10000aa92: e8 e9 3d 00 00              	callq	15849 <_ft_isspace>
10000aa97: 83 f8 00                    	cmpl	$0, %eax
10000aa9a: 0f 84 38 00 00 00           	je	56 <_transform_dollar+0xd8>
10000aaa0: 48 8b 45 f8                 	movq	-8(%rbp), %rax
10000aaa4: 48 8b 4d f0                 	movq	-16(%rbp), %rcx
10000aaa8: 8b 11                       	movl	(%rcx), %edx
10000aaaa: 89 d6                       	movl	%edx, %esi
10000aaac: 83 c6 01                    	addl	$1, %esi
10000aaaf: 89 31                       	movl	%esi, (%rcx)
10000aab1: 48 63 ca                    	movslq	%edx, %rcx
10000aab4: 40 8a 3c 08                 	movb	(%rax,%rcx), %dil
10000aab8: 48 8b 45 e0                 	movq	-32(%rbp), %rax
10000aabc: 48 8b 00                    	movq	(%rax), %rax
10000aabf: 48 8b 4d e8                 	movq	-24(%rbp), %rcx
10000aac3: 8b 11                       	movl	(%rcx), %edx
10000aac5: 89 d6                       	movl	%edx, %esi
10000aac7: 83 c6 01                    	addl	$1, %esi
10000aaca: 89 31                       	movl	%esi, (%rcx)
10000aacc: 48 63 ca                    	movslq	%edx, %rcx
10000aacf: 40 88 3c 08                 	movb	%dil, (%rax,%rcx)
10000aad3: e9 54 01 00 00              	jmp	340 <_transform_dollar+0x22c>
10000aad8: 48 8b 45 f8                 	movq	-8(%rbp), %rax
10000aadc: 48 8b 4d f0                 	movq	-16(%rbp), %rcx
10000aae0: 48 63 09                    	movslq	(%rcx), %rcx
10000aae3: 0f be 14 08                 	movsbl	(%rax,%rcx), %edx
10000aae7: 83 fa 24                    	cmpl	$36, %edx
10000aaea: 0f 85 55 00 00 00           	jne	85 <_transform_dollar+0x145>
10000aaf0: 48 8b 45 f8                 	movq	-8(%rbp), %rax
10000aaf4: 48 8b 4d f0                 	movq	-16(%rbp), %rcx
10000aaf8: 8b 11                       	movl	(%rcx), %edx
10000aafa: 83 c2 01                    	addl	$1, %edx
10000aafd: 48 63 ca                    	movslq	%edx, %rcx
10000ab00: 0f be 14 08                 	movsbl	(%rax,%rcx), %edx
10000ab04: 83 fa 24                    	cmpl	$36, %edx
10000ab07: 0f 85 38 00 00 00           	jne	56 <_transform_dollar+0x145>
10000ab0d: 48 8b 45 f8                 	movq	-8(%rbp), %rax
10000ab11: 48 8b 4d f0                 	movq	-16(%rbp), %rcx
10000ab15: 8b 11                       	movl	(%rcx), %edx
10000ab17: 89 d6                       	movl	%edx, %esi
10000ab19: 83 c6 01                    	addl	$1, %esi
10000ab1c: 89 31                       	movl	%esi, (%rcx)
10000ab1e: 48 63 ca                    	movslq	%edx, %rcx
10000ab21: 40 8a 3c 08                 	movb	(%rax,%rcx), %dil
10000ab25: 48 8b 45 e0                 	movq	-32(%rbp), %rax
10000ab29: 48 8b 00                    	movq	(%rax), %rax
10000ab2c: 48 8b 4d e8                 	movq	-24(%rbp), %rcx
10000ab30: 8b 11                       	movl	(%rcx), %edx
10000ab32: 89 d6                       	movl	%edx, %esi
10000ab34: 83 c6 01                    	addl	$1, %esi
10000ab37: 89 31                       	movl	%esi, (%rcx)
10000ab39: 48 63 ca                    	movslq	%edx, %rcx
10000ab3c: 40 88 3c 08                 	movb	%dil, (%rax,%rcx)
10000ab40: e9 e2 00 00 00              	jmp	226 <_transform_dollar+0x227>
10000ab45: 48 8b 45 f8                 	movq	-8(%rbp), %rax
10000ab49: 48 8b 4d f0                 	movq	-16(%rbp), %rcx
10000ab4d: 48 63 09                    	movslq	(%rcx), %rcx
10000ab50: 0f be 14 08                 	movsbl	(%rax,%rcx), %edx
10000ab54: 83 fa 24                    	cmpl	$36, %edx
10000ab57: 0f 85 c5 00 00 00           	jne	197 <_transform_dollar+0x222>
10000ab5d: 48 8b 45 f0                 	movq	-16(%rbp), %rax
10000ab61: 8b 08                       	movl	(%rax), %ecx
10000ab63: 83 c1 01                    	addl	$1, %ecx
10000ab66: 89 08                       	movl	%ecx, (%rax)
10000ab68: 48 8b 45 e0                 	movq	-32(%rbp), %rax
10000ab6c: 48 8b 00                    	movq	(%rax), %rax
10000ab6f: 48 8b 55 e8                 	movq	-24(%rbp), %rdx
10000ab73: 8b 0a                       	movl	(%rdx), %ecx
10000ab75: 89 ce                       	movl	%ecx, %esi
10000ab77: 83 c6 01                    	addl	$1, %esi
10000ab7a: 89 32                       	movl	%esi, (%rdx)
10000ab7c: 48 63 d1                    	movslq	%ecx, %rdx
10000ab7f: c6 04 10 22                 	movb	$34, (%rax,%rdx)
10000ab83: 48 8b 45 f8                 	movq	-8(%rbp), %rax
10000ab87: 48 8b 4d f0                 	movq	-16(%rbp), %rcx
10000ab8b: 48 63 09                    	movslq	(%rcx), %rcx
10000ab8e: 0f be 3c 08                 	movsbl	(%rax,%rcx), %edi
10000ab92: e8 29 3c 00 00              	callq	15401 <_ft_isalnum>
10000ab97: 83 f8 00                    	cmpl	$0, %eax
10000ab9a: b2 01                       	movb	$1, %dl
10000ab9c: 88 55 df                    	movb	%dl, -33(%rbp)
10000ab9f: 0f 85 1a 00 00 00           	jne	26 <_transform_dollar+0x1bf>
10000aba5: 48 8b 45 f8                 	movq	-8(%rbp), %rax
10000aba9: 48 8b 4d f0                 	movq	-16(%rbp), %rcx
10000abad: 48 63 09                    	movslq	(%rcx), %rcx
10000abb0: 0f be 14 08                 	movsbl	(%rax,%rcx), %edx
10000abb4: 83 fa 5f                    	cmpl	$95, %edx
10000abb7: 40 0f 94 c6                 	sete	%sil
10000abbb: 40 88 75 df                 	movb	%sil, -33(%rbp)
10000abbf: 8a 45 df                    	movb	-33(%rbp), %al
10000abc2: a8 01                       	testb	$1, %al
10000abc4: 0f 85 05 00 00 00           	jne	5 <_transform_dollar+0x1cf>
10000abca: e9 38 00 00 00              	jmp	56 <_transform_dollar+0x207>
10000abcf: 48 8b 45 f8                 	movq	-8(%rbp), %rax
10000abd3: 48 8b 4d f0                 	movq	-16(%rbp), %rcx
10000abd7: 8b 11                       	movl	(%rcx), %edx
10000abd9: 89 d6                       	movl	%edx, %esi
10000abdb: 83 c6 01                    	addl	$1, %esi
10000abde: 89 31                       	movl	%esi, (%rcx)
10000abe0: 48 63 ca                    	movslq	%edx, %rcx
10000abe3: 40 8a 3c 08                 	movb	(%rax,%rcx), %dil
10000abe7: 48 8b 45 e0                 	movq	-32(%rbp), %rax
10000abeb: 48 8b 00                    	movq	(%rax), %rax
10000abee: 48 8b 4d e8                 	movq	-24(%rbp), %rcx
10000abf2: 8b 11                       	movl	(%rcx), %edx
10000abf4: 89 d6                       	movl	%edx, %esi
10000abf6: 83 c6 01                    	addl	$1, %esi
10000abf9: 89 31                       	movl	%esi, (%rcx)
10000abfb: 48 63 ca                    	movslq	%edx, %rcx
10000abfe: 40 88 3c 08                 	movb	%dil, (%rax,%rcx)
10000ac02: e9 7c ff ff ff              	jmp	-132 <_transform_dollar+0x183>
10000ac07: 48 8b 45 e0                 	movq	-32(%rbp), %rax
10000ac0b: 48 8b 00                    	movq	(%rax), %rax
10000ac0e: 48 8b 4d e8                 	movq	-24(%rbp), %rcx
10000ac12: 8b 11                       	movl	(%rcx), %edx
10000ac14: 89 d6                       	movl	%edx, %esi
10000ac16: 83 c6 01                    	addl	$1, %esi
10000ac19: 89 31                       	movl	%esi, (%rcx)
10000ac1b: 48 63 ca                    	movslq	%edx, %rcx
10000ac1e: c6 04 08 22                 	movb	$34, (%rax,%rcx)
10000ac22: e9 00 00 00 00              	jmp	0 <_transform_dollar+0x227>
10000ac27: e9 00 00 00 00              	jmp	0 <_transform_dollar+0x22c>
10000ac2c: e9 00 00 00 00              	jmp	0 <_transform_dollar+0x231>
10000ac31: 48 83 c4 30                 	addq	$48, %rsp
10000ac35: 5d                          	popq	%rbp
10000ac36: c3                          	retq
10000ac37: 66 0f 1f 84 00 00 00 00 00  	nopw	(%rax,%rax)

000000010000ac40 _delete_quotes:
10000ac40: 55                          	pushq	%rbp
10000ac41: 48 89 e5                    	movq	%rsp, %rbp
10000ac44: 48 83 ec 30                 	subq	$48, %rsp
10000ac48: 48 89 7d f8                 	movq	%rdi, -8(%rbp)
10000ac4c: 48 89 75 f0                 	movq	%rsi, -16(%rbp)
10000ac50: 89 55 ec                    	movl	%edx, -20(%rbp)
10000ac53: 89 4d e8                    	movl	%ecx, -24(%rbp)
10000ac56: c7 45 dc 00 00 00 00        	movl	$0, -36(%rbp)
10000ac5d: 48 8d 7d e0                 	leaq	-32(%rbp), %rdi
10000ac61: e8 6a fc ff ff              	callq	-918 <_set_zero_var>
10000ac66: 48 8b 45 f8                 	movq	-8(%rbp), %rax
10000ac6a: 48 63 4d ec                 	movslq	-20(%rbp), %rcx
10000ac6e: 80 3c 08 00                 	cmpb	$0, (%rax,%rcx)
10000ac72: 0f 84 d5 01 00 00           	je	469 <_delete_quotes+0x20d>
10000ac78: 48 8b 45 f8                 	movq	-8(%rbp), %rax
10000ac7c: 48 63 4d ec                 	movslq	-20(%rbp), %rcx
10000ac80: 0f be 3c 08                 	movsbl	(%rax,%rcx), %edi
10000ac84: 48 8d 75 e0                 	leaq	-32(%rbp), %rsi
10000ac88: e8 63 fc ff ff              	callq	-925 <_check_out_of_quotes>
10000ac8d: 8a 55 e0                    	movb	-32(%rbp), %dl
10000ac90: 80 e2 01                    	andb	$1, %dl
10000ac93: 0f b6 fa                    	movzbl	%dl, %edi
10000ac96: 83 ff 00                    	cmpl	$0, %edi
10000ac99: 0f 85 65 00 00 00           	jne	101 <_delete_quotes+0xc4>
10000ac9f: 8a 45 e0                    	movb	-32(%rbp), %al
10000aca2: c0 e8 01                    	shrb	$1, %al
10000aca5: 24 01                       	andb	$1, %al
10000aca7: 0f b6 c8                    	movzbl	%al, %ecx
10000acaa: 83 f9 00                    	cmpl	$0, %ecx
10000acad: 0f 85 51 00 00 00           	jne	81 <_delete_quotes+0xc4>
10000acb3: 48 8b 45 f8                 	movq	-8(%rbp), %rax
10000acb7: 48 63 4d ec                 	movslq	-20(%rbp), %rcx
10000acbb: 0f be 3c 08                 	movsbl	(%rax,%rcx), %edi
10000acbf: e8 bc 3b 00 00              	callq	15292 <_ft_isspace>
10000acc4: 83 f8 00                    	cmpl	$0, %eax
10000acc7: 0f 84 37 00 00 00           	je	55 <_delete_quotes+0xc4>
10000accd: 83 7d e8 00                 	cmpl	$0, -24(%rbp)
10000acd1: 0f 84 05 00 00 00           	je	5 <_delete_quotes+0x9c>
10000acd7: e9 71 01 00 00              	jmp	369 <_delete_quotes+0x20d>
10000acdc: 48 8b 45 f8                 	movq	-8(%rbp), %rax
10000ace0: 48 63 4d ec                 	movslq	-20(%rbp), %rcx
10000ace4: 8a 14 08                    	movb	(%rax,%rcx), %dl
10000ace7: 48 8b 45 f0                 	movq	-16(%rbp), %rax
10000aceb: 48 8b 00                    	movq	(%rax), %rax
10000acee: 8b 75 dc                    	movl	-36(%rbp), %esi
10000acf1: 89 f7                       	movl	%esi, %edi
10000acf3: 83 c7 01                    	addl	$1, %edi
10000acf6: 89 7d dc                    	movl	%edi, -36(%rbp)
10000acf9: 48 63 ce                    	movslq	%esi, %rcx
10000acfc: 88 14 08                    	movb	%dl, (%rax,%rcx)
10000acff: e9 3b 01 00 00              	jmp	315 <_delete_quotes+0x1ff>
10000ad04: 48 8b 45 f8                 	movq	-8(%rbp), %rax
10000ad08: 48 63 4d ec                 	movslq	-20(%rbp), %rcx
10000ad0c: 0f be 14 08                 	movsbl	(%rax,%rcx), %edx
10000ad10: 83 fa 22                    	cmpl	$34, %edx
10000ad13: 0f 85 11 00 00 00           	jne	17 <_delete_quotes+0xea>
10000ad19: 8a 45 e0                    	movb	-32(%rbp), %al
10000ad1c: 24 01                       	andb	$1, %al
10000ad1e: 0f b6 c8                    	movzbl	%al, %ecx
10000ad21: 83 f9 00                    	cmpl	$0, %ecx
10000ad24: 0f 85 29 00 00 00           	jne	41 <_delete_quotes+0x113>
10000ad2a: 48 8b 45 f8                 	movq	-8(%rbp), %rax
10000ad2e: 48 63 4d ec                 	movslq	-20(%rbp), %rcx
10000ad32: 0f be 14 08                 	movsbl	(%rax,%rcx), %edx
10000ad36: 83 fa 27                    	cmpl	$39, %edx
10000ad39: 0f 85 3c 00 00 00           	jne	60 <_delete_quotes+0x13b>
10000ad3f: 8a 45 e0                    	movb	-32(%rbp), %al
10000ad42: c0 e8 01                    	shrb	$1, %al
10000ad45: 24 01                       	andb	$1, %al
10000ad47: 0f b6 c8                    	movzbl	%al, %ecx
10000ad4a: 83 f9 00                    	cmpl	$0, %ecx
10000ad4d: 0f 84 28 00 00 00           	je	40 <_delete_quotes+0x13b>
10000ad53: 48 8b 45 f8                 	movq	-8(%rbp), %rax
10000ad57: 48 63 4d ec                 	movslq	-20(%rbp), %rcx
10000ad5b: 8a 14 08                    	movb	(%rax,%rcx), %dl
10000ad5e: 48 8b 45 f0                 	movq	-16(%rbp), %rax
10000ad62: 48 8b 00                    	movq	(%rax), %rax
10000ad65: 8b 75 dc                    	movl	-36(%rbp), %esi
10000ad68: 89 f7                       	movl	%esi, %edi
10000ad6a: 83 c7 01                    	addl	$1, %edi
10000ad6d: 89 7d dc                    	movl	%edi, -36(%rbp)
10000ad70: 48 63 ce                    	movslq	%esi, %rcx
10000ad73: 88 14 08                    	movb	%dl, (%rax,%rcx)
10000ad76: e9 bf 00 00 00              	jmp	191 <_delete_quotes+0x1fa>
10000ad7b: 48 8b 45 f8                 	movq	-8(%rbp), %rax
10000ad7f: 48 63 4d ec                 	movslq	-20(%rbp), %rcx
10000ad83: 0f be 14 08                 	movsbl	(%rax,%rcx), %edx
10000ad87: 83 fa 24                    	cmpl	$36, %edx
10000ad8a: 0f 85 53 00 00 00           	jne	83 <_delete_quotes+0x1a3>
10000ad90: 8a 45 e0                    	movb	-32(%rbp), %al
10000ad93: c0 e8 01                    	shrb	$1, %al
10000ad96: 24 01                       	andb	$1, %al
10000ad98: 0f b6 c8                    	movzbl	%al, %ecx
10000ad9b: 83 f9 00                    	cmpl	$0, %ecx
10000ad9e: 0f 85 25 00 00 00           	jne	37 <_delete_quotes+0x189>
10000ada4: 8a 45 e0                    	movb	-32(%rbp), %al
10000ada7: c0 e8 01                    	shrb	$1, %al
10000adaa: 24 01                       	andb	$1, %al
10000adac: 0f b6 c8                    	movzbl	%al, %ecx
10000adaf: 83 f9 00                    	cmpl	$0, %ecx
10000adb2: 0f 85 2b 00 00 00           	jne	43 <_delete_quotes+0x1a3>
10000adb8: 8a 45 e0                    	movb	-32(%rbp), %al
10000adbb: 24 01                       	andb	$1, %al
10000adbd: 0f b6 c8                    	movzbl	%al, %ecx
10000adc0: 83 f9 00                    	cmpl	$0, %ecx
10000adc3: 0f 85 1a 00 00 00           	jne	26 <_delete_quotes+0x1a3>
10000adc9: 48 8b 7d f8                 	movq	-8(%rbp), %rdi
10000adcd: 48 8b 4d f0                 	movq	-16(%rbp), %rcx
10000add1: 48 8d 75 ec                 	leaq	-20(%rbp), %rsi
10000add5: 48 8d 55 dc                 	leaq	-36(%rbp), %rdx
10000add9: e8 22 fc ff ff              	callq	-990 <_transform_dollar>
10000adde: e9 83 fe ff ff              	jmp	-381 <_delete_quotes+0x26>
10000ade3: 48 8b 45 f8                 	movq	-8(%rbp), %rax
10000ade7: 48 63 4d ec                 	movslq	-20(%rbp), %rcx
10000adeb: 0f be 14 08                 	movsbl	(%rax,%rcx), %edx
10000adef: 83 fa 27                    	cmpl	$39, %edx
10000adf2: 0f 84 38 00 00 00           	je	56 <_delete_quotes+0x1f0>
10000adf8: 48 8b 45 f8                 	movq	-8(%rbp), %rax
10000adfc: 48 63 4d ec                 	movslq	-20(%rbp), %rcx
10000ae00: 0f be 14 08                 	movsbl	(%rax,%rcx), %edx
10000ae04: 83 fa 22                    	cmpl	$34, %edx
10000ae07: 0f 84 23 00 00 00           	je	35 <_delete_quotes+0x1f0>
10000ae0d: 48 8b 45 f8                 	movq	-8(%rbp), %rax
10000ae11: 48 63 4d ec                 	movslq	-20(%rbp), %rcx
10000ae15: 8a 14 08                    	movb	(%rax,%rcx), %dl
10000ae18: 48 8b 45 f0                 	movq	-16(%rbp), %rax
10000ae1c: 48 8b 00                    	movq	(%rax), %rax
10000ae1f: 8b 75 dc                    	movl	-36(%rbp), %esi
10000ae22: 89 f7                       	movl	%esi, %edi
10000ae24: 83 c7 01                    	addl	$1, %edi
10000ae27: 89 7d dc                    	movl	%edi, -36(%rbp)
10000ae2a: 48 63 ce                    	movslq	%esi, %rcx
10000ae2d: 88 14 08                    	movb	%dl, (%rax,%rcx)
10000ae30: e9 00 00 00 00              	jmp	0 <_delete_quotes+0x1f5>
10000ae35: e9 00 00 00 00              	jmp	0 <_delete_quotes+0x1fa>
10000ae3a: e9 00 00 00 00              	jmp	0 <_delete_quotes+0x1ff>
10000ae3f: 8b 45 ec                    	movl	-20(%rbp), %eax
10000ae42: 83 c0 01                    	addl	$1, %eax
10000ae45: 89 45 ec                    	movl	%eax, -20(%rbp)
10000ae48: e9 19 fe ff ff              	jmp	-487 <_delete_quotes+0x26>
10000ae4d: 8b 45 ec                    	movl	-20(%rbp), %eax
10000ae50: 48 83 c4 30                 	addq	$48, %rsp
10000ae54: 5d                          	popq	%rbp
10000ae55: c3                          	retq
10000ae56: 66 2e 0f 1f 84 00 00 00 00 00       	nopw	%cs:(%rax,%rax)

000000010000ae60 _count_dollars:
10000ae60: 55                          	pushq	%rbp
10000ae61: 48 89 e5                    	movq	%rsp, %rbp
10000ae64: 48 89 7d f8                 	movq	%rdi, -8(%rbp)
10000ae68: 48 89 75 f0                 	movq	%rsi, -16(%rbp)
10000ae6c: 89 55 ec                    	movl	%edx, -20(%rbp)
10000ae6f: 48 83 7d f0 00              	cmpq	$0, -16(%rbp)
10000ae74: 0f 84 0e 00 00 00           	je	14 <_count_dollars+0x28>
10000ae7a: 48 8b 45 f0                 	movq	-16(%rbp), %rax
10000ae7e: 8b 08                       	movl	(%rax), %ecx
10000ae80: 89 4d e8                    	movl	%ecx, -24(%rbp)
10000ae83: e9 06 00 00 00              	jmp	6 <_count_dollars+0x2e>
10000ae88: 8b 45 ec                    	movl	-20(%rbp), %eax
10000ae8b: 89 45 e8                    	movl	%eax, -24(%rbp)
10000ae8e: c7 45 e4 00 00 00 00        	movl	$0, -28(%rbp)
10000ae95: 48 8b 45 f8                 	movq	-8(%rbp), %rax
10000ae99: 48 63 4d e8                 	movslq	-24(%rbp), %rcx
10000ae9d: 80 3c 08 00                 	cmpb	$0, (%rax,%rcx)
10000aea1: 0f 84 2c 00 00 00           	je	44 <_count_dollars+0x73>
10000aea7: 48 8b 45 f8                 	movq	-8(%rbp), %rax
10000aeab: 48 63 4d e8                 	movslq	-24(%rbp), %rcx
10000aeaf: 0f be 14 08                 	movsbl	(%rax,%rcx), %edx
10000aeb3: 83 fa 24                    	cmpl	$36, %edx
10000aeb6: 0f 85 09 00 00 00           	jne	9 <_count_dollars+0x65>
10000aebc: 8b 45 e4                    	movl	-28(%rbp), %eax
10000aebf: 83 c0 01                    	addl	$1, %eax
10000aec2: 89 45 e4                    	movl	%eax, -28(%rbp)
10000aec5: 8b 45 e8                    	movl	-24(%rbp), %eax
10000aec8: 83 c0 01                    	addl	$1, %eax
10000aecb: 89 45 e8                    	movl	%eax, -24(%rbp)
10000aece: e9 c2 ff ff ff              	jmp	-62 <_count_dollars+0x35>
10000aed3: 8b 45 e8                    	movl	-24(%rbp), %eax
10000aed6: 5d                          	popq	%rbp
10000aed7: c3                          	retq
10000aed8: 0f 1f 84 00 00 00 00 00     	nopl	(%rax,%rax)

000000010000aee0 _skip_quotes:
10000aee0: 55                          	pushq	%rbp
10000aee1: 48 89 e5                    	movq	%rsp, %rbp
10000aee4: 48 83 ec 40                 	subq	$64, %rsp
10000aee8: 48 89 7d f0                 	movq	%rdi, -16(%rbp)
10000aeec: 48 89 75 e8                 	movq	%rsi, -24(%rbp)
10000aef0: 89 55 e4                    	movl	%edx, -28(%rbp)
10000aef3: 89 4d e0                    	movl	%ecx, -32(%rbp)
10000aef6: 48 8b 7d f0                 	movq	-16(%rbp), %rdi
10000aefa: 48 8b 75 e8                 	movq	-24(%rbp), %rsi
10000aefe: 8b 55 e4                    	movl	-28(%rbp), %edx
10000af01: e8 5a ff ff ff              	callq	-166 <_count_dollars>
10000af06: 89 45 d4                    	movl	%eax, -44(%rbp)
10000af09: 83 7d e0 00                 	cmpl	$0, -32(%rbp)
10000af0d: 0f 84 39 00 00 00           	je	57 <_skip_quotes+0x6c>
10000af13: 48 8b 45 f0                 	movq	-16(%rbp), %rax
10000af17: 48 8b 4d e8                 	movq	-24(%rbp), %rcx
10000af1b: 48 63 09                    	movslq	(%rcx), %rcx
10000af1e: 48 01 c8                    	addq	%rcx, %rax
10000af21: 48 89 c7                    	movq	%rax, %rdi
10000af24: e8 b7 3c 00 00              	callq	15543 <_ft_strlen>
10000af29: 48 63 4d d4                 	movslq	-44(%rbp), %rcx
10000af2d: 48 01 c8                    	addq	%rcx, %rax
10000af30: 48 05 01 00 00 00           	addq	$1, %rax
10000af36: bf 01 00 00 00              	movl	$1, %edi
10000af3b: 48 89 c6                    	movq	%rax, %rsi
10000af3e: e8 2d 38 00 00              	callq	14381 <_ft_calloc>
10000af43: 48 89 45 d8                 	movq	%rax, -40(%rbp)
10000af47: e9 31 00 00 00              	jmp	49 <_skip_quotes+0x9d>
10000af4c: 48 8b 45 f0                 	movq	-16(%rbp), %rax
10000af50: 48 63 4d e4                 	movslq	-28(%rbp), %rcx
10000af54: 48 01 c8                    	addq	%rcx, %rax
10000af57: 48 89 c7                    	movq	%rax, %rdi
10000af5a: e8 81 3c 00 00              	callq	15489 <_ft_strlen>
10000af5f: 48 63 4d d4                 	movslq	-44(%rbp), %rcx
10000af63: 48 01 c8                    	addq	%rcx, %rax
10000af66: 48 05 01 00 00 00           	addq	$1, %rax
10000af6c: bf 01 00 00 00              	movl	$1, %edi
10000af71: 48 89 c6                    	movq	%rax, %rsi
10000af74: e8 f7 37 00 00              	callq	14327 <_ft_calloc>
10000af79: 48 89 45 d8                 	movq	%rax, -40(%rbp)
10000af7d: 48 83 7d d8 00              	cmpq	$0, -40(%rbp)
10000af82: 0f 85 0d 00 00 00           	jne	13 <_skip_quotes+0xb5>
10000af88: 48 c7 45 f8 00 00 00 00     	movq	$0, -8(%rbp)
10000af90: e9 46 00 00 00              	jmp	70 <_skip_quotes+0xfb>
10000af95: 83 7d e0 00                 	cmpl	$0, -32(%rbp)
10000af99: 0f 84 21 00 00 00           	je	33 <_skip_quotes+0xe0>
10000af9f: 48 8b 7d f0                 	movq	-16(%rbp), %rdi
10000afa3: 48 8b 45 e8                 	movq	-24(%rbp), %rax
10000afa7: 8b 10                       	movl	(%rax), %edx
10000afa9: 8b 4d e0                    	movl	-32(%rbp), %ecx
10000afac: 48 8d 75 d8                 	leaq	-40(%rbp), %rsi
10000afb0: e8 8b fc ff ff              	callq	-885 <_delete_quotes>
10000afb5: 48 8b 75 e8                 	movq	-24(%rbp), %rsi
10000afb9: 89 06                       	movl	%eax, (%rsi)
10000afbb: e9 13 00 00 00              	jmp	19 <_skip_quotes+0xf3>
10000afc0: 48 8b 7d f0                 	movq	-16(%rbp), %rdi
10000afc4: 8b 55 e4                    	movl	-28(%rbp), %edx
10000afc7: 8b 4d e0                    	movl	-32(%rbp), %ecx
10000afca: 48 8d 75 d8                 	leaq	-40(%rbp), %rsi
10000afce: e8 6d fc ff ff              	callq	-915 <_delete_quotes>
10000afd3: 48 8b 45 d8                 	movq	-40(%rbp), %rax
10000afd7: 48 89 45 f8                 	movq	%rax, -8(%rbp)
10000afdb: 48 8b 45 f8                 	movq	-8(%rbp), %rax
10000afdf: 48 83 c4 40                 	addq	$64, %rsp
10000afe3: 5d                          	popq	%rbp
10000afe4: c3                          	retq
10000afe5: 66 2e 0f 1f 84 00 00 00 00 00       	nopw	%cs:(%rax,%rax)
10000afef: 90                          	nop

000000010000aff0 _skip_spaces_front:
10000aff0: 55                          	pushq	%rbp
10000aff1: 48 89 e5                    	movq	%rsp, %rbp
10000aff4: 48 83 ec 10                 	subq	$16, %rsp
10000aff8: 48 89 7d f8                 	movq	%rdi, -8(%rbp)
10000affc: c7 45 f4 00 00 00 00        	movl	$0, -12(%rbp)
10000b003: 48 8b 45 f8                 	movq	-8(%rbp), %rax
10000b007: 48 63 4d f4                 	movslq	-12(%rbp), %rcx
10000b00b: 0f be 3c 08                 	movsbl	(%rax,%rcx), %edi
10000b00f: e8 6c 38 00 00              	callq	14444 <_ft_isspace>
10000b014: 83 f8 00                    	cmpl	$0, %eax
10000b017: 0f 84 0e 00 00 00           	je	14 <_skip_spaces_front+0x3b>
10000b01d: 8b 45 f4                    	movl	-12(%rbp), %eax
10000b020: 83 c0 01                    	addl	$1, %eax
10000b023: 89 45 f4                    	movl	%eax, -12(%rbp)
10000b026: e9 d8 ff ff ff              	jmp	-40 <_skip_spaces_front+0x13>
10000b02b: 8b 45 f4                    	movl	-12(%rbp), %eax
10000b02e: 48 83 c4 10                 	addq	$16, %rsp
10000b032: 5d                          	popq	%rbp
10000b033: c3                          	retq
10000b034: 66 2e 0f 1f 84 00 00 00 00 00       	nopw	%cs:(%rax,%rax)
10000b03e: 66 90                       	nop

000000010000b040 _pr_custom_err:
10000b040: 55                          	pushq	%rbp
10000b041: 48 89 e5                    	movq	%rsp, %rbp
10000b044: 48 83 ec 20                 	subq	$32, %rsp
10000b048: 48 89 7d f8                 	movq	%rdi, -8(%rbp)
10000b04c: 48 89 75 f0                 	movq	%rsi, -16(%rbp)
10000b050: 48 89 55 e8                 	movq	%rdx, -24(%rbp)
10000b054: 48 8b 7d f8                 	movq	-8(%rbp), %rdi
10000b058: 48 8b 75 e8                 	movq	-24(%rbp), %rsi
10000b05c: e8 bf 3e 00 00              	callq	16063 <_ft_strjoin>
10000b061: 48 89 45 e0                 	movq	%rax, -32(%rbp)
10000b065: 48 8b 7d e0                 	movq	-32(%rbp), %rdi
10000b069: be 02 00 00 00              	movl	$2, %esi
10000b06e: e8 0d 42 00 00              	callq	16909 <_ft_putendl_fd>
10000b073: bf 0a 00 00 00              	movl	$10, %edi
10000b078: be 02 00 00 00              	movl	$2, %esi
10000b07d: e8 ce 41 00 00              	callq	16846 <_ft_putchar_fd>
10000b082: 48 8b 7d e0                 	movq	-32(%rbp), %rdi
10000b086: e8 91 44 00 00              	callq	17553 <dyld_stub_binder+0x10000f51c>
10000b08b: 48 8b 7d f0                 	movq	-16(%rbp), %rdi
10000b08f: e8 88 44 00 00              	callq	17544 <dyld_stub_binder+0x10000f51c>
10000b094: 48 83 c4 20                 	addq	$32, %rsp
10000b098: 5d                          	popq	%rbp
10000b099: c3                          	retq
10000b09a: 66 0f 1f 44 00 00           	nopw	(%rax,%rax)

000000010000b0a0 _panic_recursive:
10000b0a0: 55                          	pushq	%rbp
10000b0a1: 48 89 e5                    	movq	%rsp, %rbp
10000b0a4: 48 83 ec 10                 	subq	$16, %rsp
10000b0a8: 48 89 7d f8                 	movq	%rdi, -8(%rbp)
10000b0ac: 48 89 75 f0                 	movq	%rsi, -16(%rbp)
10000b0b0: 48 8b 7d f8                 	movq	-8(%rbp), %rdi
10000b0b4: be 02 00 00 00              	movl	$2, %esi
10000b0b9: e8 c2 41 00 00              	callq	16834 <_ft_putendl_fd>
10000b0be: 48 8b 45 f0                 	movq	-16(%rbp), %rax
10000b0c2: 48 89 c7                    	movq	%rax, %rdi
10000b0c5: e8 52 44 00 00              	callq	17490 <dyld_stub_binder+0x10000f51c>
10000b0ca: 48 c7 45 f0 00 00 00 00     	movq	$0, -16(%rbp)
10000b0d2: 48 83 c4 10                 	addq	$16, %rsp
10000b0d6: 5d                          	popq	%rbp
10000b0d7: c3                          	retq
10000b0d8: 0f 1f 84 00 00 00 00 00     	nopl	(%rax,%rax)

000000010000b0e0 _check_wild_cards:
10000b0e0: 55                          	pushq	%rbp
10000b0e1: 48 89 e5                    	movq	%rsp, %rbp
10000b0e4: 48 89 7d f8                 	movq	%rdi, -8(%rbp)
10000b0e8: 66 89 75 f6                 	movw	%si, -10(%rbp)
10000b0ec: c7 45 f0 00 00 00 00        	movl	$0, -16(%rbp)
10000b0f3: 48 8b 45 f8                 	movq	-8(%rbp), %rax
10000b0f7: 48 63 4d f0                 	movslq	-16(%rbp), %rcx
10000b0fb: 80 3c 08 00                 	cmpb	$0, (%rax,%rcx)
10000b0ff: 0f 84 2f 00 00 00           	je	47 <_check_wild_cards+0x54>
10000b105: 48 8b 45 f8                 	movq	-8(%rbp), %rax
10000b109: 48 63 4d f0                 	movslq	-16(%rbp), %rcx
10000b10d: 0f be 14 08                 	movsbl	(%rax,%rcx), %edx
10000b111: 83 fa 2a                    	cmpl	$42, %edx
10000b114: 0f 85 0c 00 00 00           	jne	12 <_check_wild_cards+0x46>
10000b11a: c7 45 f0 ff ff ff ff        	movl	$4294967295, -16(%rbp)
10000b121: e9 0e 00 00 00              	jmp	14 <_check_wild_cards+0x54>
10000b126: 8b 45 f0                    	movl	-16(%rbp), %eax
10000b129: 83 c0 01                    	addl	$1, %eax
10000b12c: 89 45 f0                    	movl	%eax, -16(%rbp)
10000b12f: e9 bf ff ff ff              	jmp	-65 <_check_wild_cards+0x13>
10000b134: 0f b7 45 f6                 	movzwl	-10(%rbp), %eax
10000b138: 83 f8 03                    	cmpl	$3, %eax
10000b13b: 0f 85 10 00 00 00           	jne	16 <_check_wild_cards+0x71>
10000b141: 83 7d f0 ff                 	cmpl	$-1, -16(%rbp)
10000b145: 0f 84 06 00 00 00           	je	6 <_check_wild_cards+0x71>
10000b14b: 66 c7 45 f6 01 00           	movw	$1, -10(%rbp)
10000b151: 0f b7 45 f6                 	movzwl	-10(%rbp), %eax
10000b155: 5d                          	popq	%rbp
10000b156: c3                          	retq
10000b157: 90                          	nop
10000b158: 90                          	nop
10000b159: 90                          	nop
10000b15a: 90                          	nop
10000b15b: 90                          	nop
10000b15c: 90                          	nop
10000b15d: 90                          	nop
10000b15e: 90                          	nop
10000b15f: 90                          	nop

000000010000b160 _call_pipe:
10000b160: 55                          	pushq	%rbp
10000b161: 48 89 e5                    	movq	%rsp, %rbp
10000b164: 48 83 ec 30                 	subq	$48, %rsp
10000b168: 48 89 7d f8                 	movq	%rdi, -8(%rbp)
10000b16c: 89 75 f4                    	movl	%esi, -12(%rbp)
10000b16f: 48 c7 45 e8 00 00 00 00     	movq	$0, -24(%rbp)
10000b177: 48 8b 45 f8                 	movq	-8(%rbp), %rax
10000b17b: 48 8b 00                    	movq	(%rax), %rax
10000b17e: 48 63 4d f4                 	movslq	-12(%rbp), %rcx
10000b182: 0f be 14 08                 	movsbl	(%rax,%rcx), %edx
10000b186: 83 fa 7c                    	cmpl	$124, %edx
10000b189: 0f 85 a5 00 00 00           	jne	165 <_call_pipe+0xd4>
10000b18f: 31 f6                       	xorl	%esi, %esi
10000b191: 48 8b 45 f8                 	movq	-8(%rbp), %rax
10000b195: 48 8b 38                    	movq	(%rax), %rdi
10000b198: 48 63 55 f4                 	movslq	-12(%rbp), %rdx
10000b19c: e8 6f 3b 00 00              	callq	15215 <_ft_substr>
10000b1a1: 48 89 c7                    	movq	%rax, %rdi
10000b1a4: e8 67 f2 ff ff              	callq	-3481 <_remove_unused_parenthesis>
10000b1a9: 48 89 c7                    	movq	%rax, %rdi
10000b1ac: e8 df e0 ff ff              	callq	-7969 <_and_parser>
10000b1b1: 48 89 45 e8                 	movq	%rax, -24(%rbp)
10000b1b5: 48 8b 7d e8                 	movq	-24(%rbp), %rdi
10000b1b9: 48 8b 45 f8                 	movq	-8(%rbp), %rax
10000b1bd: 48 8b 00                    	movq	(%rax), %rax
10000b1c0: 8b 4d f4                    	movl	-12(%rbp), %ecx
10000b1c3: 83 c1 01                    	addl	$1, %ecx
10000b1c6: 48 8b 55 f8                 	movq	-8(%rbp), %rdx
10000b1ca: 48 8b 12                    	movq	(%rdx), %rdx
10000b1cd: 4c 63 45 f4                 	movslq	-12(%rbp), %r8
10000b1d1: 4c 01 c2                    	addq	%r8, %rdx
10000b1d4: 48 81 c2 01 00 00 00        	addq	$1, %rdx
10000b1db: 48 89 7d e0                 	movq	%rdi, -32(%rbp)
10000b1df: 48 89 d7                    	movq	%rdx, %rdi
10000b1e2: 48 89 45 d8                 	movq	%rax, -40(%rbp)
10000b1e6: 89 4d d4                    	movl	%ecx, -44(%rbp)
10000b1e9: e8 f2 39 00 00              	callq	14834 <_ft_strlen>
10000b1ee: 48 8b 7d d8                 	movq	-40(%rbp), %rdi
10000b1f2: 8b 75 d4                    	movl	-44(%rbp), %esi
10000b1f5: 48 89 c2                    	movq	%rax, %rdx
10000b1f8: e8 13 3b 00 00              	callq	15123 <_ft_substr>
10000b1fd: 48 89 c7                    	movq	%rax, %rdi
10000b200: e8 0b f2 ff ff              	callq	-3573 <_remove_unused_parenthesis>
10000b205: 48 89 c7                    	movq	%rax, %rdi
10000b208: e8 83 e0 ff ff              	callq	-8061 <_and_parser>
10000b20d: 48 8b 7d e0                 	movq	-32(%rbp), %rdi
10000b211: 48 89 c6                    	movq	%rax, %rsi
10000b214: e8 b7 cf ff ff              	callq	-12361 <_pipe_constructor>
10000b219: 48 89 45 e8                 	movq	%rax, -24(%rbp)
10000b21d: 48 8b 45 f8                 	movq	-8(%rbp), %rax
10000b221: 48 8b 38                    	movq	(%rax), %rdi
10000b224: e8 f3 42 00 00              	callq	17139 <dyld_stub_binder+0x10000f51c>
10000b229: 48 8b 45 f8                 	movq	-8(%rbp), %rax
10000b22d: 48 c7 00 00 00 00 00        	movq	$0, (%rax)
10000b234: 48 8b 45 e8                 	movq	-24(%rbp), %rax
10000b238: 48 83 c4 30                 	addq	$48, %rsp
10000b23c: 5d                          	popq	%rbp
10000b23d: c3                          	retq
10000b23e: 66 90                       	nop

000000010000b240 _pipe_parser:
10000b240: 55                          	pushq	%rbp
10000b241: 48 89 e5                    	movq	%rsp, %rbp
10000b244: 48 83 ec 30                 	subq	$48, %rsp
10000b248: 48 89 7d f0                 	movq	%rdi, -16(%rbp)
10000b24c: 48 83 7d f0 00              	cmpq	$0, -16(%rbp)
10000b251: 0f 85 0d 00 00 00           	jne	13 <_pipe_parser+0x24>
10000b257: 48 c7 45 f8 00 00 00 00     	movq	$0, -8(%rbp)
10000b25f: e9 ad 01 00 00              	jmp	429 <_pipe_parser+0x1d1>
10000b264: c7 45 e4 00 00 00 00        	movl	$0, -28(%rbp)
10000b26b: 48 c7 45 e8 00 00 00 00     	movq	$0, -24(%rbp)
10000b273: 48 8d 7d d8                 	leaq	-40(%rbp), %rdi
10000b277: e8 54 f6 ff ff              	callq	-2476 <_set_zero_var>
10000b27c: 48 8b 7d f0                 	movq	-16(%rbp), %rdi
10000b280: e8 6b fd ff ff              	callq	-661 <_skip_spaces_front>
10000b285: 89 45 e4                    	movl	%eax, -28(%rbp)
10000b288: 48 8b 4d f0                 	movq	-16(%rbp), %rcx
10000b28c: 48 63 55 e4                 	movslq	-28(%rbp), %rdx
10000b290: 0f be 04 11                 	movsbl	(%rcx,%rdx), %eax
10000b294: 83 f8 29                    	cmpl	$41, %eax
10000b297: 0f 84 2a 00 00 00           	je	42 <_pipe_parser+0x87>
10000b29d: 48 8b 45 f0                 	movq	-16(%rbp), %rax
10000b2a1: 48 63 4d e4                 	movslq	-28(%rbp), %rcx
10000b2a5: 0f be 14 08                 	movsbl	(%rax,%rcx), %edx
10000b2a9: 83 fa 26                    	cmpl	$38, %edx
10000b2ac: 0f 84 15 00 00 00           	je	21 <_pipe_parser+0x87>
10000b2b2: 48 8b 45 f0                 	movq	-16(%rbp), %rax
10000b2b6: 48 63 4d e4                 	movslq	-28(%rbp), %rcx
10000b2ba: 0f be 14 08                 	movsbl	(%rax,%rcx), %edx
10000b2be: 83 fa 7c                    	cmpl	$124, %edx
10000b2c1: 0f 85 2b 00 00 00           	jne	43 <_pipe_parser+0xb2>
10000b2c7: 48 8b 75 f0                 	movq	-16(%rbp), %rsi
10000b2cb: 48 8b 45 f0                 	movq	-16(%rbp), %rax
10000b2cf: 48 63 4d e4                 	movslq	-28(%rbp), %rcx
10000b2d3: 48 01 c8                    	addq	%rcx, %rax
10000b2d6: 48 8d 3d d1 4b 00 00        	leaq	19409(%rip), %rdi
10000b2dd: 48 89 c2                    	movq	%rax, %rdx
10000b2e0: e8 5b fd ff ff              	callq	-677 <_pr_custom_err>
10000b2e5: 48 c7 45 f8 00 00 00 00     	movq	$0, -8(%rbp)
10000b2ed: e9 1f 01 00 00              	jmp	287 <_pipe_parser+0x1d1>
10000b2f2: e9 00 00 00 00              	jmp	0 <_pipe_parser+0xb7>
10000b2f7: 48 8b 45 f0                 	movq	-16(%rbp), %rax
10000b2fb: 48 63 4d e4                 	movslq	-28(%rbp), %rcx
10000b2ff: 80 3c 08 00                 	cmpb	$0, (%rax,%rcx)
10000b303: 0f 84 d5 00 00 00           	je	213 <_pipe_parser+0x19e>
10000b309: 48 8b 45 f0                 	movq	-16(%rbp), %rax
10000b30d: 48 63 4d e4                 	movslq	-28(%rbp), %rcx
10000b311: 0f be 3c 08                 	movsbl	(%rax,%rcx), %edi
10000b315: 48 8d 75 d8                 	leaq	-40(%rbp), %rsi
10000b319: e8 d2 f5 ff ff              	callq	-2606 <_check_out_of_quotes>
10000b31e: 48 8b 45 f0                 	movq	-16(%rbp), %rax
10000b322: 48 63 4d e4                 	movslq	-28(%rbp), %rcx
10000b326: 0f be 14 08                 	movsbl	(%rax,%rcx), %edx
10000b32a: 83 fa 28                    	cmpl	$40, %edx
10000b32d: 0f 85 49 00 00 00           	jne	73 <_pipe_parser+0x13c>
10000b333: 8a 45 d8                    	movb	-40(%rbp), %al
10000b336: 24 01                       	andb	$1, %al
10000b338: 0f b6 c8                    	movzbl	%al, %ecx
10000b33b: 83 f9 00                    	cmpl	$0, %ecx
10000b33e: 0f 85 38 00 00 00           	jne	56 <_pipe_parser+0x13c>
10000b344: 8a 45 d8                    	movb	-40(%rbp), %al
10000b347: c0 e8 01                    	shrb	$1, %al
10000b34a: 24 01                       	andb	$1, %al
10000b34c: 0f b6 c8                    	movzbl	%al, %ecx
10000b34f: 83 f9 00                    	cmpl	$0, %ecx
10000b352: 0f 85 24 00 00 00           	jne	36 <_pipe_parser+0x13c>
10000b358: 48 8b 45 f0                 	movq	-16(%rbp), %rax
10000b35c: 48 63 4d e4                 	movslq	-28(%rbp), %rcx
10000b360: 48 01 c8                    	addq	%rcx, %rax
10000b363: 48 05 01 00 00 00           	addq	$1, %rax
10000b369: 48 89 c7                    	movq	%rax, %rdi
10000b36c: e8 3f f4 ff ff              	callq	-3009 <_close_parenthise>
10000b371: 03 45 e4                    	addl	-28(%rbp), %eax
10000b374: 89 45 e4                    	movl	%eax, -28(%rbp)
10000b377: e9 7b ff ff ff              	jmp	-133 <_pipe_parser+0xb7>
10000b37c: 48 8b 45 f0                 	movq	-16(%rbp), %rax
10000b380: 48 63 4d e4                 	movslq	-28(%rbp), %rcx
10000b384: 0f be 14 08                 	movsbl	(%rax,%rcx), %edx
10000b388: 83 fa 7c                    	cmpl	$124, %edx
10000b38b: 0f 85 3a 00 00 00           	jne	58 <_pipe_parser+0x18b>
10000b391: 8a 45 d8                    	movb	-40(%rbp), %al
10000b394: 24 01                       	andb	$1, %al
10000b396: 0f b6 c8                    	movzbl	%al, %ecx
10000b399: 83 f9 00                    	cmpl	$0, %ecx
10000b39c: 0f 85 29 00 00 00           	jne	41 <_pipe_parser+0x18b>
10000b3a2: 8a 45 d8                    	movb	-40(%rbp), %al
10000b3a5: c0 e8 01                    	shrb	$1, %al
10000b3a8: 24 01                       	andb	$1, %al
10000b3aa: 0f b6 c8                    	movzbl	%al, %ecx
10000b3ad: 83 f9 00                    	cmpl	$0, %ecx
10000b3b0: 0f 85 15 00 00 00           	jne	21 <_pipe_parser+0x18b>
10000b3b6: 8b 75 e4                    	movl	-28(%rbp), %esi
10000b3b9: 48 8d 7d f0                 	leaq	-16(%rbp), %rdi
10000b3bd: e8 9e fd ff ff              	callq	-610 <_call_pipe>
10000b3c2: 48 89 45 e8                 	movq	%rax, -24(%rbp)
10000b3c6: e9 13 00 00 00              	jmp	19 <_pipe_parser+0x19e>
10000b3cb: e9 00 00 00 00              	jmp	0 <_pipe_parser+0x190>
10000b3d0: 8b 45 e4                    	movl	-28(%rbp), %eax
10000b3d3: 83 c0 01                    	addl	$1, %eax
10000b3d6: 89 45 e4                    	movl	%eax, -28(%rbp)
10000b3d9: e9 19 ff ff ff              	jmp	-231 <_pipe_parser+0xb7>
10000b3de: 48 83 7d e8 00              	cmpq	$0, -24(%rbp)
10000b3e3: 0f 85 20 00 00 00           	jne	32 <_pipe_parser+0x1c9>
10000b3e9: 48 83 7d f0 00              	cmpq	$0, -16(%rbp)
10000b3ee: 0f 84 15 00 00 00           	je	21 <_pipe_parser+0x1c9>
10000b3f4: 48 8b 7d f0                 	movq	-16(%rbp), %rdi
10000b3f8: e8 13 f0 ff ff              	callq	-4077 <_remove_unused_parenthesis>
10000b3fd: 48 89 c7                    	movq	%rax, %rdi
10000b400: e8 6b 08 00 00              	callq	2155 <_redirections_parser_has_parenthesis>
10000b405: 48 89 45 e8                 	movq	%rax, -24(%rbp)
10000b409: 48 8b 45 e8                 	movq	-24(%rbp), %rax
10000b40d: 48 89 45 f8                 	movq	%rax, -8(%rbp)
10000b411: 48 8b 45 f8                 	movq	-8(%rbp), %rax
10000b415: 48 83 c4 30                 	addq	$48, %rsp
10000b419: 5d                          	popq	%rbp
10000b41a: c3                          	retq
10000b41b: 90                          	nop
10000b41c: 90                          	nop
10000b41d: 90                          	nop
10000b41e: 90                          	nop
10000b41f: 90                          	nop

000000010000b420 _parse_line:
10000b420: 55                          	pushq	%rbp
10000b421: 48 89 e5                    	movq	%rsp, %rbp
10000b424: 48 83 ec 10                 	subq	$16, %rsp
10000b428: 48 89 7d f8                 	movq	%rdi, -8(%rbp)
10000b42c: 48 8b 7d f8                 	movq	-8(%rbp), %rdi
10000b430: e8 0b 37 00 00              	callq	14091 <_ft_strdup>
10000b435: 48 89 c7                    	movq	%rax, %rdi
10000b438: e8 d3 ef ff ff              	callq	-4141 <_remove_unused_parenthesis>
10000b43d: 48 89 45 f8                 	movq	%rax, -8(%rbp)
10000b441: 48 8b 7d f8                 	movq	-8(%rbp), %rdi
10000b445: e8 46 de ff ff              	callq	-8634 <_and_parser>
10000b44a: 48 83 c4 10                 	addq	$16, %rsp
10000b44e: 5d                          	popq	%rbp
10000b44f: c3                          	retq

000000010000b450 _get_name:
10000b450: 55                          	pushq	%rbp
10000b451: 48 89 e5                    	movq	%rsp, %rbp
10000b454: 48 83 ec 30                 	subq	$48, %rsp
10000b458: 48 89 7d f8                 	movq	%rdi, -8(%rbp)
10000b45c: 48 89 75 f0                 	movq	%rsi, -16(%rbp)
10000b460: 89 55 ec                    	movl	%edx, -20(%rbp)
10000b463: 48 c7 45 e0 00 00 00 00     	movq	$0, -32(%rbp)
10000b46b: 48 8b 45 f0                 	movq	-16(%rbp), %rax
10000b46f: 8b 48 14                    	movl	20(%rax), %ecx
10000b472: 89 4d dc                    	movl	%ecx, -36(%rbp)
10000b475: 83 7d ec 04                 	cmpl	$4, -20(%rbp)
10000b479: 0f 85 3d 00 00 00           	jne	61 <_get_name+0x6c>
10000b47f: 48 8b 7d e0                 	movq	-32(%rbp), %rdi
10000b483: 48 8b 45 f8                 	movq	-8(%rbp), %rax
10000b487: 48 8b 4d f0                 	movq	-16(%rbp), %rcx
10000b48b: 8b 51 14                    	movl	20(%rcx), %edx
10000b48e: 48 89 7d d0                 	movq	%rdi, -48(%rbp)
10000b492: 48 89 c7                    	movq	%rax, %rdi
10000b495: 48 8d 75 dc                 	leaq	-36(%rbp), %rsi
10000b499: e8 52 00 00 00              	callq	82 <_skip_quote_redir_names>
10000b49e: 48 8b 7d d0                 	movq	-48(%rbp), %rdi
10000b4a2: 48 89 c6                    	movq	%rax, %rsi
10000b4a5: ba 02 00 00 00              	movl	$2, %edx
10000b4aa: e8 e1 1f 00 00              	callq	8161 <_arguments_constructor>
10000b4af: 48 8b 4d f0                 	movq	-16(%rbp), %rcx
10000b4b3: 48 89 41 08                 	movq	%rax, 8(%rcx)
10000b4b7: e9 1c 00 00 00              	jmp	28 <_get_name+0x88>
10000b4bc: 31 d2                       	xorl	%edx, %edx
10000b4be: 48 8b 7d f8                 	movq	-8(%rbp), %rdi
10000b4c2: 48 8d 75 dc                 	leaq	-36(%rbp), %rsi
10000b4c6: b9 01 00 00 00              	movl	$1, %ecx
10000b4cb: e8 90 28 00 00              	callq	10384 <_get_argument>
10000b4d0: 48 8b 75 f0                 	movq	-16(%rbp), %rsi
10000b4d4: 48 89 46 08                 	movq	%rax, 8(%rsi)
10000b4d8: 8b 45 dc                    	movl	-36(%rbp), %eax
10000b4db: 48 83 c4 30                 	addq	$48, %rsp
10000b4df: 5d                          	popq	%rbp
10000b4e0: c3                          	retq
10000b4e1: 66 2e 0f 1f 84 00 00 00 00 00       	nopw	%cs:(%rax,%rax)
10000b4eb: 0f 1f 44 00 00              	nopl	(%rax,%rax)

000000010000b4f0 _skip_quote_redir_names:
10000b4f0: 55                          	pushq	%rbp
10000b4f1: 48 89 e5                    	movq	%rsp, %rbp
10000b4f4: 48 83 ec 30                 	subq	$48, %rsp
10000b4f8: 48 89 7d f8                 	movq	%rdi, -8(%rbp)
10000b4fc: 48 89 75 f0                 	movq	%rsi, -16(%rbp)
10000b500: 89 55 ec                    	movl	%edx, -20(%rbp)
10000b503: 48 8d 7d d8                 	leaq	-40(%rbp), %rdi
10000b507: e8 c4 f3 ff ff              	callq	-3132 <_set_zero_var>
10000b50c: 48 8b 45 f8                 	movq	-8(%rbp), %rax
10000b510: 48 63 4d ec                 	movslq	-20(%rbp), %rcx
10000b514: 48 01 c8                    	addq	%rcx, %rax
10000b517: 48 89 c7                    	movq	%rax, %rdi
10000b51a: e8 c1 36 00 00              	callq	14017 <_ft_strlen>
10000b51f: 48 05 01 00 00 00           	addq	$1, %rax
10000b525: bf 01 00 00 00              	movl	$1, %edi
10000b52a: 48 89 c6                    	movq	%rax, %rsi
10000b52d: e8 3e 32 00 00              	callq	12862 <_ft_calloc>
10000b532: 48 89 45 e0                 	movq	%rax, -32(%rbp)
10000b536: c7 45 e8 00 00 00 00        	movl	$0, -24(%rbp)
10000b53d: 48 8b 45 f8                 	movq	-8(%rbp), %rax
10000b541: 48 63 4d ec                 	movslq	-20(%rbp), %rcx
10000b545: 80 3c 08 00                 	cmpb	$0, (%rax,%rcx)
10000b549: 0f 84 93 01 00 00           	je	403 <_skip_quote_redir_names+0x1f2>
10000b54f: 48 8b 45 f8                 	movq	-8(%rbp), %rax
10000b553: 48 63 4d ec                 	movslq	-20(%rbp), %rcx
10000b557: 0f be 3c 08                 	movsbl	(%rax,%rcx), %edi
10000b55b: 48 8d 75 d8                 	leaq	-40(%rbp), %rsi
10000b55f: e8 8c f3 ff ff              	callq	-3188 <_check_out_of_quotes>
10000b564: 48 8b 45 f8                 	movq	-8(%rbp), %rax
10000b568: 48 63 4d ec                 	movslq	-20(%rbp), %rcx
10000b56c: 0f be 3c 08                 	movsbl	(%rax,%rcx), %edi
10000b570: e8 0b 33 00 00              	callq	13067 <_ft_isspace>
10000b575: 83 f8 00                    	cmpl	$0, %eax
10000b578: 0f 84 2a 00 00 00           	je	42 <_skip_quote_redir_names+0xb8>
10000b57e: 8a 45 d8                    	movb	-40(%rbp), %al
10000b581: 24 01                       	andb	$1, %al
10000b583: 0f b6 c8                    	movzbl	%al, %ecx
10000b586: 83 f9 00                    	cmpl	$0, %ecx
10000b589: 0f 85 19 00 00 00           	jne	25 <_skip_quote_redir_names+0xb8>
10000b58f: 8a 45 d8                    	movb	-40(%rbp), %al
10000b592: c0 e8 01                    	shrb	$1, %al
10000b595: 24 01                       	andb	$1, %al
10000b597: 0f b6 c8                    	movzbl	%al, %ecx
10000b59a: 83 f9 00                    	cmpl	$0, %ecx
10000b59d: 0f 85 05 00 00 00           	jne	5 <_skip_quote_redir_names+0xb8>
10000b5a3: e9 3a 01 00 00              	jmp	314 <_skip_quote_redir_names+0x1f2>
10000b5a8: 8a 45 d8                    	movb	-40(%rbp), %al
10000b5ab: 24 01                       	andb	$1, %al
10000b5ad: 0f b6 c8                    	movzbl	%al, %ecx
10000b5b0: 83 f9 00                    	cmpl	$0, %ecx
10000b5b3: 0f 85 14 00 00 00           	jne	20 <_skip_quote_redir_names+0xdd>
10000b5b9: 8a 45 d8                    	movb	-40(%rbp), %al
10000b5bc: c0 e8 01                    	shrb	$1, %al
10000b5bf: 24 01                       	andb	$1, %al
10000b5c1: 0f b6 c8                    	movzbl	%al, %ecx
10000b5c4: 83 f9 00                    	cmpl	$0, %ecx
10000b5c7: 0f 84 3f 00 00 00           	je	63 <_skip_quote_redir_names+0x11c>
10000b5cd: 48 8b 45 f8                 	movq	-8(%rbp), %rax
10000b5d1: 48 63 4d ec                 	movslq	-20(%rbp), %rcx
10000b5d5: 0f be 3c 08                 	movsbl	(%rax,%rcx), %edi
10000b5d9: e8 a2 32 00 00              	callq	12962 <_ft_isspace>
10000b5de: 83 f8 00                    	cmpl	$0, %eax
10000b5e1: 0f 84 25 00 00 00           	je	37 <_skip_quote_redir_names+0x11c>
10000b5e7: 48 8b 45 f8                 	movq	-8(%rbp), %rax
10000b5eb: 48 63 4d ec                 	movslq	-20(%rbp), %rcx
10000b5ef: 8a 14 08                    	movb	(%rax,%rcx), %dl
10000b5f2: 48 8b 45 e0                 	movq	-32(%rbp), %rax
10000b5f6: 8b 75 e8                    	movl	-24(%rbp), %esi
10000b5f9: 89 f7                       	movl	%esi, %edi
10000b5fb: 83 c7 01                    	addl	$1, %edi
10000b5fe: 89 7d e8                    	movl	%edi, -24(%rbp)
10000b601: 48 63 ce                    	movslq	%esi, %rcx
10000b604: 88 14 08                    	movb	%dl, (%rax,%rcx)
10000b607: e9 c8 00 00 00              	jmp	200 <_skip_quote_redir_names+0x1e4>
10000b60c: 48 8b 45 f8                 	movq	-8(%rbp), %rax
10000b610: 48 63 4d ec                 	movslq	-20(%rbp), %rcx
10000b614: 0f be 14 08                 	movsbl	(%rax,%rcx), %edx
10000b618: 83 fa 22                    	cmpl	$34, %edx
10000b61b: 0f 85 11 00 00 00           	jne	17 <_skip_quote_redir_names+0x142>
10000b621: 8a 45 d8                    	movb	-40(%rbp), %al
10000b624: 24 01                       	andb	$1, %al
10000b626: 0f b6 c8                    	movzbl	%al, %ecx
10000b629: 83 f9 00                    	cmpl	$0, %ecx
10000b62c: 0f 85 29 00 00 00           	jne	41 <_skip_quote_redir_names+0x16b>
10000b632: 48 8b 45 f8                 	movq	-8(%rbp), %rax
10000b636: 48 63 4d ec                 	movslq	-20(%rbp), %rcx
10000b63a: 0f be 14 08                 	movsbl	(%rax,%rcx), %edx
10000b63e: 83 fa 27                    	cmpl	$39, %edx
10000b641: 0f 85 39 00 00 00           	jne	57 <_skip_quote_redir_names+0x190>
10000b647: 8a 45 d8                    	movb	-40(%rbp), %al
10000b64a: c0 e8 01                    	shrb	$1, %al
10000b64d: 24 01                       	andb	$1, %al
10000b64f: 0f b6 c8                    	movzbl	%al, %ecx
10000b652: 83 f9 00                    	cmpl	$0, %ecx
10000b655: 0f 84 25 00 00 00           	je	37 <_skip_quote_redir_names+0x190>
10000b65b: 48 8b 45 f8                 	movq	-8(%rbp), %rax
10000b65f: 48 63 4d ec                 	movslq	-20(%rbp), %rcx
10000b663: 8a 14 08                    	movb	(%rax,%rcx), %dl
10000b666: 48 8b 45 e0                 	movq	-32(%rbp), %rax
10000b66a: 8b 75 e8                    	movl	-24(%rbp), %esi
10000b66d: 89 f7                       	movl	%esi, %edi
10000b66f: 83 c7 01                    	addl	$1, %edi
10000b672: 89 7d e8                    	movl	%edi, -24(%rbp)
10000b675: 48 63 ce                    	movslq	%esi, %rcx
10000b678: 88 14 08                    	movb	%dl, (%rax,%rcx)
10000b67b: e9 4f 00 00 00              	jmp	79 <_skip_quote_redir_names+0x1df>
10000b680: 48 8b 45 f8                 	movq	-8(%rbp), %rax
10000b684: 48 63 4d ec                 	movslq	-20(%rbp), %rcx
10000b688: 0f be 14 08                 	movsbl	(%rax,%rcx), %edx
10000b68c: 83 fa 27                    	cmpl	$39, %edx
10000b68f: 0f 84 35 00 00 00           	je	53 <_skip_quote_redir_names+0x1da>
10000b695: 48 8b 45 f8                 	movq	-8(%rbp), %rax
10000b699: 48 63 4d ec                 	movslq	-20(%rbp), %rcx
10000b69d: 0f be 14 08                 	movsbl	(%rax,%rcx), %edx
10000b6a1: 83 fa 22                    	cmpl	$34, %edx
10000b6a4: 0f 84 20 00 00 00           	je	32 <_skip_quote_redir_names+0x1da>
10000b6aa: 48 8b 45 f8                 	movq	-8(%rbp), %rax
10000b6ae: 48 63 4d ec                 	movslq	-20(%rbp), %rcx
10000b6b2: 8a 14 08                    	movb	(%rax,%rcx), %dl
10000b6b5: 48 8b 45 e0                 	movq	-32(%rbp), %rax
10000b6b9: 8b 75 e8                    	movl	-24(%rbp), %esi
10000b6bc: 89 f7                       	movl	%esi, %edi
10000b6be: 83 c7 01                    	addl	$1, %edi
10000b6c1: 89 7d e8                    	movl	%edi, -24(%rbp)
10000b6c4: 48 63 ce                    	movslq	%esi, %rcx
10000b6c7: 88 14 08                    	movb	%dl, (%rax,%rcx)
10000b6ca: e9 00 00 00 00              	jmp	0 <_skip_quote_redir_names+0x1df>
10000b6cf: e9 00 00 00 00              	jmp	0 <_skip_quote_redir_names+0x1e4>
10000b6d4: 8b 45 ec                    	movl	-20(%rbp), %eax
10000b6d7: 83 c0 01                    	addl	$1, %eax
10000b6da: 89 45 ec                    	movl	%eax, -20(%rbp)
10000b6dd: e9 5b fe ff ff              	jmp	-421 <_skip_quote_redir_names+0x4d>
10000b6e2: 8b 45 ec                    	movl	-20(%rbp), %eax
10000b6e5: 48 8b 4d f0                 	movq	-16(%rbp), %rcx
10000b6e9: 89 01                       	movl	%eax, (%rcx)
10000b6eb: 48 8b 45 e0                 	movq	-32(%rbp), %rax
10000b6ef: 48 83 c4 30                 	addq	$48, %rsp
10000b6f3: 5d                          	popq	%rbp
10000b6f4: c3                          	retq
10000b6f5: 66 2e 0f 1f 84 00 00 00 00 00       	nopw	%cs:(%rax,%rax)
10000b6ff: 90                          	nop

000000010000b700 _fill_redir_content:
10000b700: 55                          	pushq	%rbp
10000b701: 48 89 e5                    	movq	%rsp, %rbp
10000b704: 48 83 ec 30                 	subq	$48, %rsp
10000b708: 48 89 7d f8                 	movq	%rdi, -8(%rbp)
10000b70c: 89 75 f4                    	movl	%esi, -12(%rbp)
10000b70f: 48 89 55 e8                 	movq	%rdx, -24(%rbp)
10000b713: 89 4d e4                    	movl	%ecx, -28(%rbp)
10000b716: 48 8d 7d d8                 	leaq	-40(%rbp), %rdi
10000b71a: e8 b1 f1 ff ff              	callq	-3663 <_set_zero_var>
10000b71f: c7 45 e0 00 00 00 00        	movl	$0, -32(%rbp)
10000b726: 8b 45 f4                    	movl	-12(%rbp), %eax
10000b729: 8b 4d e4                    	movl	-28(%rbp), %ecx
10000b72c: c1 f9 01                    	sarl	$1, %ecx
10000b72f: 01 c8                       	addl	%ecx, %eax
10000b731: 89 45 f4                    	movl	%eax, -12(%rbp)
10000b734: 48 8b 55 e8                 	movq	-24(%rbp), %rdx
10000b738: 48 c7 42 08 00 00 00 00     	movq	$0, 8(%rdx)
10000b740: 48 8b 45 f8                 	movq	-8(%rbp), %rax
10000b744: 48 63 4d f4                 	movslq	-12(%rbp), %rcx
10000b748: 0f be 3c 08                 	movsbl	(%rax,%rcx), %edi
10000b74c: e8 2f 31 00 00              	callq	12591 <_ft_isspace>
10000b751: 83 f8 00                    	cmpl	$0, %eax
10000b754: 0f 84 0e 00 00 00           	je	14 <_fill_redir_content+0x68>
10000b75a: 8b 45 f4                    	movl	-12(%rbp), %eax
10000b75d: 83 c0 01                    	addl	$1, %eax
10000b760: 89 45 f4                    	movl	%eax, -12(%rbp)
10000b763: e9 d8 ff ff ff              	jmp	-40 <_fill_redir_content+0x40>
10000b768: 8b 45 f4                    	movl	-12(%rbp), %eax
10000b76b: 48 8b 4d e8                 	movq	-24(%rbp), %rcx
10000b76f: 89 41 14                    	movl	%eax, 20(%rcx)
10000b772: 48 8b 7d f8                 	movq	-8(%rbp), %rdi
10000b776: 48 8b 75 e8                 	movq	-24(%rbp), %rsi
10000b77a: 8b 55 e4                    	movl	-28(%rbp), %edx
10000b77d: e8 ce fc ff ff              	callq	-818 <_get_name>
10000b782: 89 45 f4                    	movl	%eax, -12(%rbp)
10000b785: 48 8b 7d e8                 	movq	-24(%rbp), %rdi
10000b789: 8b 75 e4                    	movl	-28(%rbp), %esi
10000b78c: e8 0f 00 00 00              	callq	15 <_fill_red_content>
10000b791: 8b 45 f4                    	movl	-12(%rbp), %eax
10000b794: 48 83 c4 30                 	addq	$48, %rsp
10000b798: 5d                          	popq	%rbp
10000b799: c3                          	retq
10000b79a: 66 0f 1f 44 00 00           	nopw	(%rax,%rax)

000000010000b7a0 _fill_red_content:
10000b7a0: 55                          	pushq	%rbp
10000b7a1: 48 89 e5                    	movq	%rsp, %rbp
10000b7a4: 48 89 7d f8                 	movq	%rdi, -8(%rbp)
10000b7a8: 89 75 f4                    	movl	%esi, -12(%rbp)
10000b7ab: 48 8b 45 f8                 	movq	-8(%rbp), %rax
10000b7af: c7 40 14 00 00 00 00        	movl	$0, 20(%rax)
10000b7b6: 48 8b 45 f8                 	movq	-8(%rbp), %rax
10000b7ba: c7 40 10 00 00 00 00        	movl	$0, 16(%rax)
10000b7c1: 83 7d f4 04                 	cmpl	$4, -12(%rbp)
10000b7c5: 0f 85 0f 00 00 00           	jne	15 <_fill_red_content+0x3a>
10000b7cb: 48 8b 45 f8                 	movq	-8(%rbp), %rax
10000b7cf: c7 00 01 00 00 00           	movl	$1, (%rax)
10000b7d5: e9 81 00 00 00              	jmp	129 <_fill_red_content+0xbb>
10000b7da: 83 7d f4 02                 	cmpl	$2, -12(%rbp)
10000b7de: 0f 85 0f 00 00 00           	jne	15 <_fill_red_content+0x53>
10000b7e4: 48 8b 45 f8                 	movq	-8(%rbp), %rax
10000b7e8: c7 00 02 00 00 00           	movl	$2, (%rax)
10000b7ee: e9 63 00 00 00              	jmp	99 <_fill_red_content+0xb6>
10000b7f3: 83 7d f4 05                 	cmpl	$5, -12(%rbp)
10000b7f7: 0f 85 25 00 00 00           	jne	37 <_fill_red_content+0x82>
10000b7fd: 48 8b 45 f8                 	movq	-8(%rbp), %rax
10000b801: c7 40 14 01 00 00 00        	movl	$1, 20(%rax)
10000b808: 48 8b 45 f8                 	movq	-8(%rbp), %rax
10000b80c: c7 40 10 09 02 00 00        	movl	$521, 16(%rax)
10000b813: 48 8b 45 f8                 	movq	-8(%rbp), %rax
10000b817: c7 00 04 00 00 00           	movl	$4, (%rax)
10000b81d: e9 2f 00 00 00              	jmp	47 <_fill_red_content+0xb1>
10000b822: 83 7d f4 03                 	cmpl	$3, -12(%rbp)
10000b826: 0f 85 20 00 00 00           	jne	32 <_fill_red_content+0xac>
10000b82c: 48 8b 45 f8                 	movq	-8(%rbp), %rax
10000b830: c7 40 14 01 00 00 00        	movl	$1, 20(%rax)
10000b837: 48 8b 45 f8                 	movq	-8(%rbp), %rax
10000b83b: c7 40 10 01 06 00 00        	movl	$1537, 16(%rax)
10000b842: 48 8b 45 f8                 	movq	-8(%rbp), %rax
10000b846: c7 00 03 00 00 00           	movl	$3, (%rax)
10000b84c: e9 00 00 00 00              	jmp	0 <_fill_red_content+0xb1>
10000b851: e9 00 00 00 00              	jmp	0 <_fill_red_content+0xb6>
10000b856: e9 00 00 00 00              	jmp	0 <_fill_red_content+0xbb>
10000b85b: 5d                          	popq	%rbp
10000b85c: c3                          	retq
10000b85d: 0f 1f 00                    	nopl	(%rax)

000000010000b860 _check_for_redirections:
10000b860: 55                          	pushq	%rbp
10000b861: 48 89 e5                    	movq	%rsp, %rbp
10000b864: 48 83 ec 20                 	subq	$32, %rsp
10000b868: 48 89 7d f8                 	movq	%rdi, -8(%rbp)
10000b86c: 89 75 f4                    	movl	%esi, -12(%rbp)
10000b86f: c7 45 f0 00 00 00 00        	movl	$0, -16(%rbp)
10000b876: c7 45 e4 00 00 00 00        	movl	$0, -28(%rbp)
10000b87d: 48 c7 45 e8 00 00 00 00     	movq	$0, -24(%rbp)
10000b885: 48 8b 45 f8                 	movq	-8(%rbp), %rax
10000b889: 48 63 4d f4                 	movslq	-12(%rbp), %rcx
10000b88d: 0f be 14 08                 	movsbl	(%rax,%rcx), %edx
10000b891: 83 fa 3c                    	cmpl	$60, %edx
10000b894: 0f 85 34 00 00 00           	jne	52 <_check_for_redirections+0x6e>
10000b89a: 48 8b 45 f8                 	movq	-8(%rbp), %rax
10000b89e: 8b 4d f4                    	movl	-12(%rbp), %ecx
10000b8a1: 83 c1 01                    	addl	$1, %ecx
10000b8a4: 48 63 d1                    	movslq	%ecx, %rdx
10000b8a7: 0f be 0c 10                 	movsbl	(%rax,%rdx), %ecx
10000b8ab: 83 f9 3c                    	cmpl	$60, %ecx
10000b8ae: 0f 85 1a 00 00 00           	jne	26 <_check_for_redirections+0x6e>
10000b8b4: 48 8b 7d f8                 	movq	-8(%rbp), %rdi
10000b8b8: 8b 75 f4                    	movl	-12(%rbp), %esi
10000b8bb: ba 04 00 00 00              	movl	$4, %edx
10000b8c0: e8 cb 00 00 00              	callq	203 <_get_redirection>
10000b8c5: 48 89 45 e8                 	movq	%rax, -24(%rbp)
10000b8c9: e9 b1 00 00 00              	jmp	177 <_check_for_redirections+0x11f>
10000b8ce: 48 8b 45 f8                 	movq	-8(%rbp), %rax
10000b8d2: 48 63 4d f4                 	movslq	-12(%rbp), %rcx
10000b8d6: 0f be 14 08                 	movsbl	(%rax,%rcx), %edx
10000b8da: 83 fa 3c                    	cmpl	$60, %edx
10000b8dd: 0f 85 1a 00 00 00           	jne	26 <_check_for_redirections+0x9d>
10000b8e3: 48 8b 7d f8                 	movq	-8(%rbp), %rdi
10000b8e7: 8b 75 f4                    	movl	-12(%rbp), %esi
10000b8ea: ba 02 00 00 00              	movl	$2, %edx
10000b8ef: e8 9c 00 00 00              	callq	156 <_get_redirection>
10000b8f4: 48 89 45 e8                 	movq	%rax, -24(%rbp)
10000b8f8: e9 7d 00 00 00              	jmp	125 <_check_for_redirections+0x11a>
10000b8fd: 48 8b 45 f8                 	movq	-8(%rbp), %rax
10000b901: 48 63 4d f4                 	movslq	-12(%rbp), %rcx
10000b905: 0f be 14 08                 	movsbl	(%rax,%rcx), %edx
10000b909: 83 fa 3e                    	cmpl	$62, %edx
10000b90c: 0f 85 34 00 00 00           	jne	52 <_check_for_redirections+0xe6>
10000b912: 48 8b 45 f8                 	movq	-8(%rbp), %rax
10000b916: 8b 4d f4                    	movl	-12(%rbp), %ecx
10000b919: 83 c1 01                    	addl	$1, %ecx
10000b91c: 48 63 d1                    	movslq	%ecx, %rdx
10000b91f: 0f be 0c 10                 	movsbl	(%rax,%rdx), %ecx
10000b923: 83 f9 3e                    	cmpl	$62, %ecx
10000b926: 0f 85 1a 00 00 00           	jne	26 <_check_for_redirections+0xe6>
10000b92c: 48 8b 7d f8                 	movq	-8(%rbp), %rdi
10000b930: 8b 75 f4                    	movl	-12(%rbp), %esi
10000b933: ba 05 00 00 00              	movl	$5, %edx
10000b938: e8 53 00 00 00              	callq	83 <_get_redirection>
10000b93d: 48 89 45 e8                 	movq	%rax, -24(%rbp)
10000b941: e9 2f 00 00 00              	jmp	47 <_check_for_redirections+0x115>
10000b946: 48 8b 45 f8                 	movq	-8(%rbp), %rax
10000b94a: 48 63 4d f4                 	movslq	-12(%rbp), %rcx
10000b94e: 0f be 14 08                 	movsbl	(%rax,%rcx), %edx
10000b952: 83 fa 3e                    	cmpl	$62, %edx
10000b955: 0f 85 15 00 00 00           	jne	21 <_check_for_redirections+0x110>
10000b95b: 48 8b 7d f8                 	movq	-8(%rbp), %rdi
10000b95f: 8b 75 f4                    	movl	-12(%rbp), %esi
10000b962: ba 03 00 00 00              	movl	$3, %edx
10000b967: e8 24 00 00 00              	callq	36 <_get_redirection>
10000b96c: 48 89 45 e8                 	movq	%rax, -24(%rbp)
10000b970: e9 00 00 00 00              	jmp	0 <_check_for_redirections+0x115>
10000b975: e9 00 00 00 00              	jmp	0 <_check_for_redirections+0x11a>
10000b97a: e9 00 00 00 00              	jmp	0 <_check_for_redirections+0x11f>
10000b97f: 48 8b 45 e8                 	movq	-24(%rbp), %rax
10000b983: 48 83 c4 20                 	addq	$32, %rsp
10000b987: 5d                          	popq	%rbp
10000b988: c3                          	retq
10000b989: 0f 1f 80 00 00 00 00        	nopl	(%rax)

000000010000b990 _get_redirection:
10000b990: 55                          	pushq	%rbp
10000b991: 48 89 e5                    	movq	%rsp, %rbp
10000b994: 48 83 ec 70                 	subq	$112, %rsp
10000b998: 48 89 7d f8                 	movq	%rdi, -8(%rbp)
10000b99c: 89 75 f4                    	movl	%esi, -12(%rbp)
10000b99f: 89 55 f0                    	movl	%edx, -16(%rbp)
10000b9a2: 48 c7 45 d8 00 00 00 00     	movq	$0, -40(%rbp)
10000b9aa: 48 c7 45 e8 00 00 00 00     	movq	$0, -24(%rbp)
10000b9b2: 48 c7 45 e0 00 00 00 00     	movq	$0, -32(%rbp)
10000b9ba: 8b 45 f4                    	movl	-12(%rbp), %eax
10000b9bd: 89 45 d4                    	movl	%eax, -44(%rbp)
10000b9c0: 8b 45 f4                    	movl	-12(%rbp), %eax
10000b9c3: 83 e8 01                    	subl	$1, %eax
10000b9c6: 83 f8 00                    	cmpl	$0, %eax
10000b9c9: 0f 8e 18 00 00 00           	jle	24 <_get_redirection+0x57>
10000b9cf: 31 f6                       	xorl	%esi, %esi
10000b9d1: 48 8b 7d f8                 	movq	-8(%rbp), %rdi
10000b9d5: 8b 45 f4                    	movl	-12(%rbp), %eax
10000b9d8: 83 e8 01                    	subl	$1, %eax
10000b9db: 48 63 d0                    	movslq	%eax, %rdx
10000b9de: e8 2d 33 00 00              	callq	13101 <_ft_substr>
10000b9e3: 48 89 45 e8                 	movq	%rax, -24(%rbp)
10000b9e7: 48 8b 7d f8                 	movq	-8(%rbp), %rdi
10000b9eb: 8b 75 f4                    	movl	-12(%rbp), %esi
10000b9ee: 8b 4d f0                    	movl	-16(%rbp), %ecx
10000b9f1: 48 8d 55 b8                 	leaq	-72(%rbp), %rdx
10000b9f5: e8 06 fd ff ff              	callq	-762 <_fill_redir_content>
10000b9fa: 89 45 d4                    	movl	%eax, -44(%rbp)
10000b9fd: 8b 45 d4                    	movl	-44(%rbp), %eax
10000ba00: 3b 45 f4                    	cmpl	-12(%rbp), %eax
10000ba03: 0f 8e 34 00 00 00           	jle	52 <_get_redirection+0xad>
10000ba09: 48 8b 7d f8                 	movq	-8(%rbp), %rdi
10000ba0d: 8b 75 d4                    	movl	-44(%rbp), %esi
10000ba10: 48 8b 45 f8                 	movq	-8(%rbp), %rax
10000ba14: 48 63 4d d4                 	movslq	-44(%rbp), %rcx
10000ba18: 48 01 c8                    	addq	%rcx, %rax
10000ba1b: 48 89 7d b0                 	movq	%rdi, -80(%rbp)
10000ba1f: 48 89 c7                    	movq	%rax, %rdi
10000ba22: 89 75 ac                    	movl	%esi, -84(%rbp)
10000ba25: e8 b6 31 00 00              	callq	12726 <_ft_strlen>
10000ba2a: 48 8b 7d b0                 	movq	-80(%rbp), %rdi
10000ba2e: 8b 75 ac                    	movl	-84(%rbp), %esi
10000ba31: 48 89 c2                    	movq	%rax, %rdx
10000ba34: e8 d7 32 00 00              	callq	13015 <_ft_substr>
10000ba39: 48 89 45 e0                 	movq	%rax, -32(%rbp)
10000ba3d: 48 83 7d e8 00              	cmpq	$0, -24(%rbp)
10000ba42: 0f 85 0b 00 00 00           	jne	11 <_get_redirection+0xc3>
10000ba48: 48 83 7d e0 00              	cmpq	$0, -32(%rbp)
10000ba4d: 0f 84 19 00 00 00           	je	25 <_get_redirection+0xdc>
10000ba53: 48 8b 7d e8                 	movq	-24(%rbp), %rdi
10000ba57: 48 8b 75 e0                 	movq	-32(%rbp), %rsi
10000ba5b: e8 00 d4 ff ff              	callq	-11264 <_ft_strjoin_free>
10000ba60: 48 89 c7                    	movq	%rax, %rdi
10000ba63: e8 f8 07 00 00              	callq	2040 <_redirections_parser>
10000ba68: 48 89 45 d8                 	movq	%rax, -40(%rbp)
10000ba6c: 48 8b 7d d8                 	movq	-40(%rbp), %rdi
10000ba70: 48 8d 45 b8                 	leaq	-72(%rbp), %rax
10000ba74: 48 8b 08                    	movq	(%rax), %rcx
10000ba77: 48 89 0c 24                 	movq	%rcx, (%rsp)
10000ba7b: 48 8b 48 08                 	movq	8(%rax), %rcx
10000ba7f: 48 89 4c 24 08              	movq	%rcx, 8(%rsp)
10000ba84: 48 8b 40 10                 	movq	16(%rax), %rax
10000ba88: 48 89 44 24 10              	movq	%rax, 16(%rsp)
10000ba8d: e8 3e c8 ff ff              	callq	-14274 <_redir_constructor>
10000ba92: 48 89 45 d8                 	movq	%rax, -40(%rbp)
10000ba96: 48 8b 45 d8                 	movq	-40(%rbp), %rax
10000ba9a: 48 83 c4 70                 	addq	$112, %rsp
10000ba9e: 5d                          	popq	%rbp
10000ba9f: c3                          	retq

000000010000baa0 _check_for_syntax:
10000baa0: 55                          	pushq	%rbp
10000baa1: 48 89 e5                    	movq	%rsp, %rbp
10000baa4: 48 83 ec 20                 	subq	$32, %rsp
10000baa8: 48 89 7d f0                 	movq	%rdi, -16(%rbp)
10000baac: 89 75 ec                    	movl	%esi, -20(%rbp)
10000baaf: c7 45 e8 00 00 00 00        	movl	$0, -24(%rbp)
10000bab6: c7 45 e4 00 00 00 00        	movl	$0, -28(%rbp)
10000babd: 48 8b 45 f0                 	movq	-16(%rbp), %rax
10000bac1: 48 8b 00                    	movq	(%rax), %rax
10000bac4: 48 63 4d ec                 	movslq	-20(%rbp), %rcx
10000bac8: 0f be 14 08                 	movsbl	(%rax,%rcx), %edx
10000bacc: 83 fa 3c                    	cmpl	$60, %edx
10000bacf: 0f 85 1d 00 00 00           	jne	29 <_check_for_syntax+0x52>
10000bad5: 48 8b 45 f0                 	movq	-16(%rbp), %rax
10000bad9: 48 8b 00                    	movq	(%rax), %rax
10000badc: 8b 4d ec                    	movl	-20(%rbp), %ecx
10000badf: 83 c1 01                    	addl	$1, %ecx
10000bae2: 48 63 d1                    	movslq	%ecx, %rdx
10000bae5: 0f be 0c 10                 	movsbl	(%rax,%rdx), %ecx
10000bae9: 83 f9 3c                    	cmpl	$60, %ecx
10000baec: 0f 84 65 00 00 00           	je	101 <_check_for_syntax+0xb7>
10000baf2: 48 8b 45 f0                 	movq	-16(%rbp), %rax
10000baf6: 48 8b 00                    	movq	(%rax), %rax
10000baf9: 48 63 4d ec                 	movslq	-20(%rbp), %rcx
10000bafd: 0f be 14 08                 	movsbl	(%rax,%rcx), %edx
10000bb01: 83 fa 3e                    	cmpl	$62, %edx
10000bb04: 0f 85 1d 00 00 00           	jne	29 <_check_for_syntax+0x87>
10000bb0a: 48 8b 45 f0                 	movq	-16(%rbp), %rax
10000bb0e: 48 8b 00                    	movq	(%rax), %rax
10000bb11: 8b 4d ec                    	movl	-20(%rbp), %ecx
10000bb14: 83 c1 01                    	addl	$1, %ecx
10000bb17: 48 63 d1                    	movslq	%ecx, %rdx
10000bb1a: 0f be 0c 10                 	movsbl	(%rax,%rdx), %ecx
10000bb1e: 83 f9 3e                    	cmpl	$62, %ecx
10000bb21: 0f 84 30 00 00 00           	je	48 <_check_for_syntax+0xb7>
10000bb27: 48 8b 45 f0                 	movq	-16(%rbp), %rax
10000bb2b: 48 8b 00                    	movq	(%rax), %rax
10000bb2e: 48 63 4d ec                 	movslq	-20(%rbp), %rcx
10000bb32: 0f be 14 08                 	movsbl	(%rax,%rcx), %edx
10000bb36: 83 fa 3c                    	cmpl	$60, %edx
10000bb39: 0f 84 18 00 00 00           	je	24 <_check_for_syntax+0xb7>
10000bb3f: 48 8b 45 f0                 	movq	-16(%rbp), %rax
10000bb43: 48 8b 00                    	movq	(%rax), %rax
10000bb46: 48 63 4d ec                 	movslq	-20(%rbp), %rcx
10000bb4a: 0f be 14 08                 	movsbl	(%rax,%rcx), %edx
10000bb4e: 83 fa 3e                    	cmpl	$62, %edx
10000bb51: 0f 85 02 01 00 00           	jne	258 <_check_for_syntax+0x1b9>
10000bb57: 8b 45 e8                    	movl	-24(%rbp), %eax
10000bb5a: 83 c0 01                    	addl	$1, %eax
10000bb5d: 89 45 e8                    	movl	%eax, -24(%rbp)
10000bb60: 48 8b 4d f0                 	movq	-16(%rbp), %rcx
10000bb64: 48 8b 09                    	movq	(%rcx), %rcx
10000bb67: 8b 45 ec                    	movl	-20(%rbp), %eax
10000bb6a: 83 c0 01                    	addl	$1, %eax
10000bb6d: 48 63 d0                    	movslq	%eax, %rdx
10000bb70: 0f be 04 11                 	movsbl	(%rcx,%rdx), %eax
10000bb74: 83 f8 3c                    	cmpl	$60, %eax
10000bb77: 0f 84 1d 00 00 00           	je	29 <_check_for_syntax+0xfa>
10000bb7d: 48 8b 45 f0                 	movq	-16(%rbp), %rax
10000bb81: 48 8b 00                    	movq	(%rax), %rax
10000bb84: 8b 4d ec                    	movl	-20(%rbp), %ecx
10000bb87: 83 c1 01                    	addl	$1, %ecx
10000bb8a: 48 63 d1                    	movslq	%ecx, %rdx
10000bb8d: 0f be 0c 10                 	movsbl	(%rax,%rdx), %ecx
10000bb91: 83 f9 3e                    	cmpl	$62, %ecx
10000bb94: 0f 85 09 00 00 00           	jne	9 <_check_for_syntax+0x103>
10000bb9a: 8b 45 e8                    	movl	-24(%rbp), %eax
10000bb9d: 83 c0 01                    	addl	$1, %eax
10000bba0: 89 45 e8                    	movl	%eax, -24(%rbp)
10000bba3: e9 00 00 00 00              	jmp	0 <_check_for_syntax+0x108>
10000bba8: 48 8b 45 f0                 	movq	-16(%rbp), %rax
10000bbac: 48 8b 00                    	movq	(%rax), %rax
10000bbaf: 8b 4d ec                    	movl	-20(%rbp), %ecx
10000bbb2: 03 4d e8                    	addl	-24(%rbp), %ecx
10000bbb5: 03 4d e4                    	addl	-28(%rbp), %ecx
10000bbb8: 48 63 d1                    	movslq	%ecx, %rdx
10000bbbb: 0f be 3c 10                 	movsbl	(%rax,%rdx), %edi
10000bbbf: e8 bc 2c 00 00              	callq	11452 <_ft_isspace>
10000bbc4: 83 f8 00                    	cmpl	$0, %eax
10000bbc7: 0f 84 0e 00 00 00           	je	14 <_check_for_syntax+0x13b>
10000bbcd: 8b 45 e4                    	movl	-28(%rbp), %eax
10000bbd0: 83 c0 01                    	addl	$1, %eax
10000bbd3: 89 45 e4                    	movl	%eax, -28(%rbp)
10000bbd6: e9 cd ff ff ff              	jmp	-51 <_check_for_syntax+0x108>
10000bbdb: 48 8b 45 f0                 	movq	-16(%rbp), %rax
10000bbdf: 48 8b 00                    	movq	(%rax), %rax
10000bbe2: 8b 4d ec                    	movl	-20(%rbp), %ecx
10000bbe5: 03 4d e8                    	addl	-24(%rbp), %ecx
10000bbe8: 03 4d e4                    	addl	-28(%rbp), %ecx
10000bbeb: 48 63 d1                    	movslq	%ecx, %rdx
10000bbee: 80 3c 10 00                 	cmpb	$0, (%rax,%rdx)
10000bbf2: 0f 84 40 00 00 00           	je	64 <_check_for_syntax+0x198>
10000bbf8: 48 8b 45 f0                 	movq	-16(%rbp), %rax
10000bbfc: 48 8b 00                    	movq	(%rax), %rax
10000bbff: 8b 4d ec                    	movl	-20(%rbp), %ecx
10000bc02: 03 4d e8                    	addl	-24(%rbp), %ecx
10000bc05: 03 4d e4                    	addl	-28(%rbp), %ecx
10000bc08: 48 63 d1                    	movslq	%ecx, %rdx
10000bc0b: 0f be 0c 10                 	movsbl	(%rax,%rdx), %ecx
10000bc0f: 83 f9 3c                    	cmpl	$60, %ecx
10000bc12: 0f 84 20 00 00 00           	je	32 <_check_for_syntax+0x198>
10000bc18: 48 8b 45 f0                 	movq	-16(%rbp), %rax
10000bc1c: 48 8b 00                    	movq	(%rax), %rax
10000bc1f: 8b 4d ec                    	movl	-20(%rbp), %ecx
10000bc22: 03 4d e8                    	addl	-24(%rbp), %ecx
10000bc25: 03 4d e4                    	addl	-28(%rbp), %ecx
10000bc28: 48 63 d1                    	movslq	%ecx, %rdx
10000bc2b: 0f be 0c 10                 	movsbl	(%rax,%rdx), %ecx
10000bc2f: 83 f9 3e                    	cmpl	$62, %ecx
10000bc32: 0f 85 1c 00 00 00           	jne	28 <_check_for_syntax+0x1b4>
10000bc38: 31 c0                       	xorl	%eax, %eax
10000bc3a: 89 c6                       	movl	%eax, %esi
10000bc3c: 48 8d 3d 70 42 00 00        	leaq	17008(%rip), %rdi
10000bc43: e8 58 f4 ff ff              	callq	-2984 <_panic_recursive>
10000bc48: c7 45 fc 00 00 00 00        	movl	$0, -4(%rbp)
10000bc4f: e9 0c 00 00 00              	jmp	12 <_check_for_syntax+0x1c0>
10000bc54: e9 00 00 00 00              	jmp	0 <_check_for_syntax+0x1b9>
10000bc59: c7 45 fc 01 00 00 00        	movl	$1, -4(%rbp)
10000bc60: 8b 45 fc                    	movl	-4(%rbp), %eax
10000bc63: 48 83 c4 20                 	addq	$32, %rsp
10000bc67: 5d                          	popq	%rbp
10000bc68: c3                          	retq
10000bc69: 90                          	nop
10000bc6a: 90                          	nop
10000bc6b: 90                          	nop
10000bc6c: 90                          	nop
10000bc6d: 90                          	nop
10000bc6e: 90                          	nop
10000bc6f: 90                          	nop

000000010000bc70 _redirections_parser_has_parenthesis:
10000bc70: 55                          	pushq	%rbp
10000bc71: 48 89 e5                    	movq	%rsp, %rbp
10000bc74: 48 81 ec a0 00 00 00        	subq	$160, %rsp
10000bc7b: 48 89 7d f0                 	movq	%rdi, -16(%rbp)
10000bc7f: 48 83 7d f0 00              	cmpq	$0, -16(%rbp)
10000bc84: 0f 85 0d 00 00 00           	jne	13 <_redirections_parser_has_parenthesis+0x27>
10000bc8a: 48 c7 45 f8 00 00 00 00     	movq	$0, -8(%rbp)
10000bc92: e9 b0 05 00 00              	jmp	1456 <_redirections_parser_has_parenthesis+0x5d7>
10000bc97: 48 8d 7d b8                 	leaq	-72(%rbp), %rdi
10000bc9b: e8 30 ec ff ff              	callq	-5072 <_set_zero_var>
10000bca0: c7 45 e4 00 00 00 00        	movl	$0, -28(%rbp)
10000bca7: 48 c7 45 d8 00 00 00 00     	movq	$0, -40(%rbp)
10000bcaf: 48 8b 45 f0                 	movq	-16(%rbp), %rax
10000bcb3: 48 63 4d e4                 	movslq	-28(%rbp), %rcx
10000bcb7: 80 3c 08 00                 	cmpb	$0, (%rax,%rcx)
10000bcbb: 0f 84 53 05 00 00           	je	1363 <_redirections_parser_has_parenthesis+0x5a4>
10000bcc1: 48 8b 45 f0                 	movq	-16(%rbp), %rax
10000bcc5: 48 63 4d e4                 	movslq	-28(%rbp), %rcx
10000bcc9: 0f be 3c 08                 	movsbl	(%rax,%rcx), %edi
10000bccd: 48 8d 75 b8                 	leaq	-72(%rbp), %rsi
10000bcd1: e8 1a ec ff ff              	callq	-5094 <_check_out_of_quotes>
10000bcd6: 48 8b 45 f0                 	movq	-16(%rbp), %rax
10000bcda: 48 63 4d e4                 	movslq	-28(%rbp), %rcx
10000bcde: 0f be 14 08                 	movsbl	(%rax,%rcx), %edx
10000bce2: 83 fa 28                    	cmpl	$40, %edx
10000bce5: 0f 85 49 00 00 00           	jne	73 <_redirections_parser_has_parenthesis+0xc4>
10000bceb: 8a 45 b8                    	movb	-72(%rbp), %al
10000bcee: 24 01                       	andb	$1, %al
10000bcf0: 0f b6 c8                    	movzbl	%al, %ecx
10000bcf3: 83 f9 00                    	cmpl	$0, %ecx
10000bcf6: 0f 85 38 00 00 00           	jne	56 <_redirections_parser_has_parenthesis+0xc4>
10000bcfc: 8a 45 b8                    	movb	-72(%rbp), %al
10000bcff: c0 e8 01                    	shrb	$1, %al
10000bd02: 24 01                       	andb	$1, %al
10000bd04: 0f b6 c8                    	movzbl	%al, %ecx
10000bd07: 83 f9 00                    	cmpl	$0, %ecx
10000bd0a: 0f 85 24 00 00 00           	jne	36 <_redirections_parser_has_parenthesis+0xc4>
10000bd10: 48 8b 45 f0                 	movq	-16(%rbp), %rax
10000bd14: 48 63 4d e4                 	movslq	-28(%rbp), %rcx
10000bd18: 48 01 c8                    	addq	%rcx, %rax
10000bd1b: 48 05 01 00 00 00           	addq	$1, %rax
10000bd21: 48 89 c7                    	movq	%rax, %rdi
10000bd24: e8 87 ea ff ff              	callq	-5497 <_close_parenthise>
10000bd29: 03 45 e4                    	addl	-28(%rbp), %eax
10000bd2c: 89 45 e4                    	movl	%eax, -28(%rbp)
10000bd2f: e9 7b ff ff ff              	jmp	-133 <_redirections_parser_has_parenthesis+0x3f>
10000bd34: 48 8b 45 f0                 	movq	-16(%rbp), %rax
10000bd38: 48 63 4d e4                 	movslq	-28(%rbp), %rcx
10000bd3c: 0f be 14 08                 	movsbl	(%rax,%rcx), %edx
10000bd40: 83 fa 3e                    	cmpl	$62, %edx
10000bd43: 0f 85 1c 01 00 00           	jne	284 <_redirections_parser_has_parenthesis+0x1f5>
10000bd49: 48 8b 45 f0                 	movq	-16(%rbp), %rax
10000bd4d: 8b 4d e4                    	movl	-28(%rbp), %ecx
10000bd50: 83 c1 01                    	addl	$1, %ecx
10000bd53: 48 63 d1                    	movslq	%ecx, %rdx
10000bd56: 0f be 0c 10                 	movsbl	(%rax,%rdx), %ecx
10000bd5a: 83 f9 3e                    	cmpl	$62, %ecx
10000bd5d: 0f 85 02 01 00 00           	jne	258 <_redirections_parser_has_parenthesis+0x1f5>
10000bd63: 8a 45 b8                    	movb	-72(%rbp), %al
10000bd66: 24 01                       	andb	$1, %al
10000bd68: 0f b6 c8                    	movzbl	%al, %ecx
10000bd6b: 83 f9 00                    	cmpl	$0, %ecx
10000bd6e: 0f 85 f1 00 00 00           	jne	241 <_redirections_parser_has_parenthesis+0x1f5>
10000bd74: 8a 45 b8                    	movb	-72(%rbp), %al
10000bd77: c0 e8 01                    	shrb	$1, %al
10000bd7a: 24 01                       	andb	$1, %al
10000bd7c: 0f b6 c8                    	movzbl	%al, %ecx
10000bd7f: 83 f9 00                    	cmpl	$0, %ecx
10000bd82: 0f 85 dd 00 00 00           	jne	221 <_redirections_parser_has_parenthesis+0x1f5>
10000bd88: 8b 75 e4                    	movl	-28(%rbp), %esi
10000bd8b: 48 8d 7d f0                 	leaq	-16(%rbp), %rdi
10000bd8f: e8 0c fd ff ff              	callq	-756 <_check_for_syntax>
10000bd94: 83 f8 00                    	cmpl	$0, %eax
10000bd97: 0f 85 0d 00 00 00           	jne	13 <_redirections_parser_has_parenthesis+0x13a>
10000bd9d: 48 c7 45 f8 00 00 00 00     	movq	$0, -8(%rbp)
10000bda5: e9 9d 04 00 00              	jmp	1181 <_redirections_parser_has_parenthesis+0x5d7>
10000bdaa: 48 8b 7d f0                 	movq	-16(%rbp), %rdi
10000bdae: 8b 75 e4                    	movl	-28(%rbp), %esi
10000bdb1: 48 8d 55 c0                 	leaq	-64(%rbp), %rdx
10000bdb5: b9 05 00 00 00              	movl	$5, %ecx
10000bdba: e8 41 f9 ff ff              	callq	-1727 <_fill_redir_content>
10000bdbf: 31 f6                       	xorl	%esi, %esi
10000bdc1: 89 45 ec                    	movl	%eax, -20(%rbp)
10000bdc4: 48 8b 7d f0                 	movq	-16(%rbp), %rdi
10000bdc8: 48 63 55 e4                 	movslq	-28(%rbp), %rdx
10000bdcc: e8 3f 2f 00 00              	callq	12095 <_ft_substr>
10000bdd1: 48 89 c7                    	movq	%rax, %rdi
10000bdd4: e8 37 e6 ff ff              	callq	-6601 <_remove_unused_parenthesis>
10000bdd9: 48 8b 7d f0                 	movq	-16(%rbp), %rdi
10000bddd: 8b 75 ec                    	movl	-20(%rbp), %esi
10000bde0: 48 8b 55 f0                 	movq	-16(%rbp), %rdx
10000bde4: 4c 63 45 ec                 	movslq	-20(%rbp), %r8
10000bde8: 4c 01 c2                    	addq	%r8, %rdx
10000bdeb: 48 89 7d b0                 	movq	%rdi, -80(%rbp)
10000bdef: 48 89 d7                    	movq	%rdx, %rdi
10000bdf2: 48 89 45 a8                 	movq	%rax, -88(%rbp)
10000bdf6: 89 75 a4                    	movl	%esi, -92(%rbp)
10000bdf9: e8 e2 2d 00 00              	callq	11746 <_ft_strlen>
10000bdfe: 48 8b 7d b0                 	movq	-80(%rbp), %rdi
10000be02: 8b 75 a4                    	movl	-92(%rbp), %esi
10000be05: 48 89 c2                    	movq	%rax, %rdx
10000be08: e8 03 2f 00 00              	callq	12035 <_ft_substr>
10000be0d: 48 8b 7d a8                 	movq	-88(%rbp), %rdi
10000be11: 48 89 c6                    	movq	%rax, %rsi
10000be14: e8 47 d0 ff ff              	callq	-12217 <_ft_strjoin_free>
10000be19: 48 89 c7                    	movq	%rax, %rdi
10000be1c: e8 6f d4 ff ff              	callq	-11153 <_and_parser>
10000be21: 48 89 45 d8                 	movq	%rax, -40(%rbp)
10000be25: 48 8b 7d d8                 	movq	-40(%rbp), %rdi
10000be29: 48 8d 45 c0                 	leaq	-64(%rbp), %rax
10000be2d: 48 8b 10                    	movq	(%rax), %rdx
10000be30: 48 89 14 24                 	movq	%rdx, (%rsp)
10000be34: 48 8b 50 08                 	movq	8(%rax), %rdx
10000be38: 48 89 54 24 08              	movq	%rdx, 8(%rsp)
10000be3d: 48 8b 40 10                 	movq	16(%rax), %rax
10000be41: 48 89 44 24 10              	movq	%rax, 16(%rsp)
10000be46: e8 85 c4 ff ff              	callq	-15227 <_redir_constructor>
10000be4b: 48 89 45 d8                 	movq	%rax, -40(%rbp)
10000be4f: 48 8b 7d f0                 	movq	-16(%rbp), %rdi
10000be53: e8 c4 36 00 00              	callq	14020 <dyld_stub_binder+0x10000f51c>
10000be58: 48 c7 45 f0 00 00 00 00     	movq	$0, -16(%rbp)
10000be60: e9 af 03 00 00              	jmp	943 <_redirections_parser_has_parenthesis+0x5a4>
10000be65: 48 8b 45 f0                 	movq	-16(%rbp), %rax
10000be69: 48 63 4d e4                 	movslq	-28(%rbp), %rcx
10000be6d: 0f be 14 08                 	movsbl	(%rax,%rcx), %edx
10000be71: 83 fa 3e                    	cmpl	$62, %edx
10000be74: 0f 85 02 01 00 00           	jne	258 <_redirections_parser_has_parenthesis+0x30c>
10000be7a: 8a 45 b8                    	movb	-72(%rbp), %al
10000be7d: 24 01                       	andb	$1, %al
10000be7f: 0f b6 c8                    	movzbl	%al, %ecx
10000be82: 83 f9 00                    	cmpl	$0, %ecx
10000be85: 0f 85 f1 00 00 00           	jne	241 <_redirections_parser_has_parenthesis+0x30c>
10000be8b: 8a 45 b8                    	movb	-72(%rbp), %al
10000be8e: c0 e8 01                    	shrb	$1, %al
10000be91: 24 01                       	andb	$1, %al
10000be93: 0f b6 c8                    	movzbl	%al, %ecx
10000be96: 83 f9 00                    	cmpl	$0, %ecx
10000be99: 0f 85 dd 00 00 00           	jne	221 <_redirections_parser_has_parenthesis+0x30c>
10000be9f: 8b 75 e4                    	movl	-28(%rbp), %esi
10000bea2: 48 8d 7d f0                 	leaq	-16(%rbp), %rdi
10000bea6: e8 f5 fb ff ff              	callq	-1035 <_check_for_syntax>
10000beab: 83 f8 00                    	cmpl	$0, %eax
10000beae: 0f 85 0d 00 00 00           	jne	13 <_redirections_parser_has_parenthesis+0x251>
10000beb4: 48 c7 45 f8 00 00 00 00     	movq	$0, -8(%rbp)
10000bebc: e9 86 03 00 00              	jmp	902 <_redirections_parser_has_parenthesis+0x5d7>
10000bec1: 48 8b 7d f0                 	movq	-16(%rbp), %rdi
10000bec5: 8b 75 e4                    	movl	-28(%rbp), %esi
10000bec8: 48 8d 55 c0                 	leaq	-64(%rbp), %rdx
10000becc: b9 03 00 00 00              	movl	$3, %ecx
10000bed1: e8 2a f8 ff ff              	callq	-2006 <_fill_redir_content>
10000bed6: 31 f6                       	xorl	%esi, %esi
10000bed8: 89 45 ec                    	movl	%eax, -20(%rbp)
10000bedb: 48 8b 7d f0                 	movq	-16(%rbp), %rdi
10000bedf: 48 63 55 e4                 	movslq	-28(%rbp), %rdx
10000bee3: e8 28 2e 00 00              	callq	11816 <_ft_substr>
10000bee8: 48 89 c7                    	movq	%rax, %rdi
10000beeb: e8 20 e5 ff ff              	callq	-6880 <_remove_unused_parenthesis>
10000bef0: 48 8b 7d f0                 	movq	-16(%rbp), %rdi
10000bef4: 8b 75 ec                    	movl	-20(%rbp), %esi
10000bef7: 48 8b 55 f0                 	movq	-16(%rbp), %rdx
10000befb: 4c 63 45 ec                 	movslq	-20(%rbp), %r8
10000beff: 4c 01 c2                    	addq	%r8, %rdx
10000bf02: 48 89 7d 98                 	movq	%rdi, -104(%rbp)
10000bf06: 48 89 d7                    	movq	%rdx, %rdi
10000bf09: 48 89 45 90                 	movq	%rax, -112(%rbp)
10000bf0d: 89 75 8c                    	movl	%esi, -116(%rbp)
10000bf10: e8 cb 2c 00 00              	callq	11467 <_ft_strlen>
10000bf15: 48 8b 7d 98                 	movq	-104(%rbp), %rdi
10000bf19: 8b 75 8c                    	movl	-116(%rbp), %esi
10000bf1c: 48 89 c2                    	movq	%rax, %rdx
10000bf1f: e8 ec 2d 00 00              	callq	11756 <_ft_substr>
10000bf24: 48 8b 7d 90                 	movq	-112(%rbp), %rdi
10000bf28: 48 89 c6                    	movq	%rax, %rsi
10000bf2b: e8 30 cf ff ff              	callq	-12496 <_ft_strjoin_free>
10000bf30: 48 89 c7                    	movq	%rax, %rdi
10000bf33: e8 58 d3 ff ff              	callq	-11432 <_and_parser>
10000bf38: 48 89 45 d8                 	movq	%rax, -40(%rbp)
10000bf3c: 48 8b 7d d8                 	movq	-40(%rbp), %rdi
10000bf40: 48 8d 45 c0                 	leaq	-64(%rbp), %rax
10000bf44: 48 8b 10                    	movq	(%rax), %rdx
10000bf47: 48 89 14 24                 	movq	%rdx, (%rsp)
10000bf4b: 48 8b 50 08                 	movq	8(%rax), %rdx
10000bf4f: 48 89 54 24 08              	movq	%rdx, 8(%rsp)
10000bf54: 48 8b 40 10                 	movq	16(%rax), %rax
10000bf58: 48 89 44 24 10              	movq	%rax, 16(%rsp)
10000bf5d: e8 6e c3 ff ff              	callq	-15506 <_redir_constructor>
10000bf62: 48 89 45 d8                 	movq	%rax, -40(%rbp)
10000bf66: 48 8b 7d f0                 	movq	-16(%rbp), %rdi
10000bf6a: e8 ad 35 00 00              	callq	13741 <dyld_stub_binder+0x10000f51c>
10000bf6f: 48 c7 45 f0 00 00 00 00     	movq	$0, -16(%rbp)
10000bf77: e9 98 02 00 00              	jmp	664 <_redirections_parser_has_parenthesis+0x5a4>
10000bf7c: 48 8b 45 f0                 	movq	-16(%rbp), %rax
10000bf80: 48 63 4d e4                 	movslq	-28(%rbp), %rcx
10000bf84: 0f be 14 08                 	movsbl	(%rax,%rcx), %edx
10000bf88: 83 fa 3c                    	cmpl	$60, %edx
10000bf8b: 0f 85 6c 01 00 00           	jne	364 <_redirections_parser_has_parenthesis+0x48d>
10000bf91: 48 8b 45 f0                 	movq	-16(%rbp), %rax
10000bf95: 8b 4d e4                    	movl	-28(%rbp), %ecx
10000bf98: 83 c1 01                    	addl	$1, %ecx
10000bf9b: 48 63 d1                    	movslq	%ecx, %rdx
10000bf9e: 0f be 0c 10                 	movsbl	(%rax,%rdx), %ecx
10000bfa2: 83 f9 3c                    	cmpl	$60, %ecx
10000bfa5: 0f 85 52 01 00 00           	jne	338 <_redirections_parser_has_parenthesis+0x48d>
10000bfab: 8b 45 e4                    	movl	-28(%rbp), %eax
10000bfae: 89 45 ec                    	movl	%eax, -20(%rbp)
10000bfb1: 8b 45 e4                    	movl	-28(%rbp), %eax
10000bfb4: 83 c0 02                    	addl	$2, %eax
10000bfb7: 89 45 e4                    	movl	%eax, -28(%rbp)
10000bfba: 48 8b 4d f0                 	movq	-16(%rbp), %rcx
10000bfbe: 48 63 55 e4                 	movslq	-28(%rbp), %rdx
10000bfc2: 48 01 d1                    	addq	%rdx, %rcx
10000bfc5: 48 89 cf                    	movq	%rcx, %rdi
10000bfc8: e8 23 f0 ff ff              	callq	-4061 <_skip_spaces_front>
10000bfcd: 03 45 e4                    	addl	-28(%rbp), %eax
10000bfd0: 89 45 e4                    	movl	%eax, -28(%rbp)
10000bfd3: 48 8b 45 f0                 	movq	-16(%rbp), %rax
10000bfd7: 48 63 4d e4                 	movslq	-28(%rbp), %rcx
10000bfdb: 0f be 3c 08                 	movsbl	(%rax,%rcx), %edi
10000bfdf: e8 4a 35 00 00              	callq	13642 <dyld_stub_binder+0x10000f52e>
10000bfe4: 83 f8 00                    	cmpl	$0, %eax
10000bfe7: b2 01                       	movb	$1, %dl
10000bfe9: 88 55 8b                    	movb	%dl, -117(%rbp)
10000bfec: 0f 85 17 00 00 00           	jne	23 <_redirections_parser_has_parenthesis+0x399>
10000bff2: 48 8b 45 f0                 	movq	-16(%rbp), %rax
10000bff6: 48 63 4d e4                 	movslq	-28(%rbp), %rcx
10000bffa: 0f be 14 08                 	movsbl	(%rax,%rcx), %edx
10000bffe: 83 fa 5f                    	cmpl	$95, %edx
10000c001: 40 0f 94 c6                 	sete	%sil
10000c005: 40 88 75 8b                 	movb	%sil, -117(%rbp)
10000c009: 8a 45 8b                    	movb	-117(%rbp), %al
10000c00c: a8 01                       	testb	$1, %al
10000c00e: 0f 85 05 00 00 00           	jne	5 <_redirections_parser_has_parenthesis+0x3a9>
10000c014: e9 0e 00 00 00              	jmp	14 <_redirections_parser_has_parenthesis+0x3b7>
10000c019: 8b 45 e4                    	movl	-28(%rbp), %eax
10000c01c: 83 c0 01                    	addl	$1, %eax
10000c01f: 89 45 e4                    	movl	%eax, -28(%rbp)
10000c022: e9 ac ff ff ff              	jmp	-84 <_redirections_parser_has_parenthesis+0x363>
10000c027: 48 8b 45 f0                 	movq	-16(%rbp), %rax
10000c02b: 48 63 4d e4                 	movslq	-28(%rbp), %rcx
10000c02f: 48 01 c8                    	addq	%rcx, %rax
10000c032: 48 89 c7                    	movq	%rax, %rdi
10000c035: e8 b6 ef ff ff              	callq	-4170 <_skip_spaces_front>
10000c03a: 03 45 e4                    	addl	-28(%rbp), %eax
10000c03d: 89 45 e4                    	movl	%eax, -28(%rbp)
10000c040: 48 8b 4d f0                 	movq	-16(%rbp), %rcx
10000c044: 48 63 55 e4                 	movslq	-28(%rbp), %rdx
10000c048: 0f be 04 11                 	movsbl	(%rcx,%rdx), %eax
10000c04c: 83 f8 28                    	cmpl	$40, %eax
10000c04f: 0f 85 a3 00 00 00           	jne	163 <_redirections_parser_has_parenthesis+0x488>
10000c055: 8b 45 ec                    	movl	-20(%rbp), %eax
10000c058: 89 45 e4                    	movl	%eax, -28(%rbp)
10000c05b: 48 8b 7d f0                 	movq	-16(%rbp), %rdi
10000c05f: 8b 75 ec                    	movl	-20(%rbp), %esi
10000c062: 48 8d 55 c0                 	leaq	-64(%rbp), %rdx
10000c066: b9 04 00 00 00              	movl	$4, %ecx
10000c06b: e8 90 f6 ff ff              	callq	-2416 <_fill_redir_content>
10000c070: 89 45 ec                    	movl	%eax, -20(%rbp)
10000c073: 48 8b 7d f0                 	movq	-16(%rbp), %rdi
10000c077: 8b 75 ec                    	movl	-20(%rbp), %esi
10000c07a: 48 8b 55 f0                 	movq	-16(%rbp), %rdx
10000c07e: 4c 63 45 ec                 	movslq	-20(%rbp), %r8
10000c082: 4c 01 c2                    	addq	%r8, %rdx
10000c085: 48 89 7d 80                 	movq	%rdi, -128(%rbp)
10000c089: 48 89 d7                    	movq	%rdx, %rdi
10000c08c: 89 b5 7c ff ff ff           	movl	%esi, -132(%rbp)
10000c092: e8 49 2b 00 00              	callq	11081 <_ft_strlen>
10000c097: 48 8b 7d 80                 	movq	-128(%rbp), %rdi
10000c09b: 8b b5 7c ff ff ff           	movl	-132(%rbp), %esi
10000c0a1: 48 89 c2                    	movq	%rax, %rdx
10000c0a4: e8 67 2c 00 00              	callq	11367 <_ft_substr>
10000c0a9: 48 89 c7                    	movq	%rax, %rdi
10000c0ac: e8 4f c4 ff ff              	callq	-15281 <_invalid_constructor>
10000c0b1: 48 89 c7                    	movq	%rax, %rdi
10000c0b4: 48 8d 45 c0                 	leaq	-64(%rbp), %rax
10000c0b8: 48 8b 10                    	movq	(%rax), %rdx
10000c0bb: 48 89 14 24                 	movq	%rdx, (%rsp)
10000c0bf: 48 8b 50 08                 	movq	8(%rax), %rdx
10000c0c3: 48 89 54 24 08              	movq	%rdx, 8(%rsp)
10000c0c8: 48 8b 40 10                 	movq	16(%rax), %rax
10000c0cc: 48 89 44 24 10              	movq	%rax, 16(%rsp)
10000c0d1: e8 fa c1 ff ff              	callq	-15878 <_redir_constructor>
10000c0d6: 48 89 45 d8                 	movq	%rax, -40(%rbp)
10000c0da: 48 8b 7d f0                 	movq	-16(%rbp), %rdi
10000c0de: e8 39 34 00 00              	callq	13369 <dyld_stub_binder+0x10000f51c>
10000c0e3: 48 c7 45 f0 00 00 00 00     	movq	$0, -16(%rbp)
10000c0eb: 48 8b 45 d8                 	movq	-40(%rbp), %rax
10000c0ef: 48 89 45 f8                 	movq	%rax, -8(%rbp)
10000c0f3: e9 4f 01 00 00              	jmp	335 <_redirections_parser_has_parenthesis+0x5d7>
10000c0f8: e9 ff 00 00 00              	jmp	255 <_redirections_parser_has_parenthesis+0x58c>
10000c0fd: 48 8b 45 f0                 	movq	-16(%rbp), %rax
10000c101: 48 63 4d e4                 	movslq	-28(%rbp), %rcx
10000c105: 0f be 14 08                 	movsbl	(%rax,%rcx), %edx
10000c109: 83 fa 3c                    	cmpl	$60, %edx
10000c10c: 0f 85 e5 00 00 00           	jne	229 <_redirections_parser_has_parenthesis+0x587>
10000c112: 8b 45 e4                    	movl	-28(%rbp), %eax
10000c115: 83 c0 01                    	addl	$1, %eax
10000c118: 89 45 e4                    	movl	%eax, -28(%rbp)
10000c11b: 48 8b 4d f0                 	movq	-16(%rbp), %rcx
10000c11f: 48 63 55 e4                 	movslq	-28(%rbp), %rdx
10000c123: 48 01 d1                    	addq	%rdx, %rcx
10000c126: 48 89 cf                    	movq	%rcx, %rdi
10000c129: e8 c2 ee ff ff              	callq	-4414 <_skip_spaces_front>
10000c12e: 03 45 e4                    	addl	-28(%rbp), %eax
10000c131: 89 45 e4                    	movl	%eax, -28(%rbp)
10000c134: 48 8b 45 f0                 	movq	-16(%rbp), %rax
10000c138: 48 63 4d e4                 	movslq	-28(%rbp), %rcx
10000c13c: 0f be 3c 08                 	movsbl	(%rax,%rcx), %edi
10000c140: e8 e9 33 00 00              	callq	13289 <dyld_stub_binder+0x10000f52e>
10000c145: 83 f8 00                    	cmpl	$0, %eax
10000c148: b2 01                       	movb	$1, %dl
10000c14a: 88 95 7b ff ff ff           	movb	%dl, -133(%rbp)
10000c150: 0f 85 1a 00 00 00           	jne	26 <_redirections_parser_has_parenthesis+0x500>
10000c156: 48 8b 45 f0                 	movq	-16(%rbp), %rax
10000c15a: 48 63 4d e4                 	movslq	-28(%rbp), %rcx
10000c15e: 0f be 14 08                 	movsbl	(%rax,%rcx), %edx
10000c162: 83 fa 5f                    	cmpl	$95, %edx
10000c165: 40 0f 94 c6                 	sete	%sil
10000c169: 40 88 b5 7b ff ff ff        	movb	%sil, -133(%rbp)
10000c170: 8a 85 7b ff ff ff           	movb	-133(%rbp), %al
10000c176: a8 01                       	testb	$1, %al
10000c178: 0f 85 05 00 00 00           	jne	5 <_redirections_parser_has_parenthesis+0x513>
10000c17e: e9 0e 00 00 00              	jmp	14 <_redirections_parser_has_parenthesis+0x521>
10000c183: 8b 45 e4                    	movl	-28(%rbp), %eax
10000c186: 83 c0 01                    	addl	$1, %eax
10000c189: 89 45 e4                    	movl	%eax, -28(%rbp)
10000c18c: e9 a3 ff ff ff              	jmp	-93 <_redirections_parser_has_parenthesis+0x4c4>
10000c191: 48 8b 45 f0                 	movq	-16(%rbp), %rax
10000c195: 48 63 4d e4                 	movslq	-28(%rbp), %rcx
10000c199: 48 01 c8                    	addq	%rcx, %rax
10000c19c: 48 89 c7                    	movq	%rax, %rdi
10000c19f: e8 4c ee ff ff              	callq	-4532 <_skip_spaces_front>
10000c1a4: 03 45 e4                    	addl	-28(%rbp), %eax
10000c1a7: 89 45 e4                    	movl	%eax, -28(%rbp)
10000c1aa: 48 8b 4d f0                 	movq	-16(%rbp), %rcx
10000c1ae: 48 63 55 e4                 	movslq	-28(%rbp), %rdx
10000c1b2: 0f be 04 11                 	movsbl	(%rcx,%rdx), %eax
10000c1b6: 83 f8 28                    	cmpl	$40, %eax
10000c1b9: 0f 85 33 00 00 00           	jne	51 <_redirections_parser_has_parenthesis+0x582>
10000c1bf: 48 8b 75 f0                 	movq	-16(%rbp), %rsi
10000c1c3: 48 8b 45 f0                 	movq	-16(%rbp), %rax
10000c1c7: 48 63 4d e4                 	movslq	-28(%rbp), %rcx
10000c1cb: 48 01 c8                    	addq	%rcx, %rax
10000c1ce: 48 8d 3d aa 3b 00 00        	leaq	15274(%rip), %rdi
10000c1d5: 48 89 c2                    	movq	%rax, %rdx
10000c1d8: e8 63 ee ff ff              	callq	-4509 <_pr_custom_err>
10000c1dd: 48 c7 45 f0 00 00 00 00     	movq	$0, -16(%rbp)
10000c1e5: 48 c7 45 f8 00 00 00 00     	movq	$0, -8(%rbp)
10000c1ed: e9 55 00 00 00              	jmp	85 <_redirections_parser_has_parenthesis+0x5d7>
10000c1f2: e9 00 00 00 00              	jmp	0 <_redirections_parser_has_parenthesis+0x587>
10000c1f7: e9 00 00 00 00              	jmp	0 <_redirections_parser_has_parenthesis+0x58c>
10000c1fc: e9 00 00 00 00              	jmp	0 <_redirections_parser_has_parenthesis+0x591>
10000c201: e9 00 00 00 00              	jmp	0 <_redirections_parser_has_parenthesis+0x596>
10000c206: 8b 45 e4                    	movl	-28(%rbp), %eax
10000c209: 83 c0 01                    	addl	$1, %eax
10000c20c: 89 45 e4                    	movl	%eax, -28(%rbp)
10000c20f: e9 9b fa ff ff              	jmp	-1381 <_redirections_parser_has_parenthesis+0x3f>
10000c214: 48 83 7d d8 00              	cmpq	$0, -40(%rbp)
10000c219: 0f 85 20 00 00 00           	jne	32 <_redirections_parser_has_parenthesis+0x5cf>
10000c21f: 48 83 7d f0 00              	cmpq	$0, -16(%rbp)
10000c224: 0f 84 15 00 00 00           	je	21 <_redirections_parser_has_parenthesis+0x5cf>
10000c22a: 48 8b 7d f0                 	movq	-16(%rbp), %rdi
10000c22e: e8 dd e1 ff ff              	callq	-7715 <_remove_unused_parenthesis>
10000c233: 48 89 c7                    	movq	%rax, %rdi
10000c236: e8 25 00 00 00              	callq	37 <_redirections_parser>
10000c23b: 48 89 45 d8                 	movq	%rax, -40(%rbp)
10000c23f: 48 8b 45 d8                 	movq	-40(%rbp), %rax
10000c243: 48 89 45 f8                 	movq	%rax, -8(%rbp)
10000c247: 48 8b 45 f8                 	movq	-8(%rbp), %rax
10000c24b: 48 81 c4 a0 00 00 00        	addq	$160, %rsp
10000c252: 5d                          	popq	%rbp
10000c253: c3                          	retq
10000c254: 66 2e 0f 1f 84 00 00 00 00 00       	nopw	%cs:(%rax,%rax)
10000c25e: 66 90                       	nop

000000010000c260 _redirections_parser:
10000c260: 55                          	pushq	%rbp
10000c261: 48 89 e5                    	movq	%rsp, %rbp
10000c264: 48 83 ec 20                 	subq	$32, %rsp
10000c268: 48 89 7d f0                 	movq	%rdi, -16(%rbp)
10000c26c: 48 83 7d f0 00              	cmpq	$0, -16(%rbp)
10000c271: 0f 85 0d 00 00 00           	jne	13 <_redirections_parser+0x24>
10000c277: 48 c7 45 f8 00 00 00 00     	movq	$0, -8(%rbp)
10000c27f: e9 eb 00 00 00              	jmp	235 <_redirections_parser+0x10f>
10000c284: 48 8d 7d e0                 	leaq	-32(%rbp), %rdi
10000c288: e8 43 e6 ff ff              	callq	-6589 <_set_zero_var>
10000c28d: 48 c7 45 e8 00 00 00 00     	movq	$0, -24(%rbp)
10000c295: c7 45 e4 00 00 00 00        	movl	$0, -28(%rbp)
10000c29c: 48 8b 45 f0                 	movq	-16(%rbp), %rax
10000c2a0: 48 63 4d e4                 	movslq	-28(%rbp), %rcx
10000c2a4: 80 3c 08 00                 	cmpb	$0, (%rax,%rcx)
10000c2a8: 0f 84 91 00 00 00           	je	145 <_redirections_parser+0xdf>
10000c2ae: 48 8b 45 f0                 	movq	-16(%rbp), %rax
10000c2b2: 48 63 4d e4                 	movslq	-28(%rbp), %rcx
10000c2b6: 0f be 3c 08                 	movsbl	(%rax,%rcx), %edi
10000c2ba: 48 8d 75 e0                 	leaq	-32(%rbp), %rsi
10000c2be: e8 2d e6 ff ff              	callq	-6611 <_check_out_of_quotes>
10000c2c3: 8b 75 e4                    	movl	-28(%rbp), %esi
10000c2c6: 48 8d 7d f0                 	leaq	-16(%rbp), %rdi
10000c2ca: e8 d1 f7 ff ff              	callq	-2095 <_check_for_syntax>
10000c2cf: 83 f8 00                    	cmpl	$0, %eax
10000c2d2: 0f 85 0d 00 00 00           	jne	13 <_redirections_parser+0x85>
10000c2d8: 48 c7 45 f8 00 00 00 00     	movq	$0, -8(%rbp)
10000c2e0: e9 8a 00 00 00              	jmp	138 <_redirections_parser+0x10f>
10000c2e5: 8a 45 e0                    	movb	-32(%rbp), %al
10000c2e8: 24 01                       	andb	$1, %al
10000c2ea: 0f b6 c8                    	movzbl	%al, %ecx
10000c2ed: 83 f9 00                    	cmpl	$0, %ecx
10000c2f0: 0f 85 24 00 00 00           	jne	36 <_redirections_parser+0xba>
10000c2f6: 8a 45 e0                    	movb	-32(%rbp), %al
10000c2f9: c0 e8 01                    	shrb	$1, %al
10000c2fc: 24 01                       	andb	$1, %al
10000c2fe: 0f b6 c8                    	movzbl	%al, %ecx
10000c301: 83 f9 00                    	cmpl	$0, %ecx
10000c304: 0f 85 10 00 00 00           	jne	16 <_redirections_parser+0xba>
10000c30a: 48 8b 7d f0                 	movq	-16(%rbp), %rdi
10000c30e: 8b 75 e4                    	movl	-28(%rbp), %esi
10000c311: e8 4a f5 ff ff              	callq	-2742 <_check_for_redirections>
10000c316: 48 89 45 e8                 	movq	%rax, -24(%rbp)
10000c31a: 48 83 7d e8 00              	cmpq	$0, -24(%rbp)
10000c31f: 0f 84 0c 00 00 00           	je	12 <_redirections_parser+0xd1>
10000c325: c7 45 e4 ff ff ff ff        	movl	$4294967295, -28(%rbp)
10000c32c: e9 0e 00 00 00              	jmp	14 <_redirections_parser+0xdf>
10000c331: 8b 45 e4                    	movl	-28(%rbp), %eax
10000c334: 83 c0 01                    	addl	$1, %eax
10000c337: 89 45 e4                    	movl	%eax, -28(%rbp)
10000c33a: e9 5d ff ff ff              	jmp	-163 <_redirections_parser+0x3c>
10000c33f: 83 7d e4 ff                 	cmpl	$-1, -28(%rbp)
10000c343: 0f 84 15 00 00 00           	je	21 <_redirections_parser+0xfe>
10000c349: 48 8b 7d f0                 	movq	-16(%rbp), %rdi
10000c34d: e8 ee 27 00 00              	callq	10222 <_ft_strdup>
10000c352: 48 89 c7                    	movq	%rax, %rdi
10000c355: e8 16 db ff ff              	callq	-9450 <_executable_parser>
10000c35a: 48 89 45 e8                 	movq	%rax, -24(%rbp)
10000c35e: 48 8b 7d f0                 	movq	-16(%rbp), %rdi
10000c362: e8 b5 31 00 00              	callq	12725 <dyld_stub_binder+0x10000f51c>
10000c367: 48 8b 45 e8                 	movq	-24(%rbp), %rax
10000c36b: 48 89 45 f8                 	movq	%rax, -8(%rbp)
10000c36f: 48 8b 45 f8                 	movq	-8(%rbp), %rax
10000c373: 48 83 c4 20                 	addq	$32, %rsp
10000c377: 5d                          	popq	%rbp
10000c378: c3                          	retq
10000c379: 90                          	nop
10000c37a: 90                          	nop
10000c37b: 90                          	nop
10000c37c: 90                          	nop
10000c37d: 90                          	nop
10000c37e: 90                          	nop
10000c37f: 90                          	nop

000000010000c380 _and_executer:
10000c380: 55                          	pushq	%rbp
10000c381: 48 89 e5                    	movq	%rsp, %rbp
10000c384: 48 83 ec 20                 	subq	$32, %rsp
10000c388: 48 89 7d f8                 	movq	%rdi, -8(%rbp)
10000c38c: 89 75 f4                    	movl	%esi, -12(%rbp)
10000c38f: 89 55 f0                    	movl	%edx, -16(%rbp)
10000c392: 48 89 4d e8                 	movq	%rcx, -24(%rbp)
10000c396: c7 45 e4 00 00 00 00        	movl	$0, -28(%rbp)
10000c39d: 48 8b 45 f8                 	movq	-8(%rbp), %rax
10000c3a1: 48 83 78 08 00              	cmpq	$0, 8(%rax)
10000c3a6: 0f 84 52 00 00 00           	je	82 <_and_executer+0x7e>
10000c3ac: 48 8b 45 f8                 	movq	-8(%rbp), %rax
10000c3b0: 48 83 78 10 00              	cmpq	$0, 16(%rax)
10000c3b5: 0f 84 43 00 00 00           	je	67 <_and_executer+0x7e>
10000c3bb: 48 8b 45 f8                 	movq	-8(%rbp), %rax
10000c3bf: 48 8b 78 08                 	movq	8(%rax), %rdi
10000c3c3: 8b 75 f4                    	movl	-12(%rbp), %esi
10000c3c6: 8b 55 f0                    	movl	-16(%rbp), %edx
10000c3c9: 48 8b 4d e8                 	movq	-24(%rbp), %rcx
10000c3cd: e8 3e 00 00 00              	callq	62 <_and_part_executer>
10000c3d2: 89 45 e4                    	movl	%eax, -28(%rbp)
10000c3d5: 83 7d e4 00                 	cmpl	$0, -28(%rbp)
10000c3d9: 0f 84 1a 00 00 00           	je	26 <_and_executer+0x79>
10000c3df: 48 8b 45 f8                 	movq	-8(%rbp), %rax
10000c3e3: 48 8b 78 10                 	movq	16(%rax), %rdi
10000c3e7: 8b 75 f4                    	movl	-12(%rbp), %esi
10000c3ea: 8b 55 f0                    	movl	-16(%rbp), %edx
10000c3ed: 48 8b 4d e8                 	movq	-24(%rbp), %rcx
10000c3f1: e8 1a 00 00 00              	callq	26 <_and_part_executer>
10000c3f6: 89 45 e4                    	movl	%eax, -28(%rbp)
10000c3f9: e9 00 00 00 00              	jmp	0 <_and_executer+0x7e>
10000c3fe: 8b 45 e4                    	movl	-28(%rbp), %eax
10000c401: 48 83 c4 20                 	addq	$32, %rsp
10000c405: 5d                          	popq	%rbp
10000c406: c3                          	retq
10000c407: 66 0f 1f 84 00 00 00 00 00  	nopw	(%rax,%rax)

000000010000c410 _and_part_executer:
10000c410: 55                          	pushq	%rbp
10000c411: 48 89 e5                    	movq	%rsp, %rbp
10000c414: 48 83 ec 20                 	subq	$32, %rsp
10000c418: 48 89 7d f8                 	movq	%rdi, -8(%rbp)
10000c41c: 89 75 f4                    	movl	%esi, -12(%rbp)
10000c41f: 89 55 f0                    	movl	%edx, -16(%rbp)
10000c422: 48 89 4d e8                 	movq	%rcx, -24(%rbp)
10000c426: 48 8b 45 f8                 	movq	-8(%rbp), %rax
10000c42a: 83 38 02                    	cmpl	$2, (%rax)
10000c42d: 0f 85 1b 00 00 00           	jne	27 <_and_part_executer+0x3e>
10000c433: 48 8b 7d f8                 	movq	-8(%rbp), %rdi
10000c437: 8b 75 f4                    	movl	-12(%rbp), %esi
10000c43a: 8b 55 f0                    	movl	-16(%rbp), %edx
10000c43d: 48 8b 4d e8                 	movq	-24(%rbp), %rcx
10000c441: e8 fa 0b 00 00              	callq	3066 <_redirect_executer>
10000c446: 89 45 e4                    	movl	%eax, -28(%rbp)
10000c449: e9 dc 00 00 00              	jmp	220 <_and_part_executer+0x11a>
10000c44e: 48 8b 45 f8                 	movq	-8(%rbp), %rax
10000c452: 83 38 01                    	cmpl	$1, (%rax)
10000c455: 0f 85 1b 00 00 00           	jne	27 <_and_part_executer+0x66>
10000c45b: 48 8b 7d f8                 	movq	-8(%rbp), %rdi
10000c45f: 8b 75 f4                    	movl	-12(%rbp), %esi
10000c462: 8b 55 f0                    	movl	-16(%rbp), %edx
10000c465: 48 8b 4d e8                 	movq	-24(%rbp), %rcx
10000c469: e8 22 03 00 00              	callq	802 <_cmd_executer>
10000c46e: 89 45 e4                    	movl	%eax, -28(%rbp)
10000c471: e9 af 00 00 00              	jmp	175 <_and_part_executer+0x115>
10000c476: 48 8b 45 f8                 	movq	-8(%rbp), %rax
10000c47a: 83 38 03                    	cmpl	$3, (%rax)
10000c47d: 0f 85 1b 00 00 00           	jne	27 <_and_part_executer+0x8e>
10000c483: 48 8b 7d f8                 	movq	-8(%rbp), %rdi
10000c487: 8b 75 f4                    	movl	-12(%rbp), %esi
10000c48a: 8b 55 f0                    	movl	-16(%rbp), %edx
10000c48d: 48 8b 4d e8                 	movq	-24(%rbp), %rcx
10000c491: e8 da 0f 00 00              	callq	4058 <_builtin_executer>
10000c496: 89 45 e4                    	movl	%eax, -28(%rbp)
10000c499: e9 82 00 00 00              	jmp	130 <_and_part_executer+0x110>
10000c49e: 48 8b 45 f8                 	movq	-8(%rbp), %rax
10000c4a2: 83 38 04                    	cmpl	$4, (%rax)
10000c4a5: 0f 85 1b 00 00 00           	jne	27 <_and_part_executer+0xb6>
10000c4ab: 48 8b 7d f8                 	movq	-8(%rbp), %rdi
10000c4af: 8b 75 f4                    	movl	-12(%rbp), %esi
10000c4b2: 8b 55 f0                    	movl	-16(%rbp), %edx
10000c4b5: 48 8b 4d e8                 	movq	-24(%rbp), %rcx
10000c4b9: e8 c2 fe ff ff              	callq	-318 <_and_executer>
10000c4be: 89 45 e4                    	movl	%eax, -28(%rbp)
10000c4c1: e9 55 00 00 00              	jmp	85 <_and_part_executer+0x10b>
10000c4c6: 48 8b 45 f8                 	movq	-8(%rbp), %rax
10000c4ca: 83 38 05                    	cmpl	$5, (%rax)
10000c4cd: 0f 85 1b 00 00 00           	jne	27 <_and_part_executer+0xde>
10000c4d3: 48 8b 7d f8                 	movq	-8(%rbp), %rdi
10000c4d7: 8b 75 f4                    	movl	-12(%rbp), %esi
10000c4da: 8b 55 f0                    	movl	-16(%rbp), %edx
10000c4dd: 48 8b 4d e8                 	movq	-24(%rbp), %rcx
10000c4e1: e8 9a 04 00 00              	callq	1178 <_or_executer>
10000c4e6: 89 45 e4                    	movl	%eax, -28(%rbp)
10000c4e9: e9 28 00 00 00              	jmp	40 <_and_part_executer+0x106>
10000c4ee: 48 8b 45 f8                 	movq	-8(%rbp), %rax
10000c4f2: 83 38 06                    	cmpl	$6, (%rax)
10000c4f5: 0f 85 16 00 00 00           	jne	22 <_and_part_executer+0x101>
10000c4fb: 48 8b 7d f8                 	movq	-8(%rbp), %rdi
10000c4ff: 8b 75 f4                    	movl	-12(%rbp), %esi
10000c502: 8b 55 f0                    	movl	-16(%rbp), %edx
10000c505: 48 8b 4d e8                 	movq	-24(%rbp), %rcx
10000c509: e8 b2 07 00 00              	callq	1970 <_pipe_executer>
10000c50e: 89 45 e4                    	movl	%eax, -28(%rbp)
10000c511: e9 00 00 00 00              	jmp	0 <_and_part_executer+0x106>
10000c516: e9 00 00 00 00              	jmp	0 <_and_part_executer+0x10b>
10000c51b: e9 00 00 00 00              	jmp	0 <_and_part_executer+0x110>
10000c520: e9 00 00 00 00              	jmp	0 <_and_part_executer+0x115>
10000c525: e9 00 00 00 00              	jmp	0 <_and_part_executer+0x11a>
10000c52a: 8b 45 e4                    	movl	-28(%rbp), %eax
10000c52d: 48 83 c4 20                 	addq	$32, %rsp
10000c531: 5d                          	popq	%rbp
10000c532: c3                          	retq
10000c533: 90                          	nop
10000c534: 90                          	nop
10000c535: 90                          	nop
10000c536: 90                          	nop
10000c537: 90                          	nop
10000c538: 90                          	nop
10000c539: 90                          	nop
10000c53a: 90                          	nop
10000c53b: 90                          	nop
10000c53c: 90                          	nop
10000c53d: 90                          	nop
10000c53e: 90                          	nop
10000c53f: 90                          	nop

000000010000c540 _get_path:
10000c540: 55                          	pushq	%rbp
10000c541: 48 89 e5                    	movq	%rsp, %rbp
10000c544: 48 83 ec 40                 	subq	$64, %rsp
10000c548: 48 89 7d f0                 	movq	%rdi, -16(%rbp)
10000c54c: c7 45 d4 00 00 00 00        	movl	$0, -44(%rbp)
10000c553: 48 8b 7d f0                 	movq	-16(%rbp), %rdi
10000c557: be 01 00 00 00              	movl	$1, %esi
10000c55c: e8 7f 2f 00 00              	callq	12159 <dyld_stub_binder+0x10000f4e0>
10000c561: 83 f8 00                    	cmpl	$0, %eax
10000c564: 0f 85 12 00 00 00           	jne	18 <_get_path+0x3c>
10000c56a: 48 8b 7d f0                 	movq	-16(%rbp), %rdi
10000c56e: e8 cd 25 00 00              	callq	9677 <_ft_strdup>
10000c573: 48 89 45 f8                 	movq	%rax, -8(%rbp)
10000c577: e9 c8 00 00 00              	jmp	200 <_get_path+0x104>
10000c57c: 31 c0                       	xorl	%eax, %eax
10000c57e: 89 c7                       	movl	%eax, %edi
10000c580: be 05 00 00 00              	movl	$5, %esi
10000c585: e8 66 b0 ff ff              	callq	-20378 <_set__get_option_variables>
10000c58a: 48 89 45 e8                 	movq	%rax, -24(%rbp)
10000c58e: 31 c0                       	xorl	%eax, %eax
10000c590: 48 83 7d e8 00              	cmpq	$0, -24(%rbp)
10000c595: 88 45 d3                    	movb	%al, -45(%rbp)
10000c598: 0f 84 13 00 00 00           	je	19 <_get_path+0x71>
10000c59e: 48 8b 45 e8                 	movq	-24(%rbp), %rax
10000c5a2: 48 63 4d d4                 	movslq	-44(%rbp), %rcx
10000c5a6: 48 83 3c c8 00              	cmpq	$0, (%rax,%rcx,8)
10000c5ab: 0f 95 c2                    	setne	%dl
10000c5ae: 88 55 d3                    	movb	%dl, -45(%rbp)
10000c5b1: 8a 45 d3                    	movb	-45(%rbp), %al
10000c5b4: a8 01                       	testb	$1, %al
10000c5b6: 0f 85 05 00 00 00           	jne	5 <_get_path+0x81>
10000c5bc: e9 7b 00 00 00              	jmp	123 <_get_path+0xfc>
10000c5c1: 48 8b 45 e8                 	movq	-24(%rbp), %rax
10000c5c5: 48 63 4d d4                 	movslq	-44(%rbp), %rcx
10000c5c9: 48 8b 3c c8                 	movq	(%rax,%rcx,8), %rdi
10000c5cd: 48 8d 35 2f 32 00 00        	leaq	12847(%rip), %rsi
10000c5d4: e8 47 29 00 00              	callq	10567 <_ft_strjoin>
10000c5d9: 48 89 45 d8                 	movq	%rax, -40(%rbp)
10000c5dd: 48 8b 7d d8                 	movq	-40(%rbp), %rdi
10000c5e1: 48 8b 45 f0                 	movq	-16(%rbp), %rax
10000c5e5: 48 89 7d c8                 	movq	%rdi, -56(%rbp)
10000c5e9: 48 89 c7                    	movq	%rax, %rdi
10000c5ec: e8 4f 25 00 00              	callq	9551 <_ft_strdup>
10000c5f1: 48 8b 7d c8                 	movq	-56(%rbp), %rdi
10000c5f5: 48 89 c6                    	movq	%rax, %rsi
10000c5f8: e8 63 c8 ff ff              	callq	-14237 <_ft_strjoin_free>
10000c5fd: 48 89 45 d8                 	movq	%rax, -40(%rbp)
10000c601: 48 8b 7d d8                 	movq	-40(%rbp), %rdi
10000c605: be 01 00 00 00              	movl	$1, %esi
10000c60a: e8 d1 2e 00 00              	callq	11985 <dyld_stub_binder+0x10000f4e0>
10000c60f: 83 f8 00                    	cmpl	$0, %eax
10000c612: 0f 85 0d 00 00 00           	jne	13 <_get_path+0xe5>
10000c618: 48 8b 45 d8                 	movq	-40(%rbp), %rax
10000c61c: 48 89 45 f8                 	movq	%rax, -8(%rbp)
10000c620: e9 1f 00 00 00              	jmp	31 <_get_path+0x104>
10000c625: 48 8b 7d d8                 	movq	-40(%rbp), %rdi
10000c629: e8 ee 2e 00 00              	callq	12014 <dyld_stub_binder+0x10000f51c>
10000c62e: 8b 45 d4                    	movl	-44(%rbp), %eax
10000c631: 83 c0 01                    	addl	$1, %eax
10000c634: 89 45 d4                    	movl	%eax, -44(%rbp)
10000c637: e9 52 ff ff ff              	jmp	-174 <_get_path+0x4e>
10000c63c: 48 c7 45 f8 00 00 00 00     	movq	$0, -8(%rbp)
10000c644: 48 8b 45 f8                 	movq	-8(%rbp), %rax
10000c648: 48 83 c4 40                 	addq	$64, %rsp
10000c64c: 5d                          	popq	%rbp
10000c64d: c3                          	retq
10000c64e: 66 90                       	nop

000000010000c650 _arguments_list_to_dstr:
10000c650: 55                          	pushq	%rbp
10000c651: 48 89 e5                    	movq	%rsp, %rbp
10000c654: 48 83 ec 30                 	subq	$48, %rsp
10000c658: 48 89 7d f0                 	movq	%rdi, -16(%rbp)
10000c65c: c7 45 dc 00 00 00 00        	movl	$0, -36(%rbp)
10000c663: 48 8b 45 f0                 	movq	-16(%rbp), %rax
10000c667: 48 89 45 e8                 	movq	%rax, -24(%rbp)
10000c66b: 48 83 7d e8 00              	cmpq	$0, -24(%rbp)
10000c670: 0f 84 1a 00 00 00           	je	26 <_arguments_list_to_dstr+0x40>
10000c676: 8b 45 dc                    	movl	-36(%rbp), %eax
10000c679: 83 c0 01                    	addl	$1, %eax
10000c67c: 89 45 dc                    	movl	%eax, -36(%rbp)
10000c67f: 48 8b 4d e8                 	movq	-24(%rbp), %rcx
10000c683: 48 8b 49 18                 	movq	24(%rcx), %rcx
10000c687: 48 89 4d e8                 	movq	%rcx, -24(%rbp)
10000c68b: e9 db ff ff ff              	jmp	-37 <_arguments_list_to_dstr+0x1b>
10000c690: 8b 45 dc                    	movl	-36(%rbp), %eax
10000c693: 83 c0 01                    	addl	$1, %eax
10000c696: 48 63 c8                    	movslq	%eax, %rcx
10000c699: 48 c1 e1 03                 	shlq	$3, %rcx
10000c69d: 48 89 cf                    	movq	%rcx, %rdi
10000c6a0: e8 8f 2e 00 00              	callq	11919 <dyld_stub_binder+0x10000f534>
10000c6a5: 48 89 45 e0                 	movq	%rax, -32(%rbp)
10000c6a9: 48 83 7d e0 00              	cmpq	$0, -32(%rbp)
10000c6ae: 0f 85 0d 00 00 00           	jne	13 <_arguments_list_to_dstr+0x71>
10000c6b4: 48 c7 45 f8 00 00 00 00     	movq	$0, -8(%rbp)
10000c6bc: e9 58 00 00 00              	jmp	88 <_arguments_list_to_dstr+0xc9>
10000c6c1: c7 45 dc 00 00 00 00        	movl	$0, -36(%rbp)
10000c6c8: 48 83 7d f0 00              	cmpq	$0, -16(%rbp)
10000c6cd: 0f 84 2e 00 00 00           	je	46 <_arguments_list_to_dstr+0xb1>
10000c6d3: 48 8b 45 f0                 	movq	-16(%rbp), %rax
10000c6d7: 48 8b 00                    	movq	(%rax), %rax
10000c6da: 48 8b 4d e0                 	movq	-32(%rbp), %rcx
10000c6de: 8b 55 dc                    	movl	-36(%rbp), %edx
10000c6e1: 89 d6                       	movl	%edx, %esi
10000c6e3: 83 c6 01                    	addl	$1, %esi
10000c6e6: 89 75 dc                    	movl	%esi, -36(%rbp)
10000c6e9: 48 63 fa                    	movslq	%edx, %rdi
10000c6ec: 48 89 04 f9                 	movq	%rax, (%rcx,%rdi,8)
10000c6f0: 48 8b 45 f0                 	movq	-16(%rbp), %rax
10000c6f4: 48 8b 40 18                 	movq	24(%rax), %rax
10000c6f8: 48 89 45 f0                 	movq	%rax, -16(%rbp)
10000c6fc: e9 c7 ff ff ff              	jmp	-57 <_arguments_list_to_dstr+0x78>
10000c701: 48 8b 45 e0                 	movq	-32(%rbp), %rax
10000c705: 48 63 4d dc                 	movslq	-36(%rbp), %rcx
10000c709: 48 c7 04 c8 00 00 00 00     	movq	$0, (%rax,%rcx,8)
10000c711: 48 8b 45 e0                 	movq	-32(%rbp), %rax
10000c715: 48 89 45 f8                 	movq	%rax, -8(%rbp)
10000c719: 48 8b 45 f8                 	movq	-8(%rbp), %rax
10000c71d: 48 83 c4 30                 	addq	$48, %rsp
10000c721: 5d                          	popq	%rbp
10000c722: c3                          	retq
10000c723: 66 2e 0f 1f 84 00 00 00 00 00       	nopw	%cs:(%rax,%rax)
10000c72d: 0f 1f 00                    	nopl	(%rax)

000000010000c730 _str_to_double:
10000c730: 55                          	pushq	%rbp
10000c731: 48 89 e5                    	movq	%rsp, %rbp
10000c734: 48 83 ec 20                 	subq	$32, %rsp
10000c738: 48 89 7d f0                 	movq	%rdi, -16(%rbp)
10000c73c: bf 10 00 00 00              	movl	$16, %edi
10000c741: e8 ee 2d 00 00              	callq	11758 <dyld_stub_binder+0x10000f534>
10000c746: 48 89 45 e8                 	movq	%rax, -24(%rbp)
10000c74a: 48 83 7d e8 00              	cmpq	$0, -24(%rbp)
10000c74f: 0f 85 0d 00 00 00           	jne	13 <_str_to_double+0x32>
10000c755: 48 c7 45 f8 00 00 00 00     	movq	$0, -8(%rbp)
10000c75d: e9 1f 00 00 00              	jmp	31 <_str_to_double+0x51>
10000c762: 48 8b 45 f0                 	movq	-16(%rbp), %rax
10000c766: 48 8b 4d e8                 	movq	-24(%rbp), %rcx
10000c76a: 48 89 01                    	movq	%rax, (%rcx)
10000c76d: 48 8b 45 e8                 	movq	-24(%rbp), %rax
10000c771: 48 c7 40 08 00 00 00 00     	movq	$0, 8(%rax)
10000c779: 48 8b 45 e8                 	movq	-24(%rbp), %rax
10000c77d: 48 89 45 f8                 	movq	%rax, -8(%rbp)
10000c781: 48 8b 45 f8                 	movq	-8(%rbp), %rax
10000c785: 48 83 c4 20                 	addq	$32, %rsp
10000c789: 5d                          	popq	%rbp
10000c78a: c3                          	retq
10000c78b: 0f 1f 44 00 00              	nopl	(%rax,%rax)

000000010000c790 _cmd_executer:
10000c790: 55                          	pushq	%rbp
10000c791: 48 89 e5                    	movq	%rsp, %rbp
10000c794: 48 83 ec 50                 	subq	$80, %rsp
10000c798: 48 89 7d f0                 	movq	%rdi, -16(%rbp)
10000c79c: 89 75 ec                    	movl	%esi, -20(%rbp)
10000c79f: 89 55 e8                    	movl	%edx, -24(%rbp)
10000c7a2: 48 89 4d e0                 	movq	%rcx, -32(%rbp)
10000c7a6: 8b 05 74 79 00 00           	movl	31092(%rip), %eax
10000c7ac: 83 c0 01                    	addl	$1, %eax
10000c7af: 89 05 6b 79 00 00           	movl	%eax, 31083(%rip)
10000c7b5: 48 8b 4d f0                 	movq	-16(%rbp), %rcx
10000c7b9: 48 8b 79 08                 	movq	8(%rcx), %rdi
10000c7bd: e8 fe 98 ff ff              	callq	-26370 <_var_expand>
10000c7c2: 48 8b 4d f0                 	movq	-16(%rbp), %rcx
10000c7c6: 48 8b 79 10                 	movq	16(%rcx), %rdi
10000c7ca: e8 f1 98 ff ff              	callq	-26383 <_var_expand>
10000c7cf: 31 c0                       	xorl	%eax, %eax
10000c7d1: 89 c6                       	movl	%eax, %esi
10000c7d3: 48 8b 4d f0                 	movq	-16(%rbp), %rcx
10000c7d7: 48 8b 79 08                 	movq	8(%rcx), %rdi
10000c7db: e8 30 78 ff ff              	callq	-34768 <_wild_cards>
10000c7e0: 31 d2                       	xorl	%edx, %edx
10000c7e2: 89 d6                       	movl	%edx, %esi
10000c7e4: 48 8b 4d f0                 	movq	-16(%rbp), %rcx
10000c7e8: 48 89 41 08                 	movq	%rax, 8(%rcx)
10000c7ec: 48 8b 45 f0                 	movq	-16(%rbp), %rax
10000c7f0: 48 8b 78 10                 	movq	16(%rax), %rdi
10000c7f4: e8 17 78 ff ff              	callq	-34793 <_wild_cards>
10000c7f9: 48 8b 4d f0                 	movq	-16(%rbp), %rcx
10000c7fd: 48 89 41 10                 	movq	%rax, 16(%rcx)
10000c801: 48 8b 45 f0                 	movq	-16(%rbp), %rax
10000c805: 48 8b 78 10                 	movq	16(%rax), %rdi
10000c809: e8 42 fe ff ff              	callq	-446 <_arguments_list_to_dstr>
10000c80e: 48 89 45 d0                 	movq	%rax, -48(%rbp)
10000c812: 48 8b 45 f0                 	movq	-16(%rbp), %rax
10000c816: 48 8b 78 08                 	movq	8(%rax), %rdi
10000c81a: e8 11 07 00 00              	callq	1809 <_arguments_to_str>
10000c81f: 48 89 c7                    	movq	%rax, %rdi
10000c822: e8 09 ff ff ff              	callq	-247 <_str_to_double>
10000c827: 48 8b 75 d0                 	movq	-48(%rbp), %rsi
10000c82b: 48 89 c7                    	movq	%rax, %rdi
10000c82e: e8 4d c7 ff ff              	callq	-14515 <_ft_joindstrs>
10000c833: 48 89 45 d0                 	movq	%rax, -48(%rbp)
10000c837: 48 83 7d d0 00              	cmpq	$0, -48(%rbp)
10000c83c: 0f 84 10 00 00 00           	je	16 <_cmd_executer+0xc2>
10000c842: 48 8b 45 d0                 	movq	-48(%rbp), %rax
10000c846: 48 8b 38                    	movq	(%rax), %rdi
10000c849: e8 f2 fc ff ff              	callq	-782 <_get_path>
10000c84e: 48 89 45 c8                 	movq	%rax, -56(%rbp)
10000c852: 48 83 7d c8 00              	cmpq	$0, -56(%rbp)
10000c857: 0f 85 32 00 00 00           	jne	50 <_cmd_executer+0xff>
10000c85d: 48 8b 45 d0                 	movq	-48(%rbp), %rax
10000c861: 48 8b 30                    	movq	(%rax), %rsi
10000c864: 48 8b 45 d0                 	movq	-48(%rbp), %rax
10000c868: 48 8b 10                    	movq	(%rax), %rdx
10000c86b: 48 8d 3d 71 36 00 00        	leaq	13937(%rip), %rdi
10000c872: e8 c9 e7 ff ff              	callq	-6199 <_pr_custom_err>
10000c877: 48 8b 45 d0                 	movq	-48(%rbp), %rax
10000c87b: 48 89 c7                    	movq	%rax, %rdi
10000c87e: e8 99 2c 00 00              	callq	11417 <dyld_stub_binder+0x10000f51c>
10000c883: c7 45 fc 00 00 00 00        	movl	$0, -4(%rbp)
10000c88a: e9 db 00 00 00              	jmp	219 <_cmd_executer+0x1da>
10000c88f: e8 82 2c 00 00              	callq	11394 <dyld_stub_binder+0x10000f516>
10000c894: 89 45 dc                    	movl	%eax, -36(%rbp)
10000c897: 83 7d dc ff                 	cmpl	$-1, -36(%rbp)
10000c89b: 0f 85 18 00 00 00           	jne	24 <_cmd_executer+0x129>
10000c8a1: 48 8d 3d 5a 36 00 00        	leaq	13914(%rip), %rdi
10000c8a8: e8 99 2c 00 00              	callq	11417 <dyld_stub_binder+0x10000f546>
10000c8ad: c7 45 fc 00 00 00 00        	movl	$0, -4(%rbp)
10000c8b4: e9 b1 00 00 00              	jmp	177 <_cmd_executer+0x1da>
10000c8b9: 83 7d dc 00                 	cmpl	$0, -36(%rbp)
10000c8bd: 0f 85 80 00 00 00           	jne	128 <_cmd_executer+0x1b3>
10000c8c3: 83 7d ec 00                 	cmpl	$0, -20(%rbp)
10000c8c7: 0f 84 1a 00 00 00           	je	26 <_cmd_executer+0x157>
10000c8cd: 31 f6                       	xorl	%esi, %esi
10000c8cf: 8b 7d ec                    	movl	-20(%rbp), %edi
10000c8d2: e8 2d 2c 00 00              	callq	11309 <dyld_stub_binder+0x10000f504>
10000c8d7: 8b 7d ec                    	movl	-20(%rbp), %edi
10000c8da: 89 45 b8                    	movl	%eax, -72(%rbp)
10000c8dd: e8 16 2c 00 00              	callq	11286 <dyld_stub_binder+0x10000f4f8>
10000c8e2: e9 0c 00 00 00              	jmp	12 <_cmd_executer+0x163>
10000c8e7: 48 8b 45 e0                 	movq	-32(%rbp), %rax
10000c8eb: 8b 78 04                    	movl	4(%rax), %edi
10000c8ee: e8 05 2c 00 00              	callq	11269 <dyld_stub_binder+0x10000f4f8>
10000c8f3: 83 7d e8 01                 	cmpl	$1, -24(%rbp)
10000c8f7: 0f 84 1d 00 00 00           	je	29 <_cmd_executer+0x18a>
10000c8fd: 8b 7d e8                    	movl	-24(%rbp), %edi
10000c900: be 01 00 00 00              	movl	$1, %esi
10000c905: e8 fa 2b 00 00              	callq	11258 <dyld_stub_binder+0x10000f504>
10000c90a: 8b 7d e8                    	movl	-24(%rbp), %edi
10000c90d: 89 45 b4                    	movl	%eax, -76(%rbp)
10000c910: e8 e3 2b 00 00              	callq	11235 <dyld_stub_binder+0x10000f4f8>
10000c915: e9 0b 00 00 00              	jmp	11 <_cmd_executer+0x195>
10000c91a: 48 8b 45 e0                 	movq	-32(%rbp), %rax
10000c91e: 8b 38                       	movl	(%rax), %edi
10000c920: e8 d3 2b 00 00              	callq	11219 <dyld_stub_binder+0x10000f4f8>
10000c925: 48 8b 7d c8                 	movq	-56(%rbp), %rdi
10000c929: 48 8b 75 d0                 	movq	-48(%rbp), %rsi
10000c92d: 31 c0                       	xorl	%eax, %eax
10000c92f: 89 c2                       	movl	%eax, %edx
10000c931: e8 d4 2b 00 00              	callq	11220 <dyld_stub_binder+0x10000f50a>
10000c936: bf 01 00 00 00              	movl	$1, %edi
10000c93b: 89 45 b0                    	movl	%eax, -80(%rbp)
10000c93e: e8 cd 2b 00 00              	callq	11213 <dyld_stub_binder+0x10000f510>
10000c943: 48 8b 45 d0                 	movq	-48(%rbp), %rax
10000c947: 48 8b 38                    	movq	(%rax), %rdi
10000c94a: e8 cd 2b 00 00              	callq	11213 <dyld_stub_binder+0x10000f51c>
10000c94f: 48 8b 45 d0                 	movq	-48(%rbp), %rax
10000c953: 48 89 c7                    	movq	%rax, %rdi
10000c956: e8 c1 2b 00 00              	callq	11201 <dyld_stub_binder+0x10000f51c>
10000c95b: 48 8b 7d c8                 	movq	-56(%rbp), %rdi
10000c95f: e8 b8 2b 00 00              	callq	11192 <dyld_stub_binder+0x10000f51c>
10000c964: 8b 4d dc                    	movl	-36(%rbp), %ecx
10000c967: 89 4d fc                    	movl	%ecx, -4(%rbp)
10000c96a: 8b 45 fc                    	movl	-4(%rbp), %eax
10000c96d: 48 83 c4 50                 	addq	$80, %rsp
10000c971: 5d                          	popq	%rbp
10000c972: c3                          	retq
10000c973: 90                          	nop
10000c974: 90                          	nop
10000c975: 90                          	nop
10000c976: 90                          	nop
10000c977: 90                          	nop
10000c978: 90                          	nop
10000c979: 90                          	nop
10000c97a: 90                          	nop
10000c97b: 90                          	nop
10000c97c: 90                          	nop
10000c97d: 90                          	nop
10000c97e: 90                          	nop
10000c97f: 90                          	nop

000000010000c980 _or_executer:
10000c980: 55                          	pushq	%rbp
10000c981: 48 89 e5                    	movq	%rsp, %rbp
10000c984: 48 83 ec 20                 	subq	$32, %rsp
10000c988: 48 89 7d f8                 	movq	%rdi, -8(%rbp)
10000c98c: 89 75 f4                    	movl	%esi, -12(%rbp)
10000c98f: 89 55 f0                    	movl	%edx, -16(%rbp)
10000c992: 48 89 4d e8                 	movq	%rcx, -24(%rbp)
10000c996: 48 8b 45 f8                 	movq	-8(%rbp), %rax
10000c99a: 48 83 78 08 00              	cmpq	$0, 8(%rax)
10000c99f: 0f 84 52 00 00 00           	je	82 <_or_executer+0x77>
10000c9a5: 48 8b 45 f8                 	movq	-8(%rbp), %rax
10000c9a9: 48 83 78 10 00              	cmpq	$0, 16(%rax)
10000c9ae: 0f 84 43 00 00 00           	je	67 <_or_executer+0x77>
10000c9b4: 48 8b 45 f8                 	movq	-8(%rbp), %rax
10000c9b8: 48 8b 78 08                 	movq	8(%rax), %rdi
10000c9bc: 8b 75 f4                    	movl	-12(%rbp), %esi
10000c9bf: 8b 55 f0                    	movl	-16(%rbp), %edx
10000c9c2: 48 8b 4d e8                 	movq	-24(%rbp), %rcx
10000c9c6: e8 35 00 00 00              	callq	53 <_or_part_executer>
10000c9cb: 89 45 e4                    	movl	%eax, -28(%rbp)
10000c9ce: 83 7d e4 00                 	cmpl	$0, -28(%rbp)
10000c9d2: 0f 85 1a 00 00 00           	jne	26 <_or_executer+0x72>
10000c9d8: 48 8b 45 f8                 	movq	-8(%rbp), %rax
10000c9dc: 48 8b 78 10                 	movq	16(%rax), %rdi
10000c9e0: 8b 75 f4                    	movl	-12(%rbp), %esi
10000c9e3: 8b 55 f0                    	movl	-16(%rbp), %edx
10000c9e6: 48 8b 4d e8                 	movq	-24(%rbp), %rcx
10000c9ea: e8 11 00 00 00              	callq	17 <_or_part_executer>
10000c9ef: 89 45 e4                    	movl	%eax, -28(%rbp)
10000c9f2: e9 00 00 00 00              	jmp	0 <_or_executer+0x77>
10000c9f7: 8b 45 e4                    	movl	-28(%rbp), %eax
10000c9fa: 48 83 c4 20                 	addq	$32, %rsp
10000c9fe: 5d                          	popq	%rbp
10000c9ff: c3                          	retq

000000010000ca00 _or_part_executer:
10000ca00: 55                          	pushq	%rbp
10000ca01: 48 89 e5                    	movq	%rsp, %rbp
10000ca04: 48 83 ec 20                 	subq	$32, %rsp
10000ca08: 48 89 7d f8                 	movq	%rdi, -8(%rbp)
10000ca0c: 89 75 f4                    	movl	%esi, -12(%rbp)
10000ca0f: 89 55 f0                    	movl	%edx, -16(%rbp)
10000ca12: 48 89 4d e8                 	movq	%rcx, -24(%rbp)
10000ca16: 48 8b 45 f8                 	movq	-8(%rbp), %rax
10000ca1a: 83 38 02                    	cmpl	$2, (%rax)
10000ca1d: 0f 85 1b 00 00 00           	jne	27 <_or_part_executer+0x3e>
10000ca23: 48 8b 7d f8                 	movq	-8(%rbp), %rdi
10000ca27: 8b 75 f4                    	movl	-12(%rbp), %esi
10000ca2a: 8b 55 f0                    	movl	-16(%rbp), %edx
10000ca2d: 48 8b 4d e8                 	movq	-24(%rbp), %rcx
10000ca31: e8 0a 06 00 00              	callq	1546 <_redirect_executer>
10000ca36: 89 45 e4                    	movl	%eax, -28(%rbp)
10000ca39: e9 dc 00 00 00              	jmp	220 <_or_part_executer+0x11a>
10000ca3e: 48 8b 45 f8                 	movq	-8(%rbp), %rax
10000ca42: 83 38 01                    	cmpl	$1, (%rax)
10000ca45: 0f 85 1b 00 00 00           	jne	27 <_or_part_executer+0x66>
10000ca4b: 48 8b 7d f8                 	movq	-8(%rbp), %rdi
10000ca4f: 8b 75 f4                    	movl	-12(%rbp), %esi
10000ca52: 8b 55 f0                    	movl	-16(%rbp), %edx
10000ca55: 48 8b 4d e8                 	movq	-24(%rbp), %rcx
10000ca59: e8 32 fd ff ff              	callq	-718 <_cmd_executer>
10000ca5e: 89 45 e4                    	movl	%eax, -28(%rbp)
10000ca61: e9 af 00 00 00              	jmp	175 <_or_part_executer+0x115>
10000ca66: 48 8b 45 f8                 	movq	-8(%rbp), %rax
10000ca6a: 83 38 03                    	cmpl	$3, (%rax)
10000ca6d: 0f 85 1b 00 00 00           	jne	27 <_or_part_executer+0x8e>
10000ca73: 48 8b 7d f8                 	movq	-8(%rbp), %rdi
10000ca77: 8b 75 f4                    	movl	-12(%rbp), %esi
10000ca7a: 8b 55 f0                    	movl	-16(%rbp), %edx
10000ca7d: 48 8b 4d e8                 	movq	-24(%rbp), %rcx
10000ca81: e8 ea 09 00 00              	callq	2538 <_builtin_executer>
10000ca86: 89 45 e4                    	movl	%eax, -28(%rbp)
10000ca89: e9 82 00 00 00              	jmp	130 <_or_part_executer+0x110>
10000ca8e: 48 8b 45 f8                 	movq	-8(%rbp), %rax
10000ca92: 83 38 04                    	cmpl	$4, (%rax)
10000ca95: 0f 85 1b 00 00 00           	jne	27 <_or_part_executer+0xb6>
10000ca9b: 48 8b 7d f8                 	movq	-8(%rbp), %rdi
10000ca9f: 8b 75 f4                    	movl	-12(%rbp), %esi
10000caa2: 8b 55 f0                    	movl	-16(%rbp), %edx
10000caa5: 48 8b 4d e8                 	movq	-24(%rbp), %rcx
10000caa9: e8 d2 f8 ff ff              	callq	-1838 <_and_executer>
10000caae: 89 45 e4                    	movl	%eax, -28(%rbp)
10000cab1: e9 55 00 00 00              	jmp	85 <_or_part_executer+0x10b>
10000cab6: 48 8b 45 f8                 	movq	-8(%rbp), %rax
10000caba: 83 38 05                    	cmpl	$5, (%rax)
10000cabd: 0f 85 1b 00 00 00           	jne	27 <_or_part_executer+0xde>
10000cac3: 48 8b 7d f8                 	movq	-8(%rbp), %rdi
10000cac7: 8b 75 f4                    	movl	-12(%rbp), %esi
10000caca: 8b 55 f0                    	movl	-16(%rbp), %edx
10000cacd: 48 8b 4d e8                 	movq	-24(%rbp), %rcx
10000cad1: e8 aa fe ff ff              	callq	-342 <_or_executer>
10000cad6: 89 45 e4                    	movl	%eax, -28(%rbp)
10000cad9: e9 28 00 00 00              	jmp	40 <_or_part_executer+0x106>
10000cade: 48 8b 45 f8                 	movq	-8(%rbp), %rax
10000cae2: 83 38 06                    	cmpl	$6, (%rax)
10000cae5: 0f 85 16 00 00 00           	jne	22 <_or_part_executer+0x101>
10000caeb: 48 8b 7d f8                 	movq	-8(%rbp), %rdi
10000caef: 8b 75 f4                    	movl	-12(%rbp), %esi
10000caf2: 8b 55 f0                    	movl	-16(%rbp), %edx
10000caf5: 48 8b 4d e8                 	movq	-24(%rbp), %rcx
10000caf9: e8 c2 01 00 00              	callq	450 <_pipe_executer>
10000cafe: 89 45 e4                    	movl	%eax, -28(%rbp)
10000cb01: e9 00 00 00 00              	jmp	0 <_or_part_executer+0x106>
10000cb06: e9 00 00 00 00              	jmp	0 <_or_part_executer+0x10b>
10000cb0b: e9 00 00 00 00              	jmp	0 <_or_part_executer+0x110>
10000cb10: e9 00 00 00 00              	jmp	0 <_or_part_executer+0x115>
10000cb15: e9 00 00 00 00              	jmp	0 <_or_part_executer+0x11a>
10000cb1a: 8b 45 e4                    	movl	-28(%rbp), %eax
10000cb1d: 48 83 c4 20                 	addq	$32, %rsp
10000cb21: 5d                          	popq	%rbp
10000cb22: c3                          	retq
10000cb23: 90                          	nop
10000cb24: 90                          	nop
10000cb25: 90                          	nop
10000cb26: 90                          	nop
10000cb27: 90                          	nop
10000cb28: 90                          	nop
10000cb29: 90                          	nop
10000cb2a: 90                          	nop
10000cb2b: 90                          	nop
10000cb2c: 90                          	nop
10000cb2d: 90                          	nop
10000cb2e: 90                          	nop
10000cb2f: 90                          	nop

000000010000cb30 _new_pid:
10000cb30: 55                          	pushq	%rbp
10000cb31: 48 89 e5                    	movq	%rsp, %rbp
10000cb34: 48 83 ec 30                 	subq	$48, %rsp
10000cb38: 48 89 7d f8                 	movq	%rdi, -8(%rbp)
10000cb3c: 89 75 f4                    	movl	%esi, -12(%rbp)
10000cb3f: 8b 75 f4                    	movl	-12(%rbp), %esi
10000cb42: 48 8d 3d c5 33 00 00        	leaq	13253(%rip), %rdi
10000cb49: b0 00                       	movb	$0, %al
10000cb4b: e8 02 2a 00 00              	callq	10754 <dyld_stub_binder+0x10000f552>
10000cb50: bf 10 00 00 00              	movl	$16, %edi
10000cb55: 89 45 dc                    	movl	%eax, -36(%rbp)
10000cb58: e8 d7 29 00 00              	callq	10711 <dyld_stub_binder+0x10000f534>
10000cb5d: 48 89 45 e8                 	movq	%rax, -24(%rbp)
10000cb61: 48 83 7d e8 00              	cmpq	$0, -24(%rbp)
10000cb66: 0f 85 05 00 00 00           	jne	5 <_new_pid+0x41>
10000cb6c: e9 81 00 00 00              	jmp	129 <_new_pid+0xc2>
10000cb71: 8b 45 f4                    	movl	-12(%rbp), %eax
10000cb74: 48 8b 4d e8                 	movq	-24(%rbp), %rcx
10000cb78: 89 01                       	movl	%eax, (%rcx)
10000cb7a: 48 8b 4d e8                 	movq	-24(%rbp), %rcx
10000cb7e: 48 c7 41 08 00 00 00 00     	movq	$0, 8(%rcx)
10000cb86: 48 8b 4d f8                 	movq	-8(%rbp), %rcx
10000cb8a: 48 83 39 00                 	cmpq	$0, (%rcx)
10000cb8e: 0f 85 10 00 00 00           	jne	16 <_new_pid+0x74>
10000cb94: 48 8b 45 e8                 	movq	-24(%rbp), %rax
10000cb98: 48 8b 4d f8                 	movq	-8(%rbp), %rcx
10000cb9c: 48 89 01                    	movq	%rax, (%rcx)
10000cb9f: e9 4e 00 00 00              	jmp	78 <_new_pid+0xc2>
10000cba4: 48 8b 45 f8                 	movq	-8(%rbp), %rax
10000cba8: 48 8b 00                    	movq	(%rax), %rax
10000cbab: 48 89 45 e0                 	movq	%rax, -32(%rbp)
10000cbaf: 48 8b 45 f8                 	movq	-8(%rbp), %rax
10000cbb3: 48 8b 00                    	movq	(%rax), %rax
10000cbb6: 48 83 78 08 00              	cmpq	$0, 8(%rax)
10000cbbb: 0f 84 17 00 00 00           	je	23 <_new_pid+0xa8>
10000cbc1: 48 8b 45 f8                 	movq	-8(%rbp), %rax
10000cbc5: 48 8b 00                    	movq	(%rax), %rax
10000cbc8: 48 8b 40 08                 	movq	8(%rax), %rax
10000cbcc: 48 8b 4d f8                 	movq	-8(%rbp), %rcx
10000cbd0: 48 89 01                    	movq	%rax, (%rcx)
10000cbd3: e9 d7 ff ff ff              	jmp	-41 <_new_pid+0x7f>
10000cbd8: 48 8b 45 e8                 	movq	-24(%rbp), %rax
10000cbdc: 48 8b 4d f8                 	movq	-8(%rbp), %rcx
10000cbe0: 48 8b 09                    	movq	(%rcx), %rcx
10000cbe3: 48 89 41 08                 	movq	%rax, 8(%rcx)
10000cbe7: 48 8b 45 e0                 	movq	-32(%rbp), %rax
10000cbeb: 48 8b 4d f8                 	movq	-8(%rbp), %rcx
10000cbef: 48 89 01                    	movq	%rax, (%rcx)
10000cbf2: 48 83 c4 30                 	addq	$48, %rsp
10000cbf6: 5d                          	popq	%rbp
10000cbf7: c3                          	retq
10000cbf8: 0f 1f 84 00 00 00 00 00     	nopl	(%rax,%rax)

000000010000cc00 _wait_pipes:
10000cc00: 55                          	pushq	%rbp
10000cc01: 48 89 e5                    	movq	%rsp, %rbp
10000cc04: 48 83 ec 20                 	subq	$32, %rsp
10000cc08: 48 89 7d f8                 	movq	%rdi, -8(%rbp)
10000cc0c: c7 45 ec 00 00 00 00        	movl	$0, -20(%rbp)
10000cc13: 48 8b 45 f8                 	movq	-8(%rbp), %rax
10000cc17: 48 83 38 00                 	cmpq	$0, (%rax)
10000cc1b: 0f 84 8e 00 00 00           	je	142 <_wait_pipes+0xaf>
10000cc21: 8b 45 ec                    	movl	-20(%rbp), %eax
10000cc24: 83 c0 01                    	addl	$1, %eax
10000cc27: 89 45 ec                    	movl	%eax, -20(%rbp)
10000cc2a: 48 8b 4d f8                 	movq	-8(%rbp), %rcx
10000cc2e: 48 8b 09                    	movq	(%rcx), %rcx
10000cc31: 48 89 4d f0                 	movq	%rcx, -16(%rbp)
10000cc35: 8b 75 ec                    	movl	-20(%rbp), %esi
10000cc38: 48 8b 4d f8                 	movq	-8(%rbp), %rcx
10000cc3c: 48 8b 09                    	movq	(%rcx), %rcx
10000cc3f: 8b 11                       	movl	(%rcx), %edx
10000cc41: 48 8d 3d d4 32 00 00        	leaq	13012(%rip), %rdi
10000cc48: b0 00                       	movb	$0, %al
10000cc4a: e8 03 29 00 00              	callq	10499 <dyld_stub_binder+0x10000f552>
10000cc4f: 31 d2                       	xorl	%edx, %edx
10000cc51: 89 d6                       	movl	%edx, %esi
10000cc53: 31 d2                       	xorl	%edx, %edx
10000cc55: 48 8b 4d f8                 	movq	-8(%rbp), %rcx
10000cc59: 48 8b 09                    	movq	(%rcx), %rcx
10000cc5c: 8b 39                       	movl	(%rcx), %edi
10000cc5e: 89 45 e8                    	movl	%eax, -24(%rbp)
10000cc61: e8 1c 29 00 00              	callq	10524 <dyld_stub_binder+0x10000f582>
10000cc66: 83 f8 ff                    	cmpl	$-1, %eax
10000cc69: 0f 85 0c 00 00 00           	jne	12 <_wait_pipes+0x7b>
10000cc6f: 48 8d 3d b9 32 00 00        	leaq	12985(%rip), %rdi
10000cc76: e8 cb 28 00 00              	callq	10443 <dyld_stub_binder+0x10000f546>
10000cc7b: 48 8d 3d bc 32 00 00        	leaq	12988(%rip), %rdi
10000cc82: b0 00                       	movb	$0, %al
10000cc84: e8 c9 28 00 00              	callq	10441 <dyld_stub_binder+0x10000f552>
10000cc89: 48 8b 4d f8                 	movq	-8(%rbp), %rcx
10000cc8d: 48 8b 09                    	movq	(%rcx), %rcx
10000cc90: 48 8b 49 08                 	movq	8(%rcx), %rcx
10000cc94: 48 8b 55 f8                 	movq	-8(%rbp), %rdx
10000cc98: 48 89 0a                    	movq	%rcx, (%rdx)
10000cc9b: 48 8b 4d f0                 	movq	-16(%rbp), %rcx
10000cc9f: 48 89 cf                    	movq	%rcx, %rdi
10000cca2: 89 45 e4                    	movl	%eax, -28(%rbp)
10000cca5: e8 72 28 00 00              	callq	10354 <dyld_stub_binder+0x10000f51c>
10000ccaa: e9 64 ff ff ff              	jmp	-156 <_wait_pipes+0x13>
10000ccaf: 48 83 c4 20                 	addq	$32, %rsp
10000ccb3: 5d                          	popq	%rbp
10000ccb4: c3                          	retq
10000ccb5: 66 2e 0f 1f 84 00 00 00 00 00       	nopw	%cs:(%rax,%rax)
10000ccbf: 90                          	nop

000000010000ccc0 _pipe_executer:
10000ccc0: 55                          	pushq	%rbp
10000ccc1: 48 89 e5                    	movq	%rsp, %rbp
10000ccc4: 48 83 ec 50                 	subq	$80, %rsp
10000ccc8: 48 8d 45 f0                 	leaq	-16(%rbp), %rax
10000cccc: 4c 8b 05 2d 33 00 00        	movq	13101(%rip), %r8
10000ccd3: 4d 8b 00                    	movq	(%r8), %r8
10000ccd6: 4c 89 45 f8                 	movq	%r8, -8(%rbp)
10000ccda: 48 89 7d e8                 	movq	%rdi, -24(%rbp)
10000ccde: 89 75 e4                    	movl	%esi, -28(%rbp)
10000cce1: 89 55 e0                    	movl	%edx, -32(%rbp)
10000cce4: 48 89 4d d8                 	movq	%rcx, -40(%rbp)
10000cce8: 48 89 c7                    	movq	%rax, %rdi
10000cceb: e8 5c 28 00 00              	callq	10332 <dyld_stub_binder+0x10000f54c>
10000ccf0: 8b 55 f0                    	movl	-16(%rbp), %edx
10000ccf3: 48 8b 4d d8                 	movq	-40(%rbp), %rcx
10000ccf7: 89 11                       	movl	%edx, (%rcx)
10000ccf9: 8b 55 f4                    	movl	-12(%rbp), %edx
10000ccfc: 48 8b 4d d8                 	movq	-40(%rbp), %rcx
10000cd00: 89 51 04                    	movl	%edx, 4(%rcx)
10000cd03: 48 8b 4d d8                 	movq	-40(%rbp), %rcx
10000cd07: c7 41 08 01 00 00 00        	movl	$1, 8(%rcx)
10000cd0e: 48 8b 4d e8                 	movq	-24(%rbp), %rcx
10000cd12: 48 8b 79 08                 	movq	8(%rcx), %rdi
10000cd16: 8b 75 e4                    	movl	-28(%rbp), %esi
10000cd19: 8b 55 f4                    	movl	-12(%rbp), %edx
10000cd1c: 48 8b 4d d8                 	movq	-40(%rbp), %rcx
10000cd20: 89 45 c0                    	movl	%eax, -64(%rbp)
10000cd23: e8 98 00 00 00              	callq	152 <_pipe_part_executer>
10000cd28: 89 45 d4                    	movl	%eax, -44(%rbp)
10000cd2b: 8b 7d f4                    	movl	-12(%rbp), %edi
10000cd2e: e8 c5 27 00 00              	callq	10181 <dyld_stub_binder+0x10000f4f8>
10000cd33: 8b 75 d4                    	movl	-44(%rbp), %esi
10000cd36: 48 8d 3d eb 73 00 00        	leaq	29675(%rip), %rdi
10000cd3d: 89 45 bc                    	movl	%eax, -68(%rbp)
10000cd40: e8 eb fd ff ff              	callq	-533 <_new_pid>
10000cd45: 48 8b 4d e8                 	movq	-24(%rbp), %rcx
10000cd49: 48 8b 79 10                 	movq	16(%rcx), %rdi
10000cd4d: 8b 75 f0                    	movl	-16(%rbp), %esi
10000cd50: 8b 55 e0                    	movl	-32(%rbp), %edx
10000cd53: 48 8b 4d d8                 	movq	-40(%rbp), %rcx
10000cd57: e8 64 00 00 00              	callq	100 <_pipe_part_executer>
10000cd5c: 89 45 d4                    	movl	%eax, -44(%rbp)
10000cd5f: 8b 7d f0                    	movl	-16(%rbp), %edi
10000cd62: e8 91 27 00 00              	callq	10129 <dyld_stub_binder+0x10000f4f8>
10000cd67: 48 8b 4d e8                 	movq	-24(%rbp), %rcx
10000cd6b: 48 8b 49 10                 	movq	16(%rcx), %rcx
10000cd6f: 83 39 06                    	cmpl	$6, (%rcx)
10000cd72: 0f 84 1b 00 00 00           	je	27 <_pipe_executer+0xd3>
10000cd78: 8b 75 d4                    	movl	-44(%rbp), %esi
10000cd7b: 48 8d 3d a6 73 00 00        	leaq	29606(%rip), %rdi
10000cd82: e8 a9 fd ff ff              	callq	-599 <_new_pid>
10000cd87: 48 8d 3d 9a 73 00 00        	leaq	29594(%rip), %rdi
10000cd8e: e8 6d fe ff ff              	callq	-403 <_wait_pipes>
10000cd93: 8b 45 d4                    	movl	-44(%rbp), %eax
10000cd96: 48 8b 0d 63 32 00 00        	movq	12899(%rip), %rcx
10000cd9d: 48 8b 09                    	movq	(%rcx), %rcx
10000cda0: 48 8b 55 f8                 	movq	-8(%rbp), %rdx
10000cda4: 48 39 d1                    	cmpq	%rdx, %rcx
10000cda7: 89 45 b8                    	movl	%eax, -72(%rbp)
10000cdaa: 0f 85 09 00 00 00           	jne	9 <_pipe_executer+0xf9>
10000cdb0: 8b 45 b8                    	movl	-72(%rbp), %eax
10000cdb3: 48 83 c4 50                 	addq	$80, %rsp
10000cdb7: 5d                          	popq	%rbp
10000cdb8: c3                          	retq
10000cdb9: e8 1c 27 00 00              	callq	10012 <dyld_stub_binder+0x10000f4da>
10000cdbe: 0f 0b                       	ud2

000000010000cdc0 _pipe_part_executer:
10000cdc0: 55                          	pushq	%rbp
10000cdc1: 48 89 e5                    	movq	%rsp, %rbp
10000cdc4: 48 83 ec 20                 	subq	$32, %rsp
10000cdc8: 48 89 7d f8                 	movq	%rdi, -8(%rbp)
10000cdcc: 89 75 f4                    	movl	%esi, -12(%rbp)
10000cdcf: 89 55 f0                    	movl	%edx, -16(%rbp)
10000cdd2: 48 89 4d e8                 	movq	%rcx, -24(%rbp)
10000cdd6: c7 45 e4 00 00 00 00        	movl	$0, -28(%rbp)
10000cddd: 48 83 7d f8 00              	cmpq	$0, -8(%rbp)
10000cde2: 0f 84 28 00 00 00           	je	40 <_pipe_part_executer+0x50>
10000cde8: 48 8b 45 f8                 	movq	-8(%rbp), %rax
10000cdec: 83 38 02                    	cmpl	$2, (%rax)
10000cdef: 0f 85 1b 00 00 00           	jne	27 <_pipe_part_executer+0x50>
10000cdf5: 48 8b 7d f8                 	movq	-8(%rbp), %rdi
10000cdf9: 8b 75 f4                    	movl	-12(%rbp), %esi
10000cdfc: 8b 55 f0                    	movl	-16(%rbp), %edx
10000cdff: 48 8b 4d e8                 	movq	-24(%rbp), %rcx
10000ce03: e8 38 02 00 00              	callq	568 <_redirect_executer>
10000ce08: 89 45 e4                    	movl	%eax, -28(%rbp)
10000ce0b: e9 13 01 00 00              	jmp	275 <_pipe_part_executer+0x163>
10000ce10: 48 83 7d f8 00              	cmpq	$0, -8(%rbp)
10000ce15: 0f 84 28 00 00 00           	je	40 <_pipe_part_executer+0x83>
10000ce1b: 48 8b 45 f8                 	movq	-8(%rbp), %rax
10000ce1f: 83 38 01                    	cmpl	$1, (%rax)
10000ce22: 0f 85 1b 00 00 00           	jne	27 <_pipe_part_executer+0x83>
10000ce28: 48 8b 7d f8                 	movq	-8(%rbp), %rdi
10000ce2c: 8b 75 f4                    	movl	-12(%rbp), %esi
10000ce2f: 8b 55 f0                    	movl	-16(%rbp), %edx
10000ce32: 48 8b 4d e8                 	movq	-24(%rbp), %rcx
10000ce36: e8 55 f9 ff ff              	callq	-1707 <_cmd_executer>
10000ce3b: 89 45 e4                    	movl	%eax, -28(%rbp)
10000ce3e: e9 db 00 00 00              	jmp	219 <_pipe_part_executer+0x15e>
10000ce43: 48 83 7d f8 00              	cmpq	$0, -8(%rbp)
10000ce48: 0f 84 28 00 00 00           	je	40 <_pipe_part_executer+0xb6>
10000ce4e: 48 8b 45 f8                 	movq	-8(%rbp), %rax
10000ce52: 83 38 03                    	cmpl	$3, (%rax)
10000ce55: 0f 85 1b 00 00 00           	jne	27 <_pipe_part_executer+0xb6>
10000ce5b: 48 8b 7d f8                 	movq	-8(%rbp), %rdi
10000ce5f: 8b 75 f4                    	movl	-12(%rbp), %esi
10000ce62: 8b 55 f0                    	movl	-16(%rbp), %edx
10000ce65: 48 8b 4d e8                 	movq	-24(%rbp), %rcx
10000ce69: e8 02 06 00 00              	callq	1538 <_builtin_executer>
10000ce6e: 89 45 e4                    	movl	%eax, -28(%rbp)
10000ce71: e9 a3 00 00 00              	jmp	163 <_pipe_part_executer+0x159>
10000ce76: 48 83 7d f8 00              	cmpq	$0, -8(%rbp)
10000ce7b: 0f 84 28 00 00 00           	je	40 <_pipe_part_executer+0xe9>
10000ce81: 48 8b 45 f8                 	movq	-8(%rbp), %rax
10000ce85: 83 38 04                    	cmpl	$4, (%rax)
10000ce88: 0f 85 1b 00 00 00           	jne	27 <_pipe_part_executer+0xe9>
10000ce8e: 48 8b 7d f8                 	movq	-8(%rbp), %rdi
10000ce92: 8b 75 f4                    	movl	-12(%rbp), %esi
10000ce95: 8b 55 f0                    	movl	-16(%rbp), %edx
10000ce98: 48 8b 4d e8                 	movq	-24(%rbp), %rcx
10000ce9c: e8 df f4 ff ff              	callq	-2849 <_and_executer>
10000cea1: 89 45 e4                    	movl	%eax, -28(%rbp)
10000cea4: e9 6b 00 00 00              	jmp	107 <_pipe_part_executer+0x154>
10000cea9: 48 83 7d f8 00              	cmpq	$0, -8(%rbp)
10000ceae: 0f 84 28 00 00 00           	je	40 <_pipe_part_executer+0x11c>
10000ceb4: 48 8b 45 f8                 	movq	-8(%rbp), %rax
10000ceb8: 83 38 05                    	cmpl	$5, (%rax)
10000cebb: 0f 85 1b 00 00 00           	jne	27 <_pipe_part_executer+0x11c>
10000cec1: 48 8b 7d f8                 	movq	-8(%rbp), %rdi
10000cec5: 8b 75 f4                    	movl	-12(%rbp), %esi
10000cec8: 8b 55 f0                    	movl	-16(%rbp), %edx
10000cecb: 48 8b 4d e8                 	movq	-24(%rbp), %rcx
10000cecf: e8 ac fa ff ff              	callq	-1364 <_or_executer>
10000ced4: 89 45 e4                    	movl	%eax, -28(%rbp)
10000ced7: e9 33 00 00 00              	jmp	51 <_pipe_part_executer+0x14f>
10000cedc: 48 83 7d f8 00              	cmpq	$0, -8(%rbp)
10000cee1: 0f 84 23 00 00 00           	je	35 <_pipe_part_executer+0x14a>
10000cee7: 48 8b 45 f8                 	movq	-8(%rbp), %rax
10000ceeb: 83 38 06                    	cmpl	$6, (%rax)
10000ceee: 0f 85 16 00 00 00           	jne	22 <_pipe_part_executer+0x14a>
10000cef4: 48 8b 7d f8                 	movq	-8(%rbp), %rdi
10000cef8: 8b 75 f4                    	movl	-12(%rbp), %esi
10000cefb: 8b 55 f0                    	movl	-16(%rbp), %edx
10000cefe: 48 8b 4d e8                 	movq	-24(%rbp), %rcx
10000cf02: e8 b9 fd ff ff              	callq	-583 <_pipe_executer>
10000cf07: 89 45 e4                    	movl	%eax, -28(%rbp)
10000cf0a: e9 00 00 00 00              	jmp	0 <_pipe_part_executer+0x14f>
10000cf0f: e9 00 00 00 00              	jmp	0 <_pipe_part_executer+0x154>
10000cf14: e9 00 00 00 00              	jmp	0 <_pipe_part_executer+0x159>
10000cf19: e9 00 00 00 00              	jmp	0 <_pipe_part_executer+0x15e>
10000cf1e: e9 00 00 00 00              	jmp	0 <_pipe_part_executer+0x163>
10000cf23: 8b 45 e4                    	movl	-28(%rbp), %eax
10000cf26: 48 83 c4 20                 	addq	$32, %rsp
10000cf2a: 5d                          	popq	%rbp
10000cf2b: c3                          	retq
10000cf2c: 90                          	nop
10000cf2d: 90                          	nop
10000cf2e: 90                          	nop
10000cf2f: 90                          	nop

000000010000cf30 _arguments_to_str:
10000cf30: 55                          	pushq	%rbp
10000cf31: 48 89 e5                    	movq	%rsp, %rbp
10000cf34: 48 83 ec 30                 	subq	$48, %rsp
10000cf38: 48 89 7d f0                 	movq	%rdi, -16(%rbp)
10000cf3c: c7 45 dc 00 00 00 00        	movl	$0, -36(%rbp)
10000cf43: 48 8b 45 f0                 	movq	-16(%rbp), %rax
10000cf47: 48 89 45 e8                 	movq	%rax, -24(%rbp)
10000cf4b: 48 83 7d e8 00              	cmpq	$0, -24(%rbp)
10000cf50: 0f 84 27 00 00 00           	je	39 <_arguments_to_str+0x4d>
10000cf56: 48 8b 45 e8                 	movq	-24(%rbp), %rax
10000cf5a: 48 8b 38                    	movq	(%rax), %rdi
10000cf5d: e8 7e 1c 00 00              	callq	7294 <_ft_strlen>
10000cf62: 48 63 4d dc                 	movslq	-36(%rbp), %rcx
10000cf66: 48 01 c1                    	addq	%rax, %rcx
10000cf69: 89 4d dc                    	movl	%ecx, -36(%rbp)
10000cf6c: 48 8b 45 e8                 	movq	-24(%rbp), %rax
10000cf70: 48 8b 40 18                 	movq	24(%rax), %rax
10000cf74: 48 89 45 e8                 	movq	%rax, -24(%rbp)
10000cf78: e9 ce ff ff ff              	jmp	-50 <_arguments_to_str+0x1b>
10000cf7d: 8b 45 dc                    	movl	-36(%rbp), %eax
10000cf80: 83 c0 01                    	addl	$1, %eax
10000cf83: 48 63 f8                    	movslq	%eax, %rdi
10000cf86: e8 a9 25 00 00              	callq	9641 <dyld_stub_binder+0x10000f534>
10000cf8b: 48 89 45 e0                 	movq	%rax, -32(%rbp)
10000cf8f: 48 83 7d e0 00              	cmpq	$0, -32(%rbp)
10000cf94: 0f 85 0d 00 00 00           	jne	13 <_arguments_to_str+0x77>
10000cf9a: 48 c7 45 f8 00 00 00 00     	movq	$0, -8(%rbp)
10000cfa2: e9 87 00 00 00              	jmp	135 <_arguments_to_str+0xfe>
10000cfa7: c7 45 dc 00 00 00 00        	movl	$0, -36(%rbp)
10000cfae: 48 83 7d f0 00              	cmpq	$0, -16(%rbp)
10000cfb3: 0f 84 61 00 00 00           	je	97 <_arguments_to_str+0xea>
10000cfb9: c7 45 d8 00 00 00 00        	movl	$0, -40(%rbp)
10000cfc0: 48 8b 45 f0                 	movq	-16(%rbp), %rax
10000cfc4: 48 8b 00                    	movq	(%rax), %rax
10000cfc7: 48 63 4d d8                 	movslq	-40(%rbp), %rcx
10000cfcb: 80 3c 08 00                 	cmpb	$0, (%rax,%rcx)
10000cfcf: 0f 84 34 00 00 00           	je	52 <_arguments_to_str+0xd9>
10000cfd5: 48 8b 45 f0                 	movq	-16(%rbp), %rax
10000cfd9: 48 8b 00                    	movq	(%rax), %rax
10000cfdc: 8b 4d d8                    	movl	-40(%rbp), %ecx
10000cfdf: 89 ca                       	movl	%ecx, %edx
10000cfe1: 83 c2 01                    	addl	$1, %edx
10000cfe4: 89 55 d8                    	movl	%edx, -40(%rbp)
10000cfe7: 48 63 f1                    	movslq	%ecx, %rsi
10000cfea: 40 8a 3c 30                 	movb	(%rax,%rsi), %dil
10000cfee: 48 8b 45 e0                 	movq	-32(%rbp), %rax
10000cff2: 8b 4d dc                    	movl	-36(%rbp), %ecx
10000cff5: 89 ca                       	movl	%ecx, %edx
10000cff7: 83 c2 01                    	addl	$1, %edx
10000cffa: 89 55 dc                    	movl	%edx, -36(%rbp)
10000cffd: 48 63 f1                    	movslq	%ecx, %rsi
10000d000: 40 88 3c 30                 	movb	%dil, (%rax,%rsi)
10000d004: e9 b7 ff ff ff              	jmp	-73 <_arguments_to_str+0x90>
10000d009: 48 8b 45 f0                 	movq	-16(%rbp), %rax
10000d00d: 48 8b 40 18                 	movq	24(%rax), %rax
10000d011: 48 89 45 f0                 	movq	%rax, -16(%rbp)
10000d015: e9 94 ff ff ff              	jmp	-108 <_arguments_to_str+0x7e>
10000d01a: 48 8b 45 e0                 	movq	-32(%rbp), %rax
10000d01e: 48 63 4d dc                 	movslq	-36(%rbp), %rcx
10000d022: c6 04 08 00                 	movb	$0, (%rax,%rcx)
10000d026: 48 8b 45 e0                 	movq	-32(%rbp), %rax
10000d02a: 48 89 45 f8                 	movq	%rax, -8(%rbp)
10000d02e: 48 8b 45 f8                 	movq	-8(%rbp), %rax
10000d032: 48 83 c4 30                 	addq	$48, %rsp
10000d036: 5d                          	popq	%rbp
10000d037: c3                          	retq
10000d038: 0f 1f 84 00 00 00 00 00     	nopl	(%rax,%rax)

000000010000d040 _redirect_executer:
10000d040: 55                          	pushq	%rbp
10000d041: 48 89 e5                    	movq	%rsp, %rbp
10000d044: 48 81 ec 80 00 00 00        	subq	$128, %rsp
10000d04b: 48 89 7d f0                 	movq	%rdi, -16(%rbp)
10000d04f: 89 75 ec                    	movl	%esi, -20(%rbp)
10000d052: 89 55 e8                    	movl	%edx, -24(%rbp)
10000d055: 48 89 4d e0                 	movq	%rcx, -32(%rbp)
10000d059: 48 8b 45 f0                 	movq	-16(%rbp), %rax
10000d05d: 83 78 08 01                 	cmpl	$1, 8(%rax)
10000d061: 0f 84 4e 00 00 00           	je	78 <_redirect_executer+0x75>
10000d067: 31 c0                       	xorl	%eax, %eax
10000d069: 89 c6                       	movl	%eax, %esi
10000d06b: 48 8b 4d f0                 	movq	-16(%rbp), %rcx
10000d06f: 48 8b 79 10                 	movq	16(%rcx), %rdi
10000d073: e8 98 6f ff ff              	callq	-36968 <_wild_cards>
10000d078: 48 8b 4d f0                 	movq	-16(%rbp), %rcx
10000d07c: 48 89 41 10                 	movq	%rax, 16(%rcx)
10000d080: 48 8b 45 f0                 	movq	-16(%rbp), %rax
10000d084: 48 8b 40 10                 	movq	16(%rax), %rax
10000d088: 48 83 78 18 00              	cmpq	$0, 24(%rax)
10000d08d: 0f 84 1d 00 00 00           	je	29 <_redirect_executer+0x70>
10000d093: 48 8d 3d c3 2e 00 00        	leaq	11971(%rip), %rdi
10000d09a: be 02 00 00 00              	movl	$2, %esi
10000d09f: e8 dc 21 00 00              	callq	8668 <_ft_putendl_fd>
10000d0a4: c7 45 fc 00 00 00 00        	movl	$0, -4(%rbp)
10000d0ab: e9 ad 03 00 00              	jmp	941 <_redirect_executer+0x41d>
10000d0b0: e9 00 00 00 00              	jmp	0 <_redirect_executer+0x75>
10000d0b5: 48 8b 45 f0                 	movq	-16(%rbp), %rax
10000d0b9: 48 8b 78 10                 	movq	16(%rax), %rdi
10000d0bd: e8 6e fe ff ff              	callq	-402 <_arguments_to_str>
10000d0c2: 48 89 45 c8                 	movq	%rax, -56(%rbp)
10000d0c6: 48 8b 45 f0                 	movq	-16(%rbp), %rax
10000d0ca: 83 78 08 01                 	cmpl	$1, 8(%rax)
10000d0ce: 0f 85 61 01 00 00           	jne	353 <_redirect_executer+0x1f5>
10000d0d4: 48 8d 3d a0 2e 00 00        	leaq	11936(%rip), %rdi
10000d0db: be 01 06 00 00              	movl	$1537, %esi
10000d0e0: ba a4 01 00 00              	movl	$420, %edx
10000d0e5: b0 00                       	movb	$0, %al
10000d0e7: e8 4e 24 00 00              	callq	9294 <dyld_stub_binder+0x10000f53a>
10000d0ec: 48 8b 4d f0                 	movq	-16(%rbp), %rcx
10000d0f0: 89 41 1c                    	movl	%eax, 28(%rcx)
10000d0f3: 48 8b 4d f0                 	movq	-16(%rbp), %rcx
10000d0f7: 83 79 1c 00                 	cmpl	$0, 28(%rcx)
10000d0fb: 0f 8d 20 00 00 00           	jge	32 <_redirect_executer+0xe1>
10000d101: 48 8b 75 d0                 	movq	-48(%rbp), %rsi
10000d105: 48 8b 55 c8                 	movq	-56(%rbp), %rdx
10000d109: 48 8d 3d 79 2e 00 00        	leaq	11897(%rip), %rdi
10000d110: e8 2b df ff ff              	callq	-8405 <_pr_custom_err>
10000d115: c7 45 fc 00 00 00 00        	movl	$0, -4(%rbp)
10000d11c: e9 3c 03 00 00              	jmp	828 <_redirect_executer+0x41d>
10000d121: e9 00 00 00 00              	jmp	0 <_redirect_executer+0xe6>
10000d126: 48 8d 3d 48 2c 00 00        	leaq	11336(%rip), %rdi
10000d12d: e8 32 24 00 00              	callq	9266 <dyld_stub_binder+0x10000f564>
10000d132: 48 89 45 d0                 	movq	%rax, -48(%rbp)
10000d136: 48 83 7d d0 00              	cmpq	$0, -48(%rbp)
10000d13b: 0f 85 05 00 00 00           	jne	5 <_redirect_executer+0x106>
10000d141: e9 9e 00 00 00              	jmp	158 <_redirect_executer+0x1a4>
10000d146: 48 8b 7d d0                 	movq	-48(%rbp), %rdi
10000d14a: 48 8b 75 c8                 	movq	-56(%rbp), %rsi
10000d14e: 48 8b 45 c8                 	movq	-56(%rbp), %rax
10000d152: 48 89 7d b8                 	movq	%rdi, -72(%rbp)
10000d156: 48 89 c7                    	movq	%rax, %rdi
10000d159: 48 89 75 b0                 	movq	%rsi, -80(%rbp)
10000d15d: e8 7e 1a 00 00              	callq	6782 <_ft_strlen>
10000d162: 48 8b 7d b8                 	movq	-72(%rbp), %rdi
10000d166: 48 8b 75 b0                 	movq	-80(%rbp), %rsi
10000d16a: 48 89 c2                    	movq	%rax, %rdx
10000d16d: e8 04 24 00 00              	callq	9220 <dyld_stub_binder+0x10000f576>
10000d172: 83 f8 00                    	cmpl	$0, %eax
10000d175: 0f 85 0e 00 00 00           	jne	14 <_redirect_executer+0x149>
10000d17b: 48 8b 7d d0                 	movq	-48(%rbp), %rdi
10000d17f: e8 98 23 00 00              	callq	9112 <dyld_stub_binder+0x10000f51c>
10000d184: e9 5b 00 00 00              	jmp	91 <_redirect_executer+0x1a4>
10000d189: 48 8b 45 f0                 	movq	-16(%rbp), %rax
10000d18d: 8b 78 1c                    	movl	28(%rax), %edi
10000d190: 48 8b 75 d0                 	movq	-48(%rbp), %rsi
10000d194: 48 8b 45 d0                 	movq	-48(%rbp), %rax
10000d198: 89 7d ac                    	movl	%edi, -84(%rbp)
10000d19b: 48 89 c7                    	movq	%rax, %rdi
10000d19e: 48 89 75 a0                 	movq	%rsi, -96(%rbp)
10000d1a2: e8 39 1a 00 00              	callq	6713 <_ft_strlen>
10000d1a7: 8b 7d ac                    	movl	-84(%rbp), %edi
10000d1aa: 48 8b 75 a0                 	movq	-96(%rbp), %rsi
10000d1ae: 48 89 c2                    	movq	%rax, %rdx
10000d1b1: e8 d2 23 00 00              	callq	9170 <dyld_stub_binder+0x10000f588>
10000d1b6: 48 8b 4d f0                 	movq	-16(%rbp), %rcx
10000d1ba: 8b 79 1c                    	movl	28(%rcx), %edi
10000d1bd: 48 8d 35 39 29 00 00        	leaq	10553(%rip), %rsi
10000d1c4: ba 01 00 00 00              	movl	$1, %edx
10000d1c9: 48 89 45 98                 	movq	%rax, -104(%rbp)
10000d1cd: e8 b6 23 00 00              	callq	9142 <dyld_stub_binder+0x10000f588>
10000d1d2: 48 8b 7d d0                 	movq	-48(%rbp), %rdi
10000d1d6: 48 89 45 90                 	movq	%rax, -112(%rbp)
10000d1da: e8 3d 23 00 00              	callq	9021 <dyld_stub_binder+0x10000f51c>
10000d1df: e9 42 ff ff ff              	jmp	-190 <_redirect_executer+0xe6>
10000d1e4: 48 8b 45 f0                 	movq	-16(%rbp), %rax
10000d1e8: 8b 78 1c                    	movl	28(%rax), %edi
10000d1eb: e8 08 23 00 00              	callq	8968 <dyld_stub_binder+0x10000f4f8>
10000d1f0: 31 f6                       	xorl	%esi, %esi
10000d1f2: 48 8d 3d 82 2d 00 00        	leaq	11650(%rip), %rdi
10000d1f9: 89 45 8c                    	movl	%eax, -116(%rbp)
10000d1fc: b0 00                       	movb	$0, %al
10000d1fe: e8 37 23 00 00              	callq	9015 <dyld_stub_binder+0x10000f53a>
10000d203: 89 45 ec                    	movl	%eax, -20(%rbp)
10000d206: 83 7d ec 00                 	cmpl	$0, -20(%rbp)
10000d20a: 0f 8d 20 00 00 00           	jge	32 <_redirect_executer+0x1f0>
10000d210: 48 8b 75 c8                 	movq	-56(%rbp), %rsi
10000d214: 48 8b 55 c8                 	movq	-56(%rbp), %rdx
10000d218: 48 8d 3d 6a 2d 00 00        	leaq	11626(%rip), %rdi
10000d21f: e8 1c de ff ff              	callq	-8676 <_pr_custom_err>
10000d224: c7 45 fc 00 00 00 00        	movl	$0, -4(%rbp)
10000d22b: e9 2d 02 00 00              	jmp	557 <_redirect_executer+0x41d>
10000d230: e9 a0 00 00 00              	jmp	160 <_redirect_executer+0x295>
10000d235: 48 8b 45 f0                 	movq	-16(%rbp), %rax
10000d239: 83 78 08 02                 	cmpl	$2, 8(%rax)
10000d23d: 0f 85 44 00 00 00           	jne	68 <_redirect_executer+0x247>
10000d243: 48 8b 7d c8                 	movq	-56(%rbp), %rdi
10000d247: 48 8b 45 f0                 	movq	-16(%rbp), %rax
10000d24b: 8b 70 18                    	movl	24(%rax), %esi
10000d24e: b0 00                       	movb	$0, %al
10000d250: e8 e5 22 00 00              	callq	8933 <dyld_stub_binder+0x10000f53a>
10000d255: 89 45 ec                    	movl	%eax, -20(%rbp)
10000d258: 83 7d ec 00                 	cmpl	$0, -20(%rbp)
10000d25c: 0f 8d 20 00 00 00           	jge	32 <_redirect_executer+0x242>
10000d262: 48 8b 75 c8                 	movq	-56(%rbp), %rsi
10000d266: 48 8b 55 c8                 	movq	-56(%rbp), %rdx
10000d26a: 48 8d 3d 18 2d 00 00        	leaq	11544(%rip), %rdi
10000d271: e8 ca dd ff ff              	callq	-8758 <_pr_custom_err>
10000d276: c7 45 fc 00 00 00 00        	movl	$0, -4(%rbp)
10000d27d: e9 db 01 00 00              	jmp	475 <_redirect_executer+0x41d>
10000d282: e9 49 00 00 00              	jmp	73 <_redirect_executer+0x290>
10000d287: 48 8b 7d c8                 	movq	-56(%rbp), %rdi
10000d28b: 48 8b 45 f0                 	movq	-16(%rbp), %rax
10000d28f: 8b 70 18                    	movl	24(%rax), %esi
10000d292: ba a4 01 00 00              	movl	$420, %edx
10000d297: b0 00                       	movb	$0, %al
10000d299: e8 9c 22 00 00              	callq	8860 <dyld_stub_binder+0x10000f53a>
10000d29e: 89 45 e8                    	movl	%eax, -24(%rbp)
10000d2a1: 83 7d e8 00                 	cmpl	$0, -24(%rbp)
10000d2a5: 0f 8d 20 00 00 00           	jge	32 <_redirect_executer+0x28b>
10000d2ab: 48 8b 75 c8                 	movq	-56(%rbp), %rsi
10000d2af: 48 8b 55 c8                 	movq	-56(%rbp), %rdx
10000d2b3: 48 8d 3d cf 2c 00 00        	leaq	11471(%rip), %rdi
10000d2ba: e8 81 dd ff ff              	callq	-8831 <_pr_custom_err>
10000d2bf: c7 45 fc 00 00 00 00        	movl	$0, -4(%rbp)
10000d2c6: e9 92 01 00 00              	jmp	402 <_redirect_executer+0x41d>
10000d2cb: e9 00 00 00 00              	jmp	0 <_redirect_executer+0x290>
10000d2d0: e9 00 00 00 00              	jmp	0 <_redirect_executer+0x295>
10000d2d5: 48 8b 45 f0                 	movq	-16(%rbp), %rax
10000d2d9: 48 83 78 20 00              	cmpq	$0, 32(%rax)
10000d2de: 0f 84 39 01 00 00           	je	313 <_redirect_executer+0x3dd>
10000d2e4: 48 8b 45 f0                 	movq	-16(%rbp), %rax
10000d2e8: 48 8b 40 20                 	movq	32(%rax), %rax
10000d2ec: 83 38 04                    	cmpl	$4, (%rax)
10000d2ef: 0f 85 1f 00 00 00           	jne	31 <_redirect_executer+0x2d4>
10000d2f5: 48 8b 45 f0                 	movq	-16(%rbp), %rax
10000d2f9: 48 8b 78 20                 	movq	32(%rax), %rdi
10000d2fd: 8b 75 ec                    	movl	-20(%rbp), %esi
10000d300: 8b 55 e8                    	movl	-24(%rbp), %edx
10000d303: 48 8b 4d e0                 	movq	-32(%rbp), %rcx
10000d307: e8 74 f0 ff ff              	callq	-3980 <_and_executer>
10000d30c: 89 45 dc                    	movl	%eax, -36(%rbp)
10000d30f: e9 04 01 00 00              	jmp	260 <_redirect_executer+0x3d8>
10000d314: 48 8b 45 f0                 	movq	-16(%rbp), %rax
10000d318: 48 8b 40 20                 	movq	32(%rax), %rax
10000d31c: 83 38 05                    	cmpl	$5, (%rax)
10000d31f: 0f 85 1f 00 00 00           	jne	31 <_redirect_executer+0x304>
10000d325: 48 8b 45 f0                 	movq	-16(%rbp), %rax
10000d329: 48 8b 78 20                 	movq	32(%rax), %rdi
10000d32d: 8b 75 ec                    	movl	-20(%rbp), %esi
10000d330: 8b 55 e8                    	movl	-24(%rbp), %edx
10000d333: 48 8b 4d e0                 	movq	-32(%rbp), %rcx
10000d337: e8 44 f6 ff ff              	callq	-2492 <_or_executer>
10000d33c: 89 45 dc                    	movl	%eax, -36(%rbp)
10000d33f: e9 cf 00 00 00              	jmp	207 <_redirect_executer+0x3d3>
10000d344: 48 8b 45 f0                 	movq	-16(%rbp), %rax
10000d348: 48 8b 40 20                 	movq	32(%rax), %rax
10000d34c: 83 38 06                    	cmpl	$6, (%rax)
10000d34f: 0f 85 1f 00 00 00           	jne	31 <_redirect_executer+0x334>
10000d355: 48 8b 45 f0                 	movq	-16(%rbp), %rax
10000d359: 48 8b 78 20                 	movq	32(%rax), %rdi
10000d35d: 8b 75 ec                    	movl	-20(%rbp), %esi
10000d360: 8b 55 e8                    	movl	-24(%rbp), %edx
10000d363: 48 8b 4d e0                 	movq	-32(%rbp), %rcx
10000d367: e8 54 f9 ff ff              	callq	-1708 <_pipe_executer>
10000d36c: 89 45 dc                    	movl	%eax, -36(%rbp)
10000d36f: e9 9a 00 00 00              	jmp	154 <_redirect_executer+0x3ce>
10000d374: 48 8b 45 f0                 	movq	-16(%rbp), %rax
10000d378: 48 8b 40 20                 	movq	32(%rax), %rax
10000d37c: 83 38 02                    	cmpl	$2, (%rax)
10000d37f: 0f 85 1f 00 00 00           	jne	31 <_redirect_executer+0x364>
10000d385: 48 8b 45 f0                 	movq	-16(%rbp), %rax
10000d389: 48 8b 78 20                 	movq	32(%rax), %rdi
10000d38d: 8b 75 ec                    	movl	-20(%rbp), %esi
10000d390: 8b 55 e8                    	movl	-24(%rbp), %edx
10000d393: 48 8b 4d e0                 	movq	-32(%rbp), %rcx
10000d397: e8 a4 fc ff ff              	callq	-860 <_redirect_executer>
10000d39c: 89 45 dc                    	movl	%eax, -36(%rbp)
10000d39f: e9 65 00 00 00              	jmp	101 <_redirect_executer+0x3c9>
10000d3a4: 48 8b 45 f0                 	movq	-16(%rbp), %rax
10000d3a8: 48 8b 40 20                 	movq	32(%rax), %rax
10000d3ac: 83 38 01                    	cmpl	$1, (%rax)
10000d3af: 0f 85 1f 00 00 00           	jne	31 <_redirect_executer+0x394>
10000d3b5: 48 8b 45 f0                 	movq	-16(%rbp), %rax
10000d3b9: 48 8b 78 20                 	movq	32(%rax), %rdi
10000d3bd: 8b 75 ec                    	movl	-20(%rbp), %esi
10000d3c0: 8b 55 e8                    	movl	-24(%rbp), %edx
10000d3c3: 48 8b 4d e0                 	movq	-32(%rbp), %rcx
10000d3c7: e8 c4 f3 ff ff              	callq	-3132 <_cmd_executer>
10000d3cc: 89 45 dc                    	movl	%eax, -36(%rbp)
10000d3cf: e9 30 00 00 00              	jmp	48 <_redirect_executer+0x3c4>
10000d3d4: 48 8b 45 f0                 	movq	-16(%rbp), %rax
10000d3d8: 48 8b 40 20                 	movq	32(%rax), %rax
10000d3dc: 83 38 03                    	cmpl	$3, (%rax)
10000d3df: 0f 85 1a 00 00 00           	jne	26 <_redirect_executer+0x3bf>
10000d3e5: 48 8b 45 f0                 	movq	-16(%rbp), %rax
10000d3e9: 48 8b 78 20                 	movq	32(%rax), %rdi
10000d3ed: 8b 75 ec                    	movl	-20(%rbp), %esi
10000d3f0: 8b 55 e8                    	movl	-24(%rbp), %edx
10000d3f3: 48 8b 4d e0                 	movq	-32(%rbp), %rcx
10000d3f7: e8 74 00 00 00              	callq	116 <_builtin_executer>
10000d3fc: 89 45 dc                    	movl	%eax, -36(%rbp)
10000d3ff: e9 00 00 00 00              	jmp	0 <_redirect_executer+0x3c4>
10000d404: e9 00 00 00 00              	jmp	0 <_redirect_executer+0x3c9>
10000d409: e9 00 00 00 00              	jmp	0 <_redirect_executer+0x3ce>
10000d40e: e9 00 00 00 00              	jmp	0 <_redirect_executer+0x3d3>
10000d413: e9 00 00 00 00              	jmp	0 <_redirect_executer+0x3d8>
10000d418: e9 00 00 00 00              	jmp	0 <_redirect_executer+0x3dd>
10000d41d: 48 8b 45 f0                 	movq	-16(%rbp), %rax
10000d421: 83 78 08 01                 	cmpl	$1, 8(%rax)
10000d425: 0f 84 0e 00 00 00           	je	14 <_redirect_executer+0x3f9>
10000d42b: 48 8b 45 f0                 	movq	-16(%rbp), %rax
10000d42f: 83 78 08 02                 	cmpl	$2, 8(%rax)
10000d433: 0f 85 0d 00 00 00           	jne	13 <_redirect_executer+0x406>
10000d439: 8b 7d ec                    	movl	-20(%rbp), %edi
10000d43c: e8 b7 20 00 00              	callq	8375 <dyld_stub_binder+0x10000f4f8>
10000d441: e9 08 00 00 00              	jmp	8 <_redirect_executer+0x40e>
10000d446: 8b 7d e8                    	movl	-24(%rbp), %edi
10000d449: e8 aa 20 00 00              	callq	8362 <dyld_stub_binder+0x10000f4f8>
10000d44e: 48 8b 7d c8                 	movq	-56(%rbp), %rdi
10000d452: e8 c5 20 00 00              	callq	8389 <dyld_stub_binder+0x10000f51c>
10000d457: 8b 45 dc                    	movl	-36(%rbp), %eax
10000d45a: 89 45 fc                    	movl	%eax, -4(%rbp)
10000d45d: 8b 45 fc                    	movl	-4(%rbp), %eax
10000d460: 48 81 c4 80 00 00 00        	addq	$128, %rsp
10000d467: 5d                          	popq	%rbp
10000d468: c3                          	retq
10000d469: 90                          	nop
10000d46a: 90                          	nop
10000d46b: 90                          	nop
10000d46c: 90                          	nop
10000d46d: 90                          	nop
10000d46e: 90                          	nop
10000d46f: 90                          	nop

000000010000d470 _builtin_executer:
10000d470: 55                          	pushq	%rbp
10000d471: 48 89 e5                    	movq	%rsp, %rbp
10000d474: 31 c0                       	xorl	%eax, %eax
10000d476: 48 89 7d f8                 	movq	%rdi, -8(%rbp)
10000d47a: 89 75 f4                    	movl	%esi, -12(%rbp)
10000d47d: 89 55 f0                    	movl	%edx, -16(%rbp)
10000d480: 48 89 4d e8                 	movq	%rcx, -24(%rbp)
10000d484: 5d                          	popq	%rbp
10000d485: c3                          	retq
10000d486: 90                          	nop
10000d487: 90                          	nop
10000d488: 90                          	nop
10000d489: 90                          	nop
10000d48a: 90                          	nop
10000d48b: 90                          	nop
10000d48c: 90                          	nop
10000d48d: 90                          	nop
10000d48e: 90                          	nop
10000d48f: 90                          	nop

000000010000d490 _arguments_constructor:
10000d490: 55                          	pushq	%rbp
10000d491: 48 89 e5                    	movq	%rsp, %rbp
10000d494: 48 83 ec 30                 	subq	$48, %rsp
10000d498: 48 89 7d f0                 	movq	%rdi, -16(%rbp)
10000d49c: 48 89 75 e8                 	movq	%rsi, -24(%rbp)
10000d4a0: 66 89 55 e6                 	movw	%dx, -26(%rbp)
10000d4a4: bf 20 00 00 00              	movl	$32, %edi
10000d4a9: e8 86 20 00 00              	callq	8326 <dyld_stub_binder+0x10000f534>
10000d4ae: 48 89 45 d8                 	movq	%rax, -40(%rbp)
10000d4b2: 48 83 7d d8 00              	cmpq	$0, -40(%rbp)
10000d4b7: 0f 85 0d 00 00 00           	jne	13 <_arguments_constructor+0x3a>
10000d4bd: 48 c7 45 f8 00 00 00 00     	movq	$0, -8(%rbp)
10000d4c5: e9 ee 00 00 00              	jmp	238 <_arguments_constructor+0x128>
10000d4ca: 48 8b 45 d8                 	movq	-40(%rbp), %rax
10000d4ce: 48 c7 00 00 00 00 00        	movq	$0, (%rax)
10000d4d5: 0f b7 4d e6                 	movzwl	-26(%rbp), %ecx
10000d4d9: 83 f9 08                    	cmpl	$8, %ecx
10000d4dc: 0f 84 18 00 00 00           	je	24 <_arguments_constructor+0x6a>
10000d4e2: 0f b7 45 e6                 	movzwl	-26(%rbp), %eax
10000d4e6: 83 f8 01                    	cmpl	$1, %eax
10000d4e9: 0f 84 0b 00 00 00           	je	11 <_arguments_constructor+0x6a>
10000d4ef: 48 8b 45 e8                 	movq	-24(%rbp), %rax
10000d4f3: 48 8b 4d d8                 	movq	-40(%rbp), %rcx
10000d4f7: 48 89 01                    	movq	%rax, (%rcx)
10000d4fa: 66 8b 45 e6                 	movw	-26(%rbp), %ax
10000d4fe: 48 8b 4d d8                 	movq	-40(%rbp), %rcx
10000d502: 8a 51 08                    	movb	8(%rcx), %dl
10000d505: 24 0f                       	andb	$15, %al
10000d507: 80 e2 f0                    	andb	$-16, %dl
10000d50a: 08 c2                       	orb	%al, %dl
10000d50c: 88 51 08                    	movb	%dl, 8(%rcx)
10000d50f: 48 8b 4d d8                 	movq	-40(%rbp), %rcx
10000d513: 48 c7 41 18 00 00 00 00     	movq	$0, 24(%rcx)
10000d51b: 48 8b 4d d8                 	movq	-40(%rbp), %rcx
10000d51f: 48 c7 41 10 00 00 00 00     	movq	$0, 16(%rcx)
10000d527: 0f b7 75 e6                 	movzwl	-26(%rbp), %esi
10000d52b: 83 fe 08                    	cmpl	$8, %esi
10000d52e: 0f 84 0d 00 00 00           	je	13 <_arguments_constructor+0xb1>
10000d534: 0f b7 45 e6                 	movzwl	-26(%rbp), %eax
10000d538: 83 f8 01                    	cmpl	$1, %eax
10000d53b: 0f 85 23 00 00 00           	jne	35 <_arguments_constructor+0xd4>
10000d541: 48 8b 45 d8                 	movq	-40(%rbp), %rax
10000d545: 48 8b 78 10                 	movq	16(%rax), %rdi
10000d549: 48 8b 75 e8                 	movq	-24(%rbp), %rsi
10000d54d: 0f b7 4d e6                 	movzwl	-26(%rbp), %ecx
10000d551: 83 c9 02                    	orl	$2, %ecx
10000d554: 0f b7 d1                    	movzwl	%cx, %edx
10000d557: e8 34 ff ff ff              	callq	-204 <_arguments_constructor>
10000d55c: 48 8b 75 d8                 	movq	-40(%rbp), %rsi
10000d560: 48 89 46 10                 	movq	%rax, 16(%rsi)
10000d564: 48 83 7d f0 00              	cmpq	$0, -16(%rbp)
10000d569: 0f 85 0d 00 00 00           	jne	13 <_arguments_constructor+0xec>
10000d56f: 48 8b 45 d8                 	movq	-40(%rbp), %rax
10000d573: 48 89 45 f8                 	movq	%rax, -8(%rbp)
10000d577: e9 3c 00 00 00              	jmp	60 <_arguments_constructor+0x128>
10000d57c: 48 8b 45 f0                 	movq	-16(%rbp), %rax
10000d580: 48 89 45 d0                 	movq	%rax, -48(%rbp)
10000d584: 48 8b 45 d0                 	movq	-48(%rbp), %rax
10000d588: 48 83 78 18 00              	cmpq	$0, 24(%rax)
10000d58d: 0f 84 11 00 00 00           	je	17 <_arguments_constructor+0x114>
10000d593: 48 8b 45 d0                 	movq	-48(%rbp), %rax
10000d597: 48 8b 40 18                 	movq	24(%rax), %rax
10000d59b: 48 89 45 d0                 	movq	%rax, -48(%rbp)
10000d59f: e9 e0 ff ff ff              	jmp	-32 <_arguments_constructor+0xf4>
10000d5a4: 48 8b 45 d8                 	movq	-40(%rbp), %rax
10000d5a8: 48 8b 4d d0                 	movq	-48(%rbp), %rcx
10000d5ac: 48 89 41 18                 	movq	%rax, 24(%rcx)
10000d5b0: 48 8b 45 f0                 	movq	-16(%rbp), %rax
10000d5b4: 48 89 45 f8                 	movq	%rax, -8(%rbp)
10000d5b8: 48 8b 45 f8                 	movq	-8(%rbp), %rax
10000d5bc: 48 83 c4 30                 	addq	$48, %rsp
10000d5c0: 5d                          	popq	%rbp
10000d5c1: c3                          	retq
10000d5c2: 66 2e 0f 1f 84 00 00 00 00 00       	nopw	%cs:(%rax,%rax)
10000d5cc: 0f 1f 40 00                 	nopl	(%rax)

000000010000d5d0 _arguments_destructor:
10000d5d0: 55                          	pushq	%rbp
10000d5d1: 48 89 e5                    	movq	%rsp, %rbp
10000d5d4: 48 83 ec 20                 	subq	$32, %rsp
10000d5d8: 48 89 7d f8                 	movq	%rdi, -8(%rbp)
10000d5dc: 48 8b 45 f8                 	movq	-8(%rbp), %rax
10000d5e0: 48 8b 00                    	movq	(%rax), %rax
10000d5e3: 48 89 45 f0                 	movq	%rax, -16(%rbp)
10000d5e7: 48 8b 45 f8                 	movq	-8(%rbp), %rax
10000d5eb: 48 8b 00                    	movq	(%rax), %rax
10000d5ee: 48 89 45 e8                 	movq	%rax, -24(%rbp)
10000d5f2: 48 83 7d e8 00              	cmpq	$0, -24(%rbp)
10000d5f7: 0f 84 dd 00 00 00           	je	221 <_arguments_destructor+0x10a>
10000d5fd: 48 8b 45 e8                 	movq	-24(%rbp), %rax
10000d601: 8a 48 08                    	movb	8(%rax), %cl
10000d604: 80 e1 0f                    	andb	$15, %cl
10000d607: 0f b6 d1                    	movzbl	%cl, %edx
10000d60a: 0f b7 f2                    	movzwl	%dx, %esi
10000d60d: 83 e6 02                    	andl	$2, %esi
10000d610: 83 fe 00                    	cmpl	$0, %esi
10000d613: 0f 85 1c 00 00 00           	jne	28 <_arguments_destructor+0x65>
10000d619: 48 8b 45 e8                 	movq	-24(%rbp), %rax
10000d61d: 8a 48 08                    	movb	8(%rax), %cl
10000d620: 80 e1 0f                    	andb	$15, %cl
10000d623: 0f b6 d1                    	movzbl	%cl, %edx
10000d626: 0f b7 f2                    	movzwl	%dx, %esi
10000d629: 83 e6 04                    	andl	$4, %esi
10000d62c: 83 fe 00                    	cmpl	$0, %esi
10000d62f: 0f 84 31 00 00 00           	je	49 <_arguments_destructor+0x96>
10000d635: 48 8b 45 e8                 	movq	-24(%rbp), %rax
10000d639: 48 89 45 f0                 	movq	%rax, -16(%rbp)
10000d63d: 48 8b 45 e8                 	movq	-24(%rbp), %rax
10000d641: 48 8b 40 18                 	movq	24(%rax), %rax
10000d645: 48 89 45 e8                 	movq	%rax, -24(%rbp)
10000d649: 48 8b 45 f0                 	movq	-16(%rbp), %rax
10000d64d: 48 8b 38                    	movq	(%rax), %rdi
10000d650: e8 c7 1e 00 00              	callq	7879 <dyld_stub_binder+0x10000f51c>
10000d655: 48 8b 45 f0                 	movq	-16(%rbp), %rax
10000d659: 48 89 c7                    	movq	%rax, %rdi
10000d65c: e8 bb 1e 00 00              	callq	7867 <dyld_stub_binder+0x10000f51c>
10000d661: e9 6f 00 00 00              	jmp	111 <_arguments_destructor+0x105>
10000d666: 48 8b 45 e8                 	movq	-24(%rbp), %rax
10000d66a: 8a 48 08                    	movb	8(%rax), %cl
10000d66d: 80 e1 0f                    	andb	$15, %cl
10000d670: 0f b6 d1                    	movzbl	%cl, %edx
10000d673: 0f b7 f2                    	movzwl	%dx, %esi
10000d676: 83 e6 08                    	andl	$8, %esi
10000d679: 83 fe 00                    	cmpl	$0, %esi
10000d67c: 0f 85 1c 00 00 00           	jne	28 <_arguments_destructor+0xce>
10000d682: 48 8b 45 e8                 	movq	-24(%rbp), %rax
10000d686: 8a 48 08                    	movb	8(%rax), %cl
10000d689: 80 e1 0f                    	andb	$15, %cl
10000d68c: 0f b6 d1                    	movzbl	%cl, %edx
10000d68f: 0f b7 f2                    	movzwl	%dx, %esi
10000d692: 83 e6 01                    	andl	$1, %esi
10000d695: 83 fe 00                    	cmpl	$0, %esi
10000d698: 0f 84 32 00 00 00           	je	50 <_arguments_destructor+0x100>
10000d69e: 48 8b 45 e8                 	movq	-24(%rbp), %rax
10000d6a2: 48 89 45 f0                 	movq	%rax, -16(%rbp)
10000d6a6: 48 8b 45 e8                 	movq	-24(%rbp), %rax
10000d6aa: 48 8b 40 18                 	movq	24(%rax), %rax
10000d6ae: 48 89 45 e8                 	movq	%rax, -24(%rbp)
10000d6b2: 48 8b 45 f0                 	movq	-16(%rbp), %rax
10000d6b6: 48 05 10 00 00 00           	addq	$16, %rax
10000d6bc: 48 89 c7                    	movq	%rax, %rdi
10000d6bf: e8 0c ff ff ff              	callq	-244 <_arguments_destructor>
10000d6c4: 48 8b 45 f0                 	movq	-16(%rbp), %rax
10000d6c8: 48 89 c7                    	movq	%rax, %rdi
10000d6cb: e8 4c 1e 00 00              	callq	7756 <dyld_stub_binder+0x10000f51c>
10000d6d0: e9 00 00 00 00              	jmp	0 <_arguments_destructor+0x105>
10000d6d5: e9 18 ff ff ff              	jmp	-232 <_arguments_destructor+0x22>
10000d6da: 48 8b 45 f8                 	movq	-8(%rbp), %rax
10000d6de: 48 c7 00 00 00 00 00        	movq	$0, (%rax)
10000d6e5: 48 83 c4 20                 	addq	$32, %rsp
10000d6e9: 5d                          	popq	%rbp
10000d6ea: c3                          	retq
10000d6eb: 0f 1f 44 00 00              	nopl	(%rax,%rax)

000000010000d6f0 _str_to_arguments:
10000d6f0: 55                          	pushq	%rbp
10000d6f1: 48 89 e5                    	movq	%rsp, %rbp
10000d6f4: 48 89 7d f8                 	movq	%rdi, -8(%rbp)
10000d6f8: 48 c7 45 e8 00 00 00 00     	movq	$0, -24(%rbp)
10000d700: 48 8b 45 e8                 	movq	-24(%rbp), %rax
10000d704: 5d                          	popq	%rbp
10000d705: c3                          	retq
10000d706: 66 2e 0f 1f 84 00 00 00 00 00       	nopw	%cs:(%rax,%rax)

000000010000d710 _replace_arg:
10000d710: 55                          	pushq	%rbp
10000d711: 48 89 e5                    	movq	%rsp, %rbp
10000d714: 48 89 7d f8                 	movq	%rdi, -8(%rbp)
10000d718: 48 89 75 f0                 	movq	%rsi, -16(%rbp)
10000d71c: 48 89 55 e8                 	movq	%rdx, -24(%rbp)
10000d720: 48 83 7d e8 00              	cmpq	$0, -24(%rbp)
10000d725: 0f 85 05 00 00 00           	jne	5 <_replace_arg+0x20>
10000d72b: e9 cc 00 00 00              	jmp	204 <_replace_arg+0xec>
10000d730: 48 8b 45 f8                 	movq	-8(%rbp), %rax
10000d734: 48 8b 00                    	movq	(%rax), %rax
10000d737: 48 3b 45 f0                 	cmpq	-16(%rbp), %rax
10000d73b: 0f 85 46 00 00 00           	jne	70 <_replace_arg+0x77>
10000d741: 48 8b 45 f8                 	movq	-8(%rbp), %rax
10000d745: 48 8b 00                    	movq	(%rax), %rax
10000d748: 48 8b 40 18                 	movq	24(%rax), %rax
10000d74c: 48 89 45 e0                 	movq	%rax, -32(%rbp)
10000d750: 48 8b 45 e8                 	movq	-24(%rbp), %rax
10000d754: 48 8b 4d f8                 	movq	-8(%rbp), %rcx
10000d758: 48 89 01                    	movq	%rax, (%rcx)
10000d75b: 48 8b 45 e8                 	movq	-24(%rbp), %rax
10000d75f: 48 83 78 18 00              	cmpq	$0, 24(%rax)
10000d764: 0f 84 11 00 00 00           	je	17 <_replace_arg+0x6b>
10000d76a: 48 8b 45 e8                 	movq	-24(%rbp), %rax
10000d76e: 48 8b 40 18                 	movq	24(%rax), %rax
10000d772: 48 89 45 e8                 	movq	%rax, -24(%rbp)
10000d776: e9 e0 ff ff ff              	jmp	-32 <_replace_arg+0x4b>
10000d77b: 48 8b 45 e0                 	movq	-32(%rbp), %rax
10000d77f: 48 8b 4d e8                 	movq	-24(%rbp), %rcx
10000d783: 48 89 41 18                 	movq	%rax, 24(%rcx)
10000d787: 48 8b 45 f8                 	movq	-8(%rbp), %rax
10000d78b: 48 8b 00                    	movq	(%rax), %rax
10000d78e: 48 89 45 e0                 	movq	%rax, -32(%rbp)
10000d792: 48 83 7d e0 00              	cmpq	$0, -32(%rbp)
10000d797: 0f 84 5f 00 00 00           	je	95 <_replace_arg+0xec>
10000d79d: 48 8b 45 e0                 	movq	-32(%rbp), %rax
10000d7a1: 48 8b 40 18                 	movq	24(%rax), %rax
10000d7a5: 48 3b 45 f0                 	cmpq	-16(%rbp), %rax
10000d7a9: 0f 85 3c 00 00 00           	jne	60 <_replace_arg+0xdb>
10000d7af: 48 8b 45 e8                 	movq	-24(%rbp), %rax
10000d7b3: 48 8b 4d e0                 	movq	-32(%rbp), %rcx
10000d7b7: 48 89 41 18                 	movq	%rax, 24(%rcx)
10000d7bb: 48 8b 45 e8                 	movq	-24(%rbp), %rax
10000d7bf: 48 83 78 18 00              	cmpq	$0, 24(%rax)
10000d7c4: 0f 84 11 00 00 00           	je	17 <_replace_arg+0xcb>
10000d7ca: 48 8b 45 e8                 	movq	-24(%rbp), %rax
10000d7ce: 48 8b 40 18                 	movq	24(%rax), %rax
10000d7d2: 48 89 45 e8                 	movq	%rax, -24(%rbp)
10000d7d6: e9 e0 ff ff ff              	jmp	-32 <_replace_arg+0xab>
10000d7db: 48 8b 45 f0                 	movq	-16(%rbp), %rax
10000d7df: 48 8b 40 18                 	movq	24(%rax), %rax
10000d7e3: 48 8b 4d e8                 	movq	-24(%rbp), %rcx
10000d7e7: 48 89 41 18                 	movq	%rax, 24(%rcx)
10000d7eb: 48 8b 45 e0                 	movq	-32(%rbp), %rax
10000d7ef: 48 8b 40 18                 	movq	24(%rax), %rax
10000d7f3: 48 89 45 e0                 	movq	%rax, -32(%rbp)
10000d7f7: e9 96 ff ff ff              	jmp	-106 <_replace_arg+0x82>
10000d7fc: 5d                          	popq	%rbp
10000d7fd: c3                          	retq
10000d7fe: 66 90                       	nop

000000010000d800 _arguments_add_back:
10000d800: 55                          	pushq	%rbp
10000d801: 48 89 e5                    	movq	%rsp, %rbp
10000d804: 48 89 7d f8                 	movq	%rdi, -8(%rbp)
10000d808: 48 89 75 f0                 	movq	%rsi, -16(%rbp)
10000d80c: 48 8b 45 f8                 	movq	-8(%rbp), %rax
10000d810: 48 8b 00                    	movq	(%rax), %rax
10000d813: 48 89 45 e8                 	movq	%rax, -24(%rbp)
10000d817: 48 8b 45 f8                 	movq	-8(%rbp), %rax
10000d81b: 48 83 38 00                 	cmpq	$0, (%rax)
10000d81f: 0f 85 10 00 00 00           	jne	16 <_arguments_add_back+0x35>
10000d825: 48 8b 45 f0                 	movq	-16(%rbp), %rax
10000d829: 48 8b 4d f8                 	movq	-8(%rbp), %rcx
10000d82d: 48 89 01                    	movq	%rax, (%rcx)
10000d830: e9 31 00 00 00              	jmp	49 <_arguments_add_back+0x66>
10000d835: e9 00 00 00 00              	jmp	0 <_arguments_add_back+0x3a>
10000d83a: 48 8b 45 e8                 	movq	-24(%rbp), %rax
10000d83e: 48 83 78 18 00              	cmpq	$0, 24(%rax)
10000d843: 0f 84 11 00 00 00           	je	17 <_arguments_add_back+0x5a>
10000d849: 48 8b 45 e8                 	movq	-24(%rbp), %rax
10000d84d: 48 8b 40 18                 	movq	24(%rax), %rax
10000d851: 48 89 45 e8                 	movq	%rax, -24(%rbp)
10000d855: e9 e0 ff ff ff              	jmp	-32 <_arguments_add_back+0x3a>
10000d85a: 48 8b 45 f0                 	movq	-16(%rbp), %rax
10000d85e: 48 8b 4d e8                 	movq	-24(%rbp), %rcx
10000d862: 48 89 41 18                 	movq	%rax, 24(%rcx)
10000d866: 5d                          	popq	%rbp
10000d867: c3                          	retq
10000d868: 90                          	nop
10000d869: 90                          	nop
10000d86a: 90                          	nop
10000d86b: 90                          	nop
10000d86c: 90                          	nop
10000d86d: 90                          	nop
10000d86e: 90                          	nop
10000d86f: 90                          	nop

000000010000d870 _close_dquote:
10000d870: 55                          	pushq	%rbp
10000d871: 48 89 e5                    	movq	%rsp, %rbp
10000d874: 48 83 ec 30                 	subq	$48, %rsp
10000d878: 48 89 7d f8                 	movq	%rdi, -8(%rbp)
10000d87c: 48 89 75 f0                 	movq	%rsi, -16(%rbp)
10000d880: 89 55 ec                    	movl	%edx, -20(%rbp)
10000d883: 8a 45 e8                    	movb	-24(%rbp), %al
10000d886: 24 fd                       	andb	$-3, %al
10000d888: 0c 02                       	orb	$2, %al
10000d88a: 88 45 e8                    	movb	%al, -24(%rbp)
10000d88d: 8a 45 e8                    	movb	-24(%rbp), %al
10000d890: 24 fe                       	andb	$-2, %al
10000d892: 88 45 e8                    	movb	%al, -24(%rbp)
10000d895: c7 45 e4 00 00 00 00        	movl	$0, -28(%rbp)
10000d89c: 48 8b 45 f0                 	movq	-16(%rbp), %rax
10000d8a0: 8b 4d ec                    	movl	-20(%rbp), %ecx
10000d8a3: 03 4d e4                    	addl	-28(%rbp), %ecx
10000d8a6: 48 63 d1                    	movslq	%ecx, %rdx
10000d8a9: 80 3c 10 00                 	cmpb	$0, (%rax,%rdx)
10000d8ad: 0f 84 7c 00 00 00           	je	124 <_close_dquote+0xbf>
10000d8b3: 48 8b 45 f0                 	movq	-16(%rbp), %rax
10000d8b7: 8b 4d ec                    	movl	-20(%rbp), %ecx
10000d8ba: 03 4d e4                    	addl	-28(%rbp), %ecx
10000d8bd: 48 63 d1                    	movslq	%ecx, %rdx
10000d8c0: 0f be 3c 10                 	movsbl	(%rax,%rdx), %edi
10000d8c4: 48 8d 75 e8                 	leaq	-24(%rbp), %rsi
10000d8c8: e8 23 d0 ff ff              	callq	-12253 <_check_out_of_quotes>
10000d8cd: 44 8a 45 e8                 	movb	-24(%rbp), %r8b
10000d8d1: 41 c0 e8 01                 	shrb	$1, %r8b
10000d8d5: 41 80 e0 01                 	andb	$1, %r8b
10000d8d9: 41 0f b6 c8                 	movzbl	%r8b, %ecx
10000d8dd: 83 f9 00                    	cmpl	$0, %ecx
10000d8e0: 0f 85 3b 00 00 00           	jne	59 <_close_dquote+0xb1>
10000d8e6: 48 8b 45 f8                 	movq	-8(%rbp), %rax
10000d8ea: 48 8b 38                    	movq	(%rax), %rdi
10000d8ed: 48 8b 45 f0                 	movq	-16(%rbp), %rax
10000d8f1: 8b 75 ec                    	movl	-20(%rbp), %esi
10000d8f4: 48 63 55 e4                 	movslq	-28(%rbp), %rdx
10000d8f8: 48 89 7d d8                 	movq	%rdi, -40(%rbp)
10000d8fc: 48 89 c7                    	movq	%rax, %rdi
10000d8ff: e8 0c 14 00 00              	callq	5132 <_ft_substr>
10000d904: 48 8b 7d d8                 	movq	-40(%rbp), %rdi
10000d908: 48 89 c6                    	movq	%rax, %rsi
10000d90b: ba 08 00 00 00              	movl	$8, %edx
10000d910: e8 7b fb ff ff              	callq	-1157 <_arguments_constructor>
10000d915: 48 8b 4d f8                 	movq	-8(%rbp), %rcx
10000d919: 48 89 01                    	movq	%rax, (%rcx)
10000d91c: e9 0e 00 00 00              	jmp	14 <_close_dquote+0xbf>
10000d921: 8b 45 e4                    	movl	-28(%rbp), %eax
10000d924: 83 c0 01                    	addl	$1, %eax
10000d927: 89 45 e4                    	movl	%eax, -28(%rbp)
10000d92a: e9 6d ff ff ff              	jmp	-147 <_close_dquote+0x2c>
10000d92f: 8b 45 e4                    	movl	-28(%rbp), %eax
10000d932: 48 83 c4 30                 	addq	$48, %rsp
10000d936: 5d                          	popq	%rbp
10000d937: c3                          	retq
10000d938: 0f 1f 84 00 00 00 00 00     	nopl	(%rax,%rax)

000000010000d940 _close_quote:
10000d940: 55                          	pushq	%rbp
10000d941: 48 89 e5                    	movq	%rsp, %rbp
10000d944: 48 83 ec 30                 	subq	$48, %rsp
10000d948: 48 89 7d f8                 	movq	%rdi, -8(%rbp)
10000d94c: 48 89 75 f0                 	movq	%rsi, -16(%rbp)
10000d950: 89 55 ec                    	movl	%edx, -20(%rbp)
10000d953: 8a 45 e8                    	movb	-24(%rbp), %al
10000d956: 24 fd                       	andb	$-3, %al
10000d958: 88 45 e8                    	movb	%al, -24(%rbp)
10000d95b: 8a 45 e8                    	movb	-24(%rbp), %al
10000d95e: 24 fe                       	andb	$-2, %al
10000d960: 0c 01                       	orb	$1, %al
10000d962: 88 45 e8                    	movb	%al, -24(%rbp)
10000d965: c7 45 e4 00 00 00 00        	movl	$0, -28(%rbp)
10000d96c: 48 8b 45 f0                 	movq	-16(%rbp), %rax
10000d970: 8b 4d ec                    	movl	-20(%rbp), %ecx
10000d973: 03 4d e4                    	addl	-28(%rbp), %ecx
10000d976: 48 63 d1                    	movslq	%ecx, %rdx
10000d979: 80 3c 10 00                 	cmpb	$0, (%rax,%rdx)
10000d97d: 0f 84 78 00 00 00           	je	120 <_close_quote+0xbb>
10000d983: 48 8b 45 f0                 	movq	-16(%rbp), %rax
10000d987: 8b 4d ec                    	movl	-20(%rbp), %ecx
10000d98a: 03 4d e4                    	addl	-28(%rbp), %ecx
10000d98d: 48 63 d1                    	movslq	%ecx, %rdx
10000d990: 0f be 3c 10                 	movsbl	(%rax,%rdx), %edi
10000d994: 48 8d 75 e8                 	leaq	-24(%rbp), %rsi
10000d998: e8 53 cf ff ff              	callq	-12461 <_check_out_of_quotes>
10000d99d: 44 8a 45 e8                 	movb	-24(%rbp), %r8b
10000d9a1: 41 80 e0 01                 	andb	$1, %r8b
10000d9a5: 41 0f b6 c8                 	movzbl	%r8b, %ecx
10000d9a9: 83 f9 00                    	cmpl	$0, %ecx
10000d9ac: 0f 85 3b 00 00 00           	jne	59 <_close_quote+0xad>
10000d9b2: 48 8b 45 f8                 	movq	-8(%rbp), %rax
10000d9b6: 48 8b 38                    	movq	(%rax), %rdi
10000d9b9: 48 8b 45 f0                 	movq	-16(%rbp), %rax
10000d9bd: 8b 75 ec                    	movl	-20(%rbp), %esi
10000d9c0: 48 63 55 e4                 	movslq	-28(%rbp), %rdx
10000d9c4: 48 89 7d d8                 	movq	%rdi, -40(%rbp)
10000d9c8: 48 89 c7                    	movq	%rax, %rdi
10000d9cb: e8 40 13 00 00              	callq	4928 <_ft_substr>
10000d9d0: 48 8b 7d d8                 	movq	-40(%rbp), %rdi
10000d9d4: 48 89 c6                    	movq	%rax, %rsi
10000d9d7: ba 01 00 00 00              	movl	$1, %edx
10000d9dc: e8 af fa ff ff              	callq	-1361 <_arguments_constructor>
10000d9e1: 48 8b 4d f8                 	movq	-8(%rbp), %rcx
10000d9e5: 48 89 01                    	movq	%rax, (%rcx)
10000d9e8: e9 0e 00 00 00              	jmp	14 <_close_quote+0xbb>
10000d9ed: 8b 45 e4                    	movl	-28(%rbp), %eax
10000d9f0: 83 c0 01                    	addl	$1, %eax
10000d9f3: 89 45 e4                    	movl	%eax, -28(%rbp)
10000d9f6: e9 71 ff ff ff              	jmp	-143 <_close_quote+0x2c>
10000d9fb: 8b 45 e4                    	movl	-28(%rbp), %eax
10000d9fe: 48 83 c4 30                 	addq	$48, %rsp
10000da02: 5d                          	popq	%rbp
10000da03: c3                          	retq
10000da04: 66 2e 0f 1f 84 00 00 00 00 00       	nopw	%cs:(%rax,%rax)
10000da0e: 66 90                       	nop

000000010000da10 _get_arguments:
10000da10: 55                          	pushq	%rbp
10000da11: 48 89 e5                    	movq	%rsp, %rbp
10000da14: 48 83 ec 50                 	subq	$80, %rsp
10000da18: 48 89 7d f8                 	movq	%rdi, -8(%rbp)
10000da1c: 48 89 75 f0                 	movq	%rsi, -16(%rbp)
10000da20: 89 55 ec                    	movl	%edx, -20(%rbp)
10000da23: 48 8d 7d d8                 	leaq	-40(%rbp), %rdi
10000da27: e8 a4 ce ff ff              	callq	-12636 <_set_zero_var>
10000da2c: 48 c7 45 e0 00 00 00 00     	movq	$0, -32(%rbp)
10000da34: c7 45 d4 00 00 00 00        	movl	$0, -44(%rbp)
10000da3b: 48 8b 45 f8                 	movq	-8(%rbp), %rax
10000da3f: 48 8b 4d f0                 	movq	-16(%rbp), %rcx
10000da43: 8b 11                       	movl	(%rcx), %edx
10000da45: 03 55 d4                    	addl	-44(%rbp), %edx
10000da48: 48 63 ca                    	movslq	%edx, %rcx
10000da4b: 80 3c 08 00                 	cmpb	$0, (%rax,%rcx)
10000da4f: 0f 84 cc 01 00 00           	je	460 <_get_arguments+0x211>
10000da55: 48 8b 45 f8                 	movq	-8(%rbp), %rax
10000da59: 48 8b 4d f0                 	movq	-16(%rbp), %rcx
10000da5d: 8b 11                       	movl	(%rcx), %edx
10000da5f: 03 55 d4                    	addl	-44(%rbp), %edx
10000da62: 48 63 ca                    	movslq	%edx, %rcx
10000da65: 0f be 3c 08                 	movsbl	(%rax,%rcx), %edi
10000da69: 48 8d 75 d8                 	leaq	-40(%rbp), %rsi
10000da6d: e8 7e ce ff ff              	callq	-12674 <_check_out_of_quotes>
10000da72: 44 8a 45 d8                 	movb	-40(%rbp), %r8b
10000da76: 41 c0 e8 01                 	shrb	$1, %r8b
10000da7a: 41 80 e0 01                 	andb	$1, %r8b
10000da7e: 41 0f b6 d0                 	movzbl	%r8b, %edx
10000da82: 83 fa 00                    	cmpl	$0, %edx
10000da85: 0f 84 9e 00 00 00           	je	158 <_get_arguments+0x119>
10000da8b: 48 8b 45 f8                 	movq	-8(%rbp), %rax
10000da8f: 48 8b 4d f0                 	movq	-16(%rbp), %rcx
10000da93: 8b 11                       	movl	(%rcx), %edx
10000da95: 03 55 d4                    	addl	-44(%rbp), %edx
10000da98: 48 63 ca                    	movslq	%edx, %rcx
10000da9b: 0f be 14 08                 	movsbl	(%rax,%rcx), %edx
10000da9f: 83 fa 22                    	cmpl	$34, %edx
10000daa2: 0f 85 81 00 00 00           	jne	129 <_get_arguments+0x119>
10000daa8: 83 7d d4 00                 	cmpl	$0, -44(%rbp)
10000daac: 0f 84 33 00 00 00           	je	51 <_get_arguments+0xd5>
10000dab2: 48 8b 7d e0                 	movq	-32(%rbp), %rdi
10000dab6: 48 8b 45 f8                 	movq	-8(%rbp), %rax
10000daba: 48 8b 4d f0                 	movq	-16(%rbp), %rcx
10000dabe: 8b 31                       	movl	(%rcx), %esi
10000dac0: 48 63 55 d4                 	movslq	-44(%rbp), %rdx
10000dac4: 48 89 7d c8                 	movq	%rdi, -56(%rbp)
10000dac8: 48 89 c7                    	movq	%rax, %rdi
10000dacb: e8 40 12 00 00              	callq	4672 <_ft_substr>
10000dad0: 48 8b 7d c8                 	movq	-56(%rbp), %rdi
10000dad4: 48 89 c6                    	movq	%rax, %rsi
10000dad7: ba 02 00 00 00              	movl	$2, %edx
10000dadc: e8 af f9 ff ff              	callq	-1617 <_arguments_constructor>
10000dae1: 48 89 45 e0                 	movq	%rax, -32(%rbp)
10000dae5: 8b 45 d4                    	movl	-44(%rbp), %eax
10000dae8: 83 c0 01                    	addl	$1, %eax
10000daeb: 48 8b 4d f0                 	movq	-16(%rbp), %rcx
10000daef: 03 01                       	addl	(%rcx), %eax
10000daf1: 89 01                       	movl	%eax, (%rcx)
10000daf3: 48 8b 75 f8                 	movq	-8(%rbp), %rsi
10000daf7: 48 8b 4d f0                 	movq	-16(%rbp), %rcx
10000dafb: 8b 11                       	movl	(%rcx), %edx
10000dafd: 48 8d 7d e0                 	leaq	-32(%rbp), %rdi
10000db01: e8 6a fd ff ff              	callq	-662 <_close_dquote>
10000db06: 83 c0 01                    	addl	$1, %eax
10000db09: 48 8b 4d f0                 	movq	-16(%rbp), %rcx
10000db0d: 03 01                       	addl	(%rcx), %eax
10000db0f: 89 01                       	movl	%eax, (%rcx)
10000db11: 44 8a 45 d8                 	movb	-40(%rbp), %r8b
10000db15: 41 80 e0 fd                 	andb	$-3, %r8b
10000db19: 44 88 45 d8                 	movb	%r8b, -40(%rbp)
10000db1d: c7 45 d4 00 00 00 00        	movl	$0, -44(%rbp)
10000db24: e9 12 ff ff ff              	jmp	-238 <_get_arguments+0x2b>
10000db29: 8a 45 d8                    	movb	-40(%rbp), %al
10000db2c: 24 01                       	andb	$1, %al
10000db2e: 0f b6 c8                    	movzbl	%al, %ecx
10000db31: 83 f9 00                    	cmpl	$0, %ecx
10000db34: 0f 84 9e 00 00 00           	je	158 <_get_arguments+0x1c8>
10000db3a: 48 8b 45 f8                 	movq	-8(%rbp), %rax
10000db3e: 48 8b 4d f0                 	movq	-16(%rbp), %rcx
10000db42: 8b 11                       	movl	(%rcx), %edx
10000db44: 03 55 d4                    	addl	-44(%rbp), %edx
10000db47: 48 63 ca                    	movslq	%edx, %rcx
10000db4a: 0f be 14 08                 	movsbl	(%rax,%rcx), %edx
10000db4e: 83 fa 27                    	cmpl	$39, %edx
10000db51: 0f 85 81 00 00 00           	jne	129 <_get_arguments+0x1c8>
10000db57: 83 7d d4 00                 	cmpl	$0, -44(%rbp)
10000db5b: 0f 84 33 00 00 00           	je	51 <_get_arguments+0x184>
10000db61: 48 8b 7d e0                 	movq	-32(%rbp), %rdi
10000db65: 48 8b 45 f8                 	movq	-8(%rbp), %rax
10000db69: 48 8b 4d f0                 	movq	-16(%rbp), %rcx
10000db6d: 8b 31                       	movl	(%rcx), %esi
10000db6f: 48 63 55 d4                 	movslq	-44(%rbp), %rdx
10000db73: 48 89 7d c0                 	movq	%rdi, -64(%rbp)
10000db77: 48 89 c7                    	movq	%rax, %rdi
10000db7a: e8 91 11 00 00              	callq	4497 <_ft_substr>
10000db7f: 48 8b 7d c0                 	movq	-64(%rbp), %rdi
10000db83: 48 89 c6                    	movq	%rax, %rsi
10000db86: ba 02 00 00 00              	movl	$2, %edx
10000db8b: e8 00 f9 ff ff              	callq	-1792 <_arguments_constructor>
10000db90: 48 89 45 e0                 	movq	%rax, -32(%rbp)
10000db94: 8b 45 d4                    	movl	-44(%rbp), %eax
10000db97: 83 c0 01                    	addl	$1, %eax
10000db9a: 48 8b 4d f0                 	movq	-16(%rbp), %rcx
10000db9e: 03 01                       	addl	(%rcx), %eax
10000dba0: 89 01                       	movl	%eax, (%rcx)
10000dba2: 48 8b 75 f8                 	movq	-8(%rbp), %rsi
10000dba6: 48 8b 4d f0                 	movq	-16(%rbp), %rcx
10000dbaa: 8b 11                       	movl	(%rcx), %edx
10000dbac: 48 8d 7d e0                 	leaq	-32(%rbp), %rdi
10000dbb0: e8 8b fd ff ff              	callq	-629 <_close_quote>
10000dbb5: 83 c0 01                    	addl	$1, %eax
10000dbb8: 48 8b 4d f0                 	movq	-16(%rbp), %rcx
10000dbbc: 03 01                       	addl	(%rcx), %eax
10000dbbe: 89 01                       	movl	%eax, (%rcx)
10000dbc0: 44 8a 45 d8                 	movb	-40(%rbp), %r8b
10000dbc4: 41 80 e0 fe                 	andb	$-2, %r8b
10000dbc8: 44 88 45 d8                 	movb	%r8b, -40(%rbp)
10000dbcc: c7 45 d4 00 00 00 00        	movl	$0, -44(%rbp)
10000dbd3: e9 63 fe ff ff              	jmp	-413 <_get_arguments+0x2b>
10000dbd8: 48 8b 45 f8                 	movq	-8(%rbp), %rax
10000dbdc: 48 8b 4d f0                 	movq	-16(%rbp), %rcx
10000dbe0: 8b 11                       	movl	(%rcx), %edx
10000dbe2: 03 55 d4                    	addl	-44(%rbp), %edx
10000dbe5: 48 63 ca                    	movslq	%edx, %rcx
10000dbe8: 0f be 3c 08                 	movsbl	(%rax,%rcx), %edi
10000dbec: e8 8f 0c 00 00              	callq	3215 <_ft_isspace>
10000dbf1: 83 f8 00                    	cmpl	$0, %eax
10000dbf4: 0f 84 0f 00 00 00           	je	15 <_get_arguments+0x1f9>
10000dbfa: 83 7d ec 00                 	cmpl	$0, -20(%rbp)
10000dbfe: 0f 84 05 00 00 00           	je	5 <_get_arguments+0x1f9>
10000dc04: e9 18 00 00 00              	jmp	24 <_get_arguments+0x211>
10000dc09: e9 00 00 00 00              	jmp	0 <_get_arguments+0x1fe>
10000dc0e: e9 00 00 00 00              	jmp	0 <_get_arguments+0x203>
10000dc13: 8b 45 d4                    	movl	-44(%rbp), %eax
10000dc16: 83 c0 01                    	addl	$1, %eax
10000dc19: 89 45 d4                    	movl	%eax, -44(%rbp)
10000dc1c: e9 1a fe ff ff              	jmp	-486 <_get_arguments+0x2b>
10000dc21: 83 7d d4 00                 	cmpl	$0, -44(%rbp)
10000dc25: 0f 84 3e 00 00 00           	je	62 <_get_arguments+0x259>
10000dc2b: 48 8b 7d e0                 	movq	-32(%rbp), %rdi
10000dc2f: 48 8b 45 f8                 	movq	-8(%rbp), %rax
10000dc33: 48 8b 4d f0                 	movq	-16(%rbp), %rcx
10000dc37: 8b 31                       	movl	(%rcx), %esi
10000dc39: 48 63 55 d4                 	movslq	-44(%rbp), %rdx
10000dc3d: 48 89 7d b8                 	movq	%rdi, -72(%rbp)
10000dc41: 48 89 c7                    	movq	%rax, %rdi
10000dc44: e8 c7 10 00 00              	callq	4295 <_ft_substr>
10000dc49: 48 8b 7d b8                 	movq	-72(%rbp), %rdi
10000dc4d: 48 89 c6                    	movq	%rax, %rsi
10000dc50: ba 02 00 00 00              	movl	$2, %edx
10000dc55: e8 36 f8 ff ff              	callq	-1994 <_arguments_constructor>
10000dc5a: 48 89 45 e0                 	movq	%rax, -32(%rbp)
10000dc5e: 8b 55 d4                    	movl	-44(%rbp), %edx
10000dc61: 48 8b 45 f0                 	movq	-16(%rbp), %rax
10000dc65: 03 10                       	addl	(%rax), %edx
10000dc67: 89 10                       	movl	%edx, (%rax)
10000dc69: 48 8b 45 e0                 	movq	-32(%rbp), %rax
10000dc6d: 48 83 c4 50                 	addq	$80, %rsp
10000dc71: 5d                          	popq	%rbp
10000dc72: c3                          	retq
10000dc73: 66 2e 0f 1f 84 00 00 00 00 00       	nopw	%cs:(%rax,%rax)
10000dc7d: 0f 1f 00                    	nopl	(%rax)

000000010000dc80 _merge_arguments:
10000dc80: 55                          	pushq	%rbp
10000dc81: 48 89 e5                    	movq	%rsp, %rbp
10000dc84: 48 83 ec 20                 	subq	$32, %rsp
10000dc88: 48 89 7d f8                 	movq	%rdi, -8(%rbp)
10000dc8c: 89 75 f4                    	movl	%esi, -12(%rbp)
10000dc8f: 48 8b 45 f8                 	movq	-8(%rbp), %rax
10000dc93: 48 83 38 00                 	cmpq	$0, (%rax)
10000dc97: 0f 85 05 00 00 00           	jne	5 <_merge_arguments+0x22>
10000dc9d: e9 ac 00 00 00              	jmp	172 <_merge_arguments+0xce>
10000dca2: 48 c7 45 e0 00 00 00 00     	movq	$0, -32(%rbp)
10000dcaa: 48 8b 45 f8                 	movq	-8(%rbp), %rax
10000dcae: 48 8b 00                    	movq	(%rax), %rax
10000dcb1: 48 89 45 e8                 	movq	%rax, -24(%rbp)
10000dcb5: 48 83 7d e8 00              	cmpq	$0, -24(%rbp)
10000dcba: 0f 84 8e 00 00 00           	je	142 <_merge_arguments+0xce>
10000dcc0: 48 8b 45 e8                 	movq	-24(%rbp), %rax
10000dcc4: 8a 48 08                    	movb	8(%rax), %cl
10000dcc7: 80 e1 0f                    	andb	$15, %cl
10000dcca: 0f b6 d1                    	movzbl	%cl, %edx
10000dccd: 0f b7 f2                    	movzwl	%dx, %esi
10000dcd0: 83 e6 02                    	andl	$2, %esi
10000dcd3: 83 fe 00                    	cmpl	$0, %esi
10000dcd6: 0f 84 29 00 00 00           	je	41 <_merge_arguments+0x85>
10000dcdc: 48 8b 45 e8                 	movq	-24(%rbp), %rax
10000dce0: 48 8b 38                    	movq	(%rax), %rdi
10000dce3: 8b 75 f4                    	movl	-12(%rbp), %esi
10000dce6: e8 f5 08 00 00              	callq	2293 <_ft_split_str_to_args>
10000dceb: 48 89 45 e0                 	movq	%rax, -32(%rbp)
10000dcef: 48 8b 7d f8                 	movq	-8(%rbp), %rdi
10000dcf3: 48 8b 75 e8                 	movq	-24(%rbp), %rsi
10000dcf7: 48 8b 55 e0                 	movq	-32(%rbp), %rdx
10000dcfb: e8 10 fa ff ff              	callq	-1520 <_replace_arg>
10000dd00: e9 38 00 00 00              	jmp	56 <_merge_arguments+0xbd>
10000dd05: 48 8b 45 e8                 	movq	-24(%rbp), %rax
10000dd09: 8a 48 08                    	movb	8(%rax), %cl
10000dd0c: 80 e1 0f                    	andb	$15, %cl
10000dd0f: 0f b6 d1                    	movzbl	%cl, %edx
10000dd12: 0f b7 f2                    	movzwl	%dx, %esi
10000dd15: 83 e6 08                    	andl	$8, %esi
10000dd18: 83 fe 00                    	cmpl	$0, %esi
10000dd1b: 0f 84 17 00 00 00           	je	23 <_merge_arguments+0xb8>
10000dd21: 48 8b 45 e8                 	movq	-24(%rbp), %rax
10000dd25: 48 05 10 00 00 00           	addq	$16, %rax
10000dd2b: 48 89 c7                    	movq	%rax, %rdi
10000dd2e: be 01 00 00 00              	movl	$1, %esi
10000dd33: e8 48 ff ff ff              	callq	-184 <_merge_arguments>
10000dd38: e9 00 00 00 00              	jmp	0 <_merge_arguments+0xbd>
10000dd3d: 48 8b 45 e8                 	movq	-24(%rbp), %rax
10000dd41: 48 8b 40 18                 	movq	24(%rax), %rax
10000dd45: 48 89 45 e8                 	movq	%rax, -24(%rbp)
10000dd49: e9 67 ff ff ff              	jmp	-153 <_merge_arguments+0x35>
10000dd4e: 48 83 c4 20                 	addq	$32, %rsp
10000dd52: 5d                          	popq	%rbp
10000dd53: c3                          	retq
10000dd54: 66 2e 0f 1f 84 00 00 00 00 00       	nopw	%cs:(%rax,%rax)
10000dd5e: 66 90                       	nop

000000010000dd60 _get_argument:
10000dd60: 55                          	pushq	%rbp
10000dd61: 48 89 e5                    	movq	%rsp, %rbp
10000dd64: 48 83 ec 20                 	subq	$32, %rsp
10000dd68: 48 89 7d f8                 	movq	%rdi, -8(%rbp)
10000dd6c: 48 89 75 f0                 	movq	%rsi, -16(%rbp)
10000dd70: 89 55 ec                    	movl	%edx, -20(%rbp)
10000dd73: 89 4d e8                    	movl	%ecx, -24(%rbp)
10000dd76: 48 c7 45 e0 00 00 00 00     	movq	$0, -32(%rbp)
10000dd7e: 83 7d e8 00                 	cmpl	$0, -24(%rbp)
10000dd82: 0f 84 19 00 00 00           	je	25 <_get_argument+0x41>
10000dd88: 48 8b 7d f8                 	movq	-8(%rbp), %rdi
10000dd8c: 48 8b 75 f0                 	movq	-16(%rbp), %rsi
10000dd90: 8b 55 e8                    	movl	-24(%rbp), %edx
10000dd93: e8 78 fc ff ff              	callq	-904 <_get_arguments>
10000dd98: 48 89 45 e0                 	movq	%rax, -32(%rbp)
10000dd9c: e9 14 00 00 00              	jmp	20 <_get_argument+0x55>
10000dda1: 48 8b 7d f8                 	movq	-8(%rbp), %rdi
10000dda5: 8b 55 e8                    	movl	-24(%rbp), %edx
10000dda8: 48 8d 75 ec                 	leaq	-20(%rbp), %rsi
10000ddac: e8 5f fc ff ff              	callq	-929 <_get_arguments>
10000ddb1: 48 89 45 e0                 	movq	%rax, -32(%rbp)
10000ddb5: 31 f6                       	xorl	%esi, %esi
10000ddb7: 48 8d 7d e0                 	leaq	-32(%rbp), %rdi
10000ddbb: e8 c0 fe ff ff              	callq	-320 <_merge_arguments>
10000ddc0: 48 8b 45 e0                 	movq	-32(%rbp), %rax
10000ddc4: 48 83 c4 20                 	addq	$32, %rsp
10000ddc8: 5d                          	popq	%rbp
10000ddc9: c3                          	retq
10000ddca: 90                          	nop
10000ddcb: 90                          	nop
10000ddcc: 90                          	nop
10000ddcd: 90                          	nop
10000ddce: 90                          	nop
10000ddcf: 90                          	nop

000000010000ddd0 _check_str:
10000ddd0: 55                          	pushq	%rbp
10000ddd1: 48 89 e5                    	movq	%rsp, %rbp
10000ddd4: 48 83 ec 30                 	subq	$48, %rsp
10000ddd8: 48 89 7d f8                 	movq	%rdi, -8(%rbp)
10000dddc: 48 89 75 f0                 	movq	%rsi, -16(%rbp)
10000dde0: 48 89 55 e8                 	movq	%rdx, -24(%rbp)
10000dde4: 48 8b 45 e8                 	movq	-24(%rbp), %rax
10000dde8: c7 00 00 00 00 00           	movl	$0, (%rax)
10000ddee: 31 c0                       	xorl	%eax, %eax
10000ddf0: 48 8b 4d f8                 	movq	-8(%rbp), %rcx
10000ddf4: 48 8b 55 e8                 	movq	-24(%rbp), %rdx
10000ddf8: 48 63 12                    	movslq	(%rdx), %rdx
10000ddfb: 0f be 34 11                 	movsbl	(%rcx,%rdx), %esi
10000ddff: 83 fe 00                    	cmpl	$0, %esi
10000de02: 88 45 e7                    	movb	%al, -25(%rbp)
10000de05: 0f 84 c0 00 00 00           	je	192 <_check_str+0xfb>
10000de0b: 48 8b 45 f8                 	movq	-8(%rbp), %rax
10000de0f: 48 8b 4d e8                 	movq	-24(%rbp), %rcx
10000de13: 48 63 09                    	movslq	(%rcx), %rcx
10000de16: 0f be 14 08                 	movsbl	(%rax,%rcx), %edx
10000de1a: 83 fa 24                    	cmpl	$36, %edx
10000de1d: 40 b6 01                    	movb	$1, %sil
10000de20: 40 88 75 e6                 	movb	%sil, -26(%rbp)
10000de24: 0f 85 9b 00 00 00           	jne	155 <_check_str+0xf5>
10000de2a: 31 c0                       	xorl	%eax, %eax
10000de2c: 48 8b 4d f8                 	movq	-8(%rbp), %rcx
10000de30: 48 8b 55 e8                 	movq	-24(%rbp), %rdx
10000de34: 48 63 12                    	movslq	(%rdx), %rdx
10000de37: 0f be 34 11                 	movsbl	(%rcx,%rdx), %esi
10000de3b: 83 fe 24                    	cmpl	$36, %esi
10000de3e: 88 45 e5                    	movb	%al, -27(%rbp)
10000de41: 0f 85 78 00 00 00           	jne	120 <_check_str+0xef>
10000de47: 48 8b 45 f8                 	movq	-8(%rbp), %rax
10000de4b: 48 8b 4d e8                 	movq	-24(%rbp), %rcx
10000de4f: 8b 11                       	movl	(%rcx), %edx
10000de51: 83 c2 01                    	addl	$1, %edx
10000de54: 48 63 ca                    	movslq	%edx, %rcx
10000de57: 0f be 3c 08                 	movsbl	(%rax,%rcx), %edi
10000de5b: e8 f0 09 00 00              	callq	2544 <_ft_isdigit>
10000de60: 83 f8 00                    	cmpl	$0, %eax
10000de63: 40 b6 01                    	movb	$1, %sil
10000de66: 40 88 75 e4                 	movb	%sil, -28(%rbp)
10000de6a: 0f 85 49 00 00 00           	jne	73 <_check_str+0xe9>
10000de70: 48 8b 45 f8                 	movq	-8(%rbp), %rax
10000de74: 48 8b 4d e8                 	movq	-24(%rbp), %rcx
10000de78: 8b 11                       	movl	(%rcx), %edx
10000de7a: 83 c2 01                    	addl	$1, %edx
10000de7d: 48 63 ca                    	movslq	%edx, %rcx
10000de80: 0f be 3c 08                 	movsbl	(%rax,%rcx), %edi
10000de84: e8 97 af ff ff              	callq	-20585 <_ft_isvariable>
10000de89: 83 f8 00                    	cmpl	$0, %eax
10000de8c: 40 b6 01                    	movb	$1, %sil
10000de8f: 40 88 75 e4                 	movb	%sil, -28(%rbp)
10000de93: 0f 84 20 00 00 00           	je	32 <_check_str+0xe9>
10000de99: 48 8b 45 f8                 	movq	-8(%rbp), %rax
10000de9d: 48 8b 4d e8                 	movq	-24(%rbp), %rcx
10000dea1: 8b 11                       	movl	(%rcx), %edx
10000dea3: 83 c2 01                    	addl	$1, %edx
10000dea6: 48 63 ca                    	movslq	%edx, %rcx
10000dea9: 80 3c 08 00                 	cmpb	$0, (%rax,%rcx)
10000dead: 40 0f 95 c6                 	setne	%sil
10000deb1: 40 80 f6 ff                 	xorb	$-1, %sil
10000deb5: 40 88 75 e4                 	movb	%sil, -28(%rbp)
10000deb9: 8a 45 e4                    	movb	-28(%rbp), %al
10000debc: 88 45 e5                    	movb	%al, -27(%rbp)
10000debf: 8a 45 e5                    	movb	-27(%rbp), %al
10000dec2: 88 45 e6                    	movb	%al, -26(%rbp)
10000dec5: 8a 45 e6                    	movb	-26(%rbp), %al
10000dec8: 88 45 e7                    	movb	%al, -25(%rbp)
10000decb: 8a 45 e7                    	movb	-25(%rbp), %al
10000dece: a8 01                       	testb	$1, %al
10000ded0: 0f 85 05 00 00 00           	jne	5 <_check_str+0x10b>
10000ded6: e9 10 00 00 00              	jmp	16 <_check_str+0x11b>
10000dedb: 48 8b 45 e8                 	movq	-24(%rbp), %rax
10000dedf: 8b 08                       	movl	(%rax), %ecx
10000dee1: 83 c1 01                    	addl	$1, %ecx
10000dee4: 89 08                       	movl	%ecx, (%rax)
10000dee6: e9 03 ff ff ff              	jmp	-253 <_check_str+0x1e>
10000deeb: 48 8b 45 e8                 	movq	-24(%rbp), %rax
10000deef: 83 38 00                    	cmpl	$0, (%rax)
10000def2: 0f 84 32 00 00 00           	je	50 <_check_str+0x15a>
10000def8: 31 f6                       	xorl	%esi, %esi
10000defa: 48 8b 7d f0                 	movq	-16(%rbp), %rdi
10000defe: 48 8b 45 f8                 	movq	-8(%rbp), %rax
10000df02: 48 8b 4d e8                 	movq	-24(%rbp), %rcx
10000df06: 48 63 11                    	movslq	(%rcx), %rdx
10000df09: 48 89 7d d8                 	movq	%rdi, -40(%rbp)
10000df0d: 48 89 c7                    	movq	%rax, %rdi
10000df10: e8 fb 0d 00 00              	callq	3579 <_ft_substr>
10000df15: 48 8b 7d d8                 	movq	-40(%rbp), %rdi
10000df19: 48 89 c6                    	movq	%rax, %rsi
10000df1c: ba 02 00 00 00              	movl	$2, %edx
10000df21: e8 6a f5 ff ff              	callq	-2710 <_arguments_constructor>
10000df26: 48 89 45 f0                 	movq	%rax, -16(%rbp)
10000df2a: 48 8b 45 f0                 	movq	-16(%rbp), %rax
10000df2e: 48 83 c4 30                 	addq	$48, %rsp
10000df32: 5d                          	popq	%rbp
10000df33: c3                          	retq
10000df34: 66 2e 0f 1f 84 00 00 00 00 00       	nopw	%cs:(%rax,%rax)
10000df3e: 66 90                       	nop

000000010000df40 _get_vars:
10000df40: 55                          	pushq	%rbp
10000df41: 48 89 e5                    	movq	%rsp, %rbp
10000df44: 48 83 ec 20                 	subq	$32, %rsp
10000df48: 48 89 7d f8                 	movq	%rdi, -8(%rbp)
10000df4c: 48 89 75 f0                 	movq	%rsi, -16(%rbp)
10000df50: 48 8b 7d f8                 	movq	-8(%rbp), %rdi
10000df54: 48 8b 75 f0                 	movq	-16(%rbp), %rsi
10000df58: 48 8d 55 ec                 	leaq	-20(%rbp), %rdx
10000df5c: e8 6f fe ff ff              	callq	-401 <_check_str>
10000df61: 48 89 45 f0                 	movq	%rax, -16(%rbp)
10000df65: 48 8b 45 f8                 	movq	-8(%rbp), %rax
10000df69: 48 63 4d ec                 	movslq	-20(%rbp), %rcx
10000df6d: 80 3c 08 00                 	cmpb	$0, (%rax,%rcx)
10000df71: 0f 84 35 01 00 00           	je	309 <_get_vars+0x16c>
10000df77: 48 8b 45 f8                 	movq	-8(%rbp), %rax
10000df7b: 48 63 4d ec                 	movslq	-20(%rbp), %rcx
10000df7f: 0f be 14 08                 	movsbl	(%rax,%rcx), %edx
10000df83: 83 fa 24                    	cmpl	$36, %edx
10000df86: 0f 85 fb 00 00 00           	jne	251 <_get_vars+0x147>
10000df8c: 48 8b 45 f8                 	movq	-8(%rbp), %rax
10000df90: 48 63 4d ec                 	movslq	-20(%rbp), %rcx
10000df94: 0f be 14 08                 	movsbl	(%rax,%rcx), %edx
10000df98: 83 fa 24                    	cmpl	$36, %edx
10000df9b: 0f 85 e6 00 00 00           	jne	230 <_get_vars+0x147>
10000dfa1: 48 8b 45 f8                 	movq	-8(%rbp), %rax
10000dfa5: 48 63 4d ec                 	movslq	-20(%rbp), %rcx
10000dfa9: 0f be 14 08                 	movsbl	(%rax,%rcx), %edx
10000dfad: 83 fa 24                    	cmpl	$36, %edx
10000dfb0: 0f 85 55 00 00 00           	jne	85 <_get_vars+0xcb>
10000dfb6: 48 8b 45 f8                 	movq	-8(%rbp), %rax
10000dfba: 8b 4d ec                    	movl	-20(%rbp), %ecx
10000dfbd: 83 c1 01                    	addl	$1, %ecx
10000dfc0: 48 63 d1                    	movslq	%ecx, %rdx
10000dfc3: 0f be 3c 10                 	movsbl	(%rax,%rdx), %edi
10000dfc7: e8 84 08 00 00              	callq	2180 <_ft_isdigit>
10000dfcc: 83 f8 00                    	cmpl	$0, %eax
10000dfcf: 0f 85 b2 00 00 00           	jne	178 <_get_vars+0x147>
10000dfd5: 48 8b 45 f8                 	movq	-8(%rbp), %rax
10000dfd9: 8b 4d ec                    	movl	-20(%rbp), %ecx
10000dfdc: 83 c1 01                    	addl	$1, %ecx
10000dfdf: 48 63 d1                    	movslq	%ecx, %rdx
10000dfe2: 0f be 3c 10                 	movsbl	(%rax,%rdx), %edi
10000dfe6: e8 35 ae ff ff              	callq	-20939 <_ft_isvariable>
10000dfeb: 83 f8 00                    	cmpl	$0, %eax
10000dfee: 0f 84 93 00 00 00           	je	147 <_get_vars+0x147>
10000dff4: 48 8b 45 f8                 	movq	-8(%rbp), %rax
10000dff8: 8b 4d ec                    	movl	-20(%rbp), %ecx
10000dffb: 83 c1 01                    	addl	$1, %ecx
10000dffe: 48 63 d1                    	movslq	%ecx, %rdx
10000e001: 80 3c 10 00                 	cmpb	$0, (%rax,%rdx)
10000e005: 0f 84 7c 00 00 00           	je	124 <_get_vars+0x147>
10000e00b: c7 45 e8 01 00 00 00        	movl	$1, -24(%rbp)
10000e012: 48 8b 45 f8                 	movq	-8(%rbp), %rax
10000e016: 8b 4d ec                    	movl	-20(%rbp), %ecx
10000e019: 03 4d e8                    	addl	-24(%rbp), %ecx
10000e01c: 48 63 d1                    	movslq	%ecx, %rdx
10000e01f: 0f be 3c 10                 	movsbl	(%rax,%rdx), %edi
10000e023: e8 f8 ad ff ff              	callq	-21000 <_ft_isvariable>
10000e028: 83 f8 00                    	cmpl	$0, %eax
10000e02b: 0f 84 0e 00 00 00           	je	14 <_get_vars+0xff>
10000e031: 8b 45 e8                    	movl	-24(%rbp), %eax
10000e034: 83 c0 01                    	addl	$1, %eax
10000e037: 89 45 e8                    	movl	%eax, -24(%rbp)
10000e03a: e9 d3 ff ff ff              	jmp	-45 <_get_vars+0xd2>
10000e03f: 83 7d e8 01                 	cmpl	$1, -24(%rbp)
10000e043: 0f 8e 30 00 00 00           	jle	48 <_get_vars+0x139>
10000e049: 48 8b 7d f0                 	movq	-16(%rbp), %rdi
10000e04d: 48 8b 45 f8                 	movq	-8(%rbp), %rax
10000e051: 8b 75 ec                    	movl	-20(%rbp), %esi
10000e054: 48 63 55 e8                 	movslq	-24(%rbp), %rdx
10000e058: 48 89 7d e0                 	movq	%rdi, -32(%rbp)
10000e05c: 48 89 c7                    	movq	%rax, %rdi
10000e05f: e8 ac 0c 00 00              	callq	3244 <_ft_substr>
10000e064: 48 8b 7d e0                 	movq	-32(%rbp), %rdi
10000e068: 48 89 c6                    	movq	%rax, %rsi
10000e06b: ba 04 00 00 00              	movl	$4, %edx
10000e070: e8 1b f4 ff ff              	callq	-3045 <_arguments_constructor>
10000e075: 48 89 45 f0                 	movq	%rax, -16(%rbp)
10000e079: 8b 45 e8                    	movl	-24(%rbp), %eax
10000e07c: 03 45 ec                    	addl	-20(%rbp), %eax
10000e07f: 89 45 ec                    	movl	%eax, -20(%rbp)
10000e082: e9 20 00 00 00              	jmp	32 <_get_vars+0x167>
10000e087: 48 8b 45 f8                 	movq	-8(%rbp), %rax
10000e08b: 48 63 4d ec                 	movslq	-20(%rbp), %rcx
10000e08f: 48 01 c8                    	addq	%rcx, %rax
10000e092: 48 8b 75 f0                 	movq	-16(%rbp), %rsi
10000e096: 48 89 c7                    	movq	%rax, %rdi
10000e099: e8 a2 fe ff ff              	callq	-350 <_get_vars>
10000e09e: 48 89 45 f0                 	movq	%rax, -16(%rbp)
10000e0a2: e9 05 00 00 00              	jmp	5 <_get_vars+0x16c>
10000e0a7: e9 b9 fe ff ff              	jmp	-327 <_get_vars+0x25>
10000e0ac: 48 8b 45 f0                 	movq	-16(%rbp), %rax
10000e0b0: 48 83 c4 20                 	addq	$32, %rsp
10000e0b4: 5d                          	popq	%rbp
10000e0b5: c3                          	retq
10000e0b6: 66 2e 0f 1f 84 00 00 00 00 00       	nopw	%cs:(%rax,%rax)

000000010000e0c0 _tokenize_variables:
10000e0c0: 55                          	pushq	%rbp
10000e0c1: 48 89 e5                    	movq	%rsp, %rbp
10000e0c4: 48 83 ec 20                 	subq	$32, %rsp
10000e0c8: 48 89 7d f8                 	movq	%rdi, -8(%rbp)
10000e0cc: 48 c7 45 e8 00 00 00 00     	movq	$0, -24(%rbp)
10000e0d4: 48 8b 45 f8                 	movq	-8(%rbp), %rax
10000e0d8: 48 8b 00                    	movq	(%rax), %rax
10000e0db: 48 89 45 f0                 	movq	%rax, -16(%rbp)
10000e0df: 48 83 7d f0 00              	cmpq	$0, -16(%rbp)
10000e0e4: 0f 84 aa 00 00 00           	je	170 <_tokenize_variables+0xd4>
10000e0ea: 48 8b 45 f0                 	movq	-16(%rbp), %rax
10000e0ee: 8a 48 08                    	movb	8(%rax), %cl
10000e0f1: 80 e1 0f                    	andb	$15, %cl
10000e0f4: 0f b6 d1                    	movzbl	%cl, %edx
10000e0f7: 0f b7 f2                    	movzwl	%dx, %esi
10000e0fa: 83 e6 02                    	andl	$2, %esi
10000e0fd: 83 fe 00                    	cmpl	$0, %esi
10000e100: 0f 84 4a 00 00 00           	je	74 <_tokenize_variables+0x90>
10000e106: 31 c0                       	xorl	%eax, %eax
10000e108: 89 c6                       	movl	%eax, %esi
10000e10a: 48 8b 4d f0                 	movq	-16(%rbp), %rcx
10000e10e: 48 8b 39                    	movq	(%rcx), %rdi
10000e111: e8 2a fe ff ff              	callq	-470 <_get_vars>
10000e116: 48 89 45 e8                 	movq	%rax, -24(%rbp)
10000e11a: 48 8b 45 f0                 	movq	-16(%rbp), %rax
10000e11e: 48 89 45 e0                 	movq	%rax, -32(%rbp)
10000e122: 48 8b 7d f8                 	movq	-8(%rbp), %rdi
10000e126: 48 8b 75 f0                 	movq	-16(%rbp), %rsi
10000e12a: 48 8b 55 e8                 	movq	-24(%rbp), %rdx
10000e12e: e8 dd f5 ff ff              	callq	-2595 <_replace_arg>
10000e133: 48 8b 45 e0                 	movq	-32(%rbp), %rax
10000e137: 48 8b 38                    	movq	(%rax), %rdi
10000e13a: e8 dd 13 00 00              	callq	5085 <dyld_stub_binder+0x10000f51c>
10000e13f: 48 8b 45 e0                 	movq	-32(%rbp), %rax
10000e143: 48 89 c7                    	movq	%rax, %rdi
10000e146: e8 d1 13 00 00              	callq	5073 <dyld_stub_binder+0x10000f51c>
10000e14b: e9 33 00 00 00              	jmp	51 <_tokenize_variables+0xc3>
10000e150: 48 8b 45 f0                 	movq	-16(%rbp), %rax
10000e154: 8a 48 08                    	movb	8(%rax), %cl
10000e157: 80 e1 0f                    	andb	$15, %cl
10000e15a: 0f b6 d1                    	movzbl	%cl, %edx
10000e15d: 0f b7 f2                    	movzwl	%dx, %esi
10000e160: 83 e6 08                    	andl	$8, %esi
10000e163: 83 fe 00                    	cmpl	$0, %esi
10000e166: 0f 84 12 00 00 00           	je	18 <_tokenize_variables+0xbe>
10000e16c: 48 8b 45 f0                 	movq	-16(%rbp), %rax
10000e170: 48 05 10 00 00 00           	addq	$16, %rax
10000e176: 48 89 c7                    	movq	%rax, %rdi
10000e179: e8 42 ff ff ff              	callq	-190 <_tokenize_variables>
10000e17e: e9 00 00 00 00              	jmp	0 <_tokenize_variables+0xc3>
10000e183: 48 8b 45 f0                 	movq	-16(%rbp), %rax
10000e187: 48 8b 40 18                 	movq	24(%rax), %rax
10000e18b: 48 89 45 f0                 	movq	%rax, -16(%rbp)
10000e18f: e9 4b ff ff ff              	jmp	-181 <_tokenize_variables+0x1f>
10000e194: 48 83 c4 20                 	addq	$32, %rsp
10000e198: 5d                          	popq	%rbp
10000e199: c3                          	retq
10000e19a: 90                          	nop
10000e19b: 90                          	nop
10000e19c: 90                          	nop
10000e19d: 90                          	nop
10000e19e: 90                          	nop
10000e19f: 90                          	nop

000000010000e1a0 _still_args:
10000e1a0: 55                          	pushq	%rbp
10000e1a1: 48 89 e5                    	movq	%rsp, %rbp
10000e1a4: 48 83 ec 40                 	subq	$64, %rsp
10000e1a8: 48 89 7d f0                 	movq	%rdi, -16(%rbp)
10000e1ac: 48 89 75 e8                 	movq	%rsi, -24(%rbp)
10000e1b0: 48 89 55 e0                 	movq	%rdx, -32(%rbp)
10000e1b4: 48 89 4d d8                 	movq	%rcx, -40(%rbp)
10000e1b8: 48 83 7d f0 00              	cmpq	$0, -16(%rbp)
10000e1bd: 0f 85 2f 00 00 00           	jne	47 <_still_args+0x52>
10000e1c3: 48 83 7d e0 00              	cmpq	$0, -32(%rbp)
10000e1c8: 0f 85 24 00 00 00           	jne	36 <_still_args+0x52>
10000e1ce: 48 83 7d d8 00              	cmpq	$0, -40(%rbp)
10000e1d3: 0f 85 19 00 00 00           	jne	25 <_still_args+0x52>
10000e1d9: 48 8b 45 e8                 	movq	-24(%rbp), %rax
10000e1dd: 8b 08                       	movl	(%rax), %ecx
10000e1df: 89 0d 4b 5f 00 00           	movl	%ecx, 24395(%rip)
10000e1e5: 48 c7 45 f8 00 00 00 00     	movq	$0, -8(%rbp)
10000e1ed: e9 b2 00 00 00              	jmp	178 <_still_args+0x104>
10000e1f2: 48 8b 45 f0                 	movq	-16(%rbp), %rax
10000e1f6: 48 8b 4d e0                 	movq	-32(%rbp), %rcx
10000e1fa: 8b 11                       	movl	(%rcx), %edx
10000e1fc: 48 8b 4d e8                 	movq	-24(%rbp), %rcx
10000e200: 03 11                       	addl	(%rcx), %edx
10000e202: 83 ea 01                    	subl	$1, %edx
10000e205: 48 63 ca                    	movslq	%edx, %rcx
10000e208: 0f be 3c 08                 	movsbl	(%rax,%rcx), %edi
10000e20c: e8 6f 06 00 00              	callq	1647 <_ft_isspace>
10000e211: 83 f8 00                    	cmpl	$0, %eax
10000e214: 0f 84 3e 00 00 00           	je	62 <_still_args+0xb8>
10000e21a: 83 3d 0f 5f 00 00 00        	cmpl	$0, 24335(%rip)
10000e221: 0f 85 31 00 00 00           	jne	49 <_still_args+0xb8>
10000e227: 48 8b 7d d8                 	movq	-40(%rbp), %rdi
10000e22b: 48 8d 05 b6 14 00 00        	leaq	5302(%rip), %rax
10000e232: 48 89 7d d0                 	movq	%rdi, -48(%rbp)
10000e236: 48 89 c7                    	movq	%rax, %rdi
10000e239: e8 02 09 00 00              	callq	2306 <_ft_strdup>
10000e23e: 48 8b 7d d0                 	movq	-48(%rbp), %rdi
10000e242: 48 89 c6                    	movq	%rax, %rsi
10000e245: ba 02 00 00 00              	movl	$2, %edx
10000e24a: e8 41 f2 ff ff              	callq	-3519 <_arguments_constructor>
10000e24f: 48 89 45 d8                 	movq	%rax, -40(%rbp)
10000e253: e9 36 00 00 00              	jmp	54 <_still_args+0xee>
10000e258: 48 8b 7d d8                 	movq	-40(%rbp), %rdi
10000e25c: 48 8b 45 f0                 	movq	-16(%rbp), %rax
10000e260: 48 8b 4d e0                 	movq	-32(%rbp), %rcx
10000e264: 8b 31                       	movl	(%rcx), %esi
10000e266: 48 8b 4d e8                 	movq	-24(%rbp), %rcx
10000e26a: 48 63 11                    	movslq	(%rcx), %rdx
10000e26d: 48 89 7d c8                 	movq	%rdi, -56(%rbp)
10000e271: 48 89 c7                    	movq	%rax, %rdi
10000e274: e8 97 0a 00 00              	callq	2711 <_ft_substr>
10000e279: 48 8b 7d c8                 	movq	-56(%rbp), %rdi
10000e27d: 48 89 c6                    	movq	%rax, %rsi
10000e280: ba 02 00 00 00              	movl	$2, %edx
10000e285: e8 06 f2 ff ff              	callq	-3578 <_arguments_constructor>
10000e28a: 48 89 45 d8                 	movq	%rax, -40(%rbp)
10000e28e: 48 8b 45 e8                 	movq	-24(%rbp), %rax
10000e292: 8b 08                       	movl	(%rax), %ecx
10000e294: 48 8b 45 e0                 	movq	-32(%rbp), %rax
10000e298: 03 08                       	addl	(%rax), %ecx
10000e29a: 89 08                       	movl	%ecx, (%rax)
10000e29c: 48 8b 45 d8                 	movq	-40(%rbp), %rax
10000e2a0: 48 89 45 f8                 	movq	%rax, -8(%rbp)
10000e2a4: 48 8b 45 f8                 	movq	-8(%rbp), %rax
10000e2a8: 48 83 c4 40                 	addq	$64, %rsp
10000e2ac: 5d                          	popq	%rbp
10000e2ad: c3                          	retq
10000e2ae: 66 90                       	nop

000000010000e2b0 _space_break:
10000e2b0: 55                          	pushq	%rbp
10000e2b1: 48 89 e5                    	movq	%rsp, %rbp
10000e2b4: 48 83 ec 30                 	subq	$48, %rsp
10000e2b8: 48 89 7d f8                 	movq	%rdi, -8(%rbp)
10000e2bc: 48 89 75 f0                 	movq	%rsi, -16(%rbp)
10000e2c0: 48 89 55 e8                 	movq	%rdx, -24(%rbp)
10000e2c4: 48 c7 45 e0 00 00 00 00     	movq	$0, -32(%rbp)
10000e2cc: 48 8b 45 f8                 	movq	-8(%rbp), %rax
10000e2d0: 48 8b 4d e8                 	movq	-24(%rbp), %rcx
10000e2d4: 44 8b 01                    	movl	(%rcx), %r8d
10000e2d7: 48 8b 4d f0                 	movq	-16(%rbp), %rcx
10000e2db: 44 03 01                    	addl	(%rcx), %r8d
10000e2de: 49 63 c8                    	movslq	%r8d, %rcx
10000e2e1: 0f be 3c 08                 	movsbl	(%rax,%rcx), %edi
10000e2e5: e8 96 05 00 00              	callq	1430 <_ft_isspace>
10000e2ea: 83 f8 00                    	cmpl	$0, %eax
10000e2ed: 0f 84 7b 00 00 00           	je	123 <_space_break+0xbe>
10000e2f3: 48 8b 45 f8                 	movq	-8(%rbp), %rax
10000e2f7: 48 8b 4d e8                 	movq	-24(%rbp), %rcx
10000e2fb: 8b 11                       	movl	(%rcx), %edx
10000e2fd: 48 8b 4d f0                 	movq	-16(%rbp), %rcx
10000e301: 03 11                       	addl	(%rcx), %edx
10000e303: 48 63 ca                    	movslq	%edx, %rcx
10000e306: 0f be 14 08                 	movsbl	(%rax,%rcx), %edx
10000e30a: 83 fa 00                    	cmpl	$0, %edx
10000e30d: 0f 84 5b 00 00 00           	je	91 <_space_break+0xbe>
10000e313: 48 8b 45 f0                 	movq	-16(%rbp), %rax
10000e317: 83 38 00                    	cmpl	$0, (%rax)
10000e31a: 0f 84 36 00 00 00           	je	54 <_space_break+0xa6>
10000e320: 48 8b 7d e0                 	movq	-32(%rbp), %rdi
10000e324: 48 8b 45 f8                 	movq	-8(%rbp), %rax
10000e328: 48 8b 4d e8                 	movq	-24(%rbp), %rcx
10000e32c: 8b 31                       	movl	(%rcx), %esi
10000e32e: 48 8b 4d f0                 	movq	-16(%rbp), %rcx
10000e332: 48 63 11                    	movslq	(%rcx), %rdx
10000e335: 48 89 7d d8                 	movq	%rdi, -40(%rbp)
10000e339: 48 89 c7                    	movq	%rax, %rdi
10000e33c: e8 cf 09 00 00              	callq	2511 <_ft_substr>
10000e341: 48 8b 7d d8                 	movq	-40(%rbp), %rdi
10000e345: 48 89 c6                    	movq	%rax, %rsi
10000e348: ba 02 00 00 00              	movl	$2, %edx
10000e34d: e8 3e f1 ff ff              	callq	-3778 <_arguments_constructor>
10000e352: 48 89 45 e0                 	movq	%rax, -32(%rbp)
10000e356: 48 8b 45 f0                 	movq	-16(%rbp), %rax
10000e35a: 8b 08                       	movl	(%rax), %ecx
10000e35c: 48 8b 45 e8                 	movq	-24(%rbp), %rax
10000e360: 03 08                       	addl	(%rax), %ecx
10000e362: 89 08                       	movl	%ecx, (%rax)
10000e364: 48 8b 45 f0                 	movq	-16(%rbp), %rax
10000e368: c7 00 00 00 00 00           	movl	$0, (%rax)
10000e36e: 48 8b 45 e0                 	movq	-32(%rbp), %rax
10000e372: 48 83 c4 30                 	addq	$48, %rsp
10000e376: 5d                          	popq	%rbp
10000e377: c3                          	retq
10000e378: 0f 1f 84 00 00 00 00 00     	nopl	(%rax,%rax)

000000010000e380 _space_break_loop:
10000e380: 55                          	pushq	%rbp
10000e381: 48 89 e5                    	movq	%rsp, %rbp
10000e384: 48 83 ec 30                 	subq	$48, %rsp
10000e388: 48 89 7d f8                 	movq	%rdi, -8(%rbp)
10000e38c: 48 89 75 f0                 	movq	%rsi, -16(%rbp)
10000e390: 48 89 55 e8                 	movq	%rdx, -24(%rbp)
10000e394: 48 89 4d e0                 	movq	%rcx, -32(%rbp)
10000e398: 48 8b 45 f8                 	movq	-8(%rbp), %rax
10000e39c: 48 8b 4d f0                 	movq	-16(%rbp), %rcx
10000e3a0: 8b 11                       	movl	(%rcx), %edx
10000e3a2: 48 8b 4d e8                 	movq	-24(%rbp), %rcx
10000e3a6: 03 11                       	addl	(%rcx), %edx
10000e3a8: 48 63 ca                    	movslq	%edx, %rcx
10000e3ab: 80 3c 08 00                 	cmpb	$0, (%rax,%rcx)
10000e3af: 0f 84 42 00 00 00           	je	66 <_space_break_loop+0x77>
10000e3b5: 48 8b 7d f8                 	movq	-8(%rbp), %rdi
10000e3b9: 48 8b 75 e8                 	movq	-24(%rbp), %rsi
10000e3bd: 48 8b 55 f0                 	movq	-16(%rbp), %rdx
10000e3c1: e8 ea fe ff ff              	callq	-278 <_space_break>
10000e3c6: 48 89 45 d8                 	movq	%rax, -40(%rbp)
10000e3ca: 48 83 7d d8 00              	cmpq	$0, -40(%rbp)
10000e3cf: 0f 84 12 00 00 00           	je	18 <_space_break_loop+0x67>
10000e3d5: 48 8b 7d e0                 	movq	-32(%rbp), %rdi
10000e3d9: 48 8b 75 d8                 	movq	-40(%rbp), %rsi
10000e3dd: e8 1e f4 ff ff              	callq	-3042 <_arguments_add_back>
10000e3e2: e9 10 00 00 00              	jmp	16 <_space_break_loop+0x77>
10000e3e7: 48 8b 45 e8                 	movq	-24(%rbp), %rax
10000e3eb: 8b 08                       	movl	(%rax), %ecx
10000e3ed: 83 c1 01                    	addl	$1, %ecx
10000e3f0: 89 08                       	movl	%ecx, (%rax)
10000e3f2: e9 a1 ff ff ff              	jmp	-95 <_space_break_loop+0x18>
10000e3f7: 48 83 c4 30                 	addq	$48, %rsp
10000e3fb: 5d                          	popq	%rbp
10000e3fc: c3                          	retq
10000e3fd: 0f 1f 00                    	nopl	(%rax)

000000010000e400 _no_space_break:
10000e400: 55                          	pushq	%rbp
10000e401: 48 89 e5                    	movq	%rsp, %rbp
10000e404: 48 83 ec 40                 	subq	$64, %rsp
10000e408: 48 89 7d f8                 	movq	%rdi, -8(%rbp)
10000e40c: 48 89 75 f0                 	movq	%rsi, -16(%rbp)
10000e410: 48 89 55 e8                 	movq	%rdx, -24(%rbp)
10000e414: 89 4d e4                    	movl	%ecx, -28(%rbp)
10000e417: 48 c7 45 d8 00 00 00 00     	movq	$0, -40(%rbp)
10000e41f: 48 8b 45 f8                 	movq	-8(%rbp), %rax
10000e423: 48 8b 55 e8                 	movq	-24(%rbp), %rdx
10000e427: 8b 0a                       	movl	(%rdx), %ecx
10000e429: 48 8b 55 f0                 	movq	-16(%rbp), %rdx
10000e42d: 03 0a                       	addl	(%rdx), %ecx
10000e42f: 48 63 d1                    	movslq	%ecx, %rdx
10000e432: 0f be 3c 10                 	movsbl	(%rax,%rdx), %edi
10000e436: e8 45 04 00 00              	callq	1093 <_ft_isspace>
10000e43b: 83 f8 00                    	cmpl	$0, %eax
10000e43e: 0f 85 d2 00 00 00           	jne	210 <_no_space_break+0x116>
10000e444: 48 8b 45 f8                 	movq	-8(%rbp), %rax
10000e448: 48 8b 4d e8                 	movq	-24(%rbp), %rcx
10000e44c: 8b 11                       	movl	(%rcx), %edx
10000e44e: 48 8b 4d f0                 	movq	-16(%rbp), %rcx
10000e452: 03 11                       	addl	(%rcx), %edx
10000e454: 48 63 ca                    	movslq	%edx, %rcx
10000e457: 0f be 14 08                 	movsbl	(%rax,%rcx), %edx
10000e45b: 83 fa 00                    	cmpl	$0, %edx
10000e45e: 0f 84 b2 00 00 00           	je	178 <_no_space_break+0x116>
10000e464: 48 8b 45 f0                 	movq	-16(%rbp), %rax
10000e468: 83 38 00                    	cmpl	$0, (%rax)
10000e46b: 0f 84 45 00 00 00           	je	69 <_no_space_break+0xb6>
10000e471: 83 7d e4 00                 	cmpl	$0, -28(%rbp)
10000e475: 0f 84 3b 00 00 00           	je	59 <_no_space_break+0xb6>
10000e47b: 48 8b 7d d8                 	movq	-40(%rbp), %rdi
10000e47f: 48 8b 45 f8                 	movq	-8(%rbp), %rax
10000e483: 48 8b 4d e8                 	movq	-24(%rbp), %rcx
10000e487: 8b 31                       	movl	(%rcx), %esi
10000e489: 48 8b 4d f0                 	movq	-16(%rbp), %rcx
10000e48d: 48 63 11                    	movslq	(%rcx), %rdx
10000e490: 48 89 7d d0                 	movq	%rdi, -48(%rbp)
10000e494: 48 89 c7                    	movq	%rax, %rdi
10000e497: e8 74 08 00 00              	callq	2164 <_ft_substr>
10000e49c: 48 8b 7d d0                 	movq	-48(%rbp), %rdi
10000e4a0: 48 89 c6                    	movq	%rax, %rsi
10000e4a3: ba 02 00 00 00              	movl	$2, %edx
10000e4a8: e8 e3 ef ff ff              	callq	-4125 <_arguments_constructor>
10000e4ad: 48 89 45 d8                 	movq	%rax, -40(%rbp)
10000e4b1: e9 48 00 00 00              	jmp	72 <_no_space_break+0xfe>
10000e4b6: 48 8b 45 f0                 	movq	-16(%rbp), %rax
10000e4ba: 83 38 00                    	cmpl	$0, (%rax)
10000e4bd: 0f 84 36 00 00 00           	je	54 <_no_space_break+0xf9>
10000e4c3: 83 7d e4 00                 	cmpl	$0, -28(%rbp)
10000e4c7: 0f 85 2c 00 00 00           	jne	44 <_no_space_break+0xf9>
10000e4cd: 48 8b 7d d8                 	movq	-40(%rbp), %rdi
10000e4d1: 48 8d 05 10 12 00 00        	leaq	4624(%rip), %rax
10000e4d8: 48 89 7d c8                 	movq	%rdi, -56(%rbp)
10000e4dc: 48 89 c7                    	movq	%rax, %rdi
10000e4df: e8 5c 06 00 00              	callq	1628 <_ft_strdup>
10000e4e4: 48 8b 7d c8                 	movq	-56(%rbp), %rdi
10000e4e8: 48 89 c6                    	movq	%rax, %rsi
10000e4eb: ba 02 00 00 00              	movl	$2, %edx
10000e4f0: e8 9b ef ff ff              	callq	-4197 <_arguments_constructor>
10000e4f5: 48 89 45 d8                 	movq	%rax, -40(%rbp)
10000e4f9: e9 00 00 00 00              	jmp	0 <_no_space_break+0xfe>
10000e4fe: 48 8b 45 f0                 	movq	-16(%rbp), %rax
10000e502: 8b 08                       	movl	(%rax), %ecx
10000e504: 48 8b 45 e8                 	movq	-24(%rbp), %rax
10000e508: 03 08                       	addl	(%rax), %ecx
10000e50a: 89 08                       	movl	%ecx, (%rax)
10000e50c: 48 8b 45 f0                 	movq	-16(%rbp), %rax
10000e510: c7 00 00 00 00 00           	movl	$0, (%rax)
10000e516: 48 8b 45 d8                 	movq	-40(%rbp), %rax
10000e51a: 48 83 c4 40                 	addq	$64, %rsp
10000e51e: 5d                          	popq	%rbp
10000e51f: c3                          	retq

000000010000e520 _no_space_break_loop:
10000e520: 55                          	pushq	%rbp
10000e521: 48 89 e5                    	movq	%rsp, %rbp
10000e524: 48 83 ec 30                 	subq	$48, %rsp
10000e528: 48 89 7d f8                 	movq	%rdi, -8(%rbp)
10000e52c: 48 89 75 f0                 	movq	%rsi, -16(%rbp)
10000e530: 48 89 55 e8                 	movq	%rdx, -24(%rbp)
10000e534: 48 89 4d e0                 	movq	%rcx, -32(%rbp)
10000e538: 48 83 7d f8 00              	cmpq	$0, -8(%rbp)
10000e53d: 0f 85 27 00 00 00           	jne	39 <_no_space_break_loop+0x4a>
10000e543: 48 83 7d e8 00              	cmpq	$0, -24(%rbp)
10000e548: 0f 85 1c 00 00 00           	jne	28 <_no_space_break_loop+0x4a>
10000e54e: 48 83 7d e0 00              	cmpq	$0, -32(%rbp)
10000e553: 0f 85 11 00 00 00           	jne	17 <_no_space_break_loop+0x4a>
10000e559: 48 8b 45 f0                 	movq	-16(%rbp), %rax
10000e55d: 8b 08                       	movl	(%rax), %ecx
10000e55f: 89 0d cf 5b 00 00           	movl	%ecx, 23503(%rip)
10000e565: e9 6a 00 00 00              	jmp	106 <_no_space_break_loop+0xb4>
10000e56a: e9 00 00 00 00              	jmp	0 <_no_space_break_loop+0x4f>
10000e56f: 48 8b 45 f8                 	movq	-8(%rbp), %rax
10000e573: 48 8b 4d f0                 	movq	-16(%rbp), %rcx
10000e577: 8b 11                       	movl	(%rcx), %edx
10000e579: 48 8b 4d e8                 	movq	-24(%rbp), %rcx
10000e57d: 03 11                       	addl	(%rcx), %edx
10000e57f: 48 63 ca                    	movslq	%edx, %rcx
10000e582: 80 3c 08 00                 	cmpb	$0, (%rax,%rcx)
10000e586: 0f 84 48 00 00 00           	je	72 <_no_space_break_loop+0xb4>
10000e58c: 48 8b 7d f8                 	movq	-8(%rbp), %rdi
10000e590: 48 8b 75 e8                 	movq	-24(%rbp), %rsi
10000e594: 48 8b 55 f0                 	movq	-16(%rbp), %rdx
10000e598: 8b 0d 96 5b 00 00           	movl	23446(%rip), %ecx
10000e59e: e8 5d fe ff ff              	callq	-419 <_no_space_break>
10000e5a3: 48 89 45 d8                 	movq	%rax, -40(%rbp)
10000e5a7: 48 83 7d d8 00              	cmpq	$0, -40(%rbp)
10000e5ac: 0f 84 12 00 00 00           	je	18 <_no_space_break_loop+0xa4>
10000e5b2: 48 8b 7d e0                 	movq	-32(%rbp), %rdi
10000e5b6: 48 8b 75 d8                 	movq	-40(%rbp), %rsi
10000e5ba: e8 41 f2 ff ff              	callq	-3519 <_arguments_add_back>
10000e5bf: e9 10 00 00 00              	jmp	16 <_no_space_break_loop+0xb4>
10000e5c4: 48 8b 45 e8                 	movq	-24(%rbp), %rax
10000e5c8: 8b 08                       	movl	(%rax), %ecx
10000e5ca: 83 c1 01                    	addl	$1, %ecx
10000e5cd: 89 08                       	movl	%ecx, (%rax)
10000e5cf: e9 9b ff ff ff              	jmp	-101 <_no_space_break_loop+0x4f>
10000e5d4: 48 83 c4 30                 	addq	$48, %rsp
10000e5d8: 5d                          	popq	%rbp
10000e5d9: c3                          	retq
10000e5da: 66 0f 1f 44 00 00           	nopw	(%rax,%rax)

000000010000e5e0 _ft_split_str_to_args:
10000e5e0: 55                          	pushq	%rbp
10000e5e1: 48 89 e5                    	movq	%rsp, %rbp
10000e5e4: 48 83 ec 40                 	subq	$64, %rsp
10000e5e8: 31 c0                       	xorl	%eax, %eax
10000e5ea: 89 c1                       	movl	%eax, %ecx
10000e5ec: 48 89 7d f8                 	movq	%rdi, -8(%rbp)
10000e5f0: 89 75 f4                    	movl	%esi, -12(%rbp)
10000e5f3: c7 45 e4 00 00 00 00        	movl	$0, -28(%rbp)
10000e5fa: 48 c7 45 e8 00 00 00 00     	movq	$0, -24(%rbp)
10000e602: 48 89 cf                    	movq	%rcx, %rdi
10000e605: 48 8d 75 f4                 	leaq	-12(%rbp), %rsi
10000e609: 48 89 ca                    	movq	%rcx, %rdx
10000e60c: e8 0f ff ff ff              	callq	-241 <_no_space_break_loop>
10000e611: 31 c0                       	xorl	%eax, %eax
10000e613: 89 c1                       	movl	%eax, %ecx
10000e615: 48 89 cf                    	movq	%rcx, %rdi
10000e618: 48 8d 75 f4                 	leaq	-12(%rbp), %rsi
10000e61c: 48 89 ca                    	movq	%rcx, %rdx
10000e61f: e8 7c fb ff ff              	callq	-1156 <_still_args>
10000e624: 48 8b 4d f8                 	movq	-8(%rbp), %rcx
10000e628: 48 63 55 e4                 	movslq	-28(%rbp), %rdx
10000e62c: 0f be 3c 11                 	movsbl	(%rcx,%rdx), %edi
10000e630: 48 89 45 d8                 	movq	%rax, -40(%rbp)
10000e634: e8 47 02 00 00              	callq	583 <_ft_isspace>
10000e639: 83 f8 00                    	cmpl	$0, %eax
10000e63c: 0f 84 7e 00 00 00           	je	126 <_ft_split_str_to_args+0xe0>
10000e642: 48 8b 7d f8                 	movq	-8(%rbp), %rdi
10000e646: e8 a5 c9 ff ff              	callq	-13915 <_skip_spaces_front>
10000e64b: 03 45 e4                    	addl	-28(%rbp), %eax
10000e64e: 89 45 e4                    	movl	%eax, -28(%rbp)
10000e651: 83 7d f4 00                 	cmpl	$0, -12(%rbp)
10000e655: 0f 84 34 00 00 00           	je	52 <_ft_split_str_to_args+0xaf>
10000e65b: 31 f6                       	xorl	%esi, %esi
10000e65d: 48 8b 7d e8                 	movq	-24(%rbp), %rdi
10000e661: 48 8b 45 f8                 	movq	-8(%rbp), %rax
10000e665: 48 63 55 e4                 	movslq	-28(%rbp), %rdx
10000e669: 48 89 7d d0                 	movq	%rdi, -48(%rbp)
10000e66d: 48 89 c7                    	movq	%rax, %rdi
10000e670: e8 9b 06 00 00              	callq	1691 <_ft_substr>
10000e675: 48 8b 7d d0                 	movq	-48(%rbp), %rdi
10000e679: 48 89 c6                    	movq	%rax, %rsi
10000e67c: ba 02 00 00 00              	movl	$2, %edx
10000e681: e8 0a ee ff ff              	callq	-4598 <_arguments_constructor>
10000e686: 48 89 45 e8                 	movq	%rax, -24(%rbp)
10000e68a: e9 2c 00 00 00              	jmp	44 <_ft_split_str_to_args+0xdb>
10000e68f: 48 8b 7d e8                 	movq	-24(%rbp), %rdi
10000e693: 48 8d 05 4e 10 00 00        	leaq	4174(%rip), %rax
10000e69a: 48 89 7d c8                 	movq	%rdi, -56(%rbp)
10000e69e: 48 89 c7                    	movq	%rax, %rdi
10000e6a1: e8 9a 04 00 00              	callq	1178 <_ft_strdup>
10000e6a6: 48 8b 7d c8                 	movq	-56(%rbp), %rdi
10000e6aa: 48 89 c6                    	movq	%rax, %rsi
10000e6ad: ba 02 00 00 00              	movl	$2, %edx
10000e6b2: e8 d9 ed ff ff              	callq	-4647 <_arguments_constructor>
10000e6b7: 48 89 45 e8                 	movq	%rax, -24(%rbp)
10000e6bb: e9 00 00 00 00              	jmp	0 <_ft_split_str_to_args+0xe0>
10000e6c0: e9 00 00 00 00              	jmp	0 <_ft_split_str_to_args+0xe5>
10000e6c5: 48 8b 45 f8                 	movq	-8(%rbp), %rax
10000e6c9: 48 63 4d e4                 	movslq	-28(%rbp), %rcx
10000e6cd: 80 3c 08 00                 	cmpb	$0, (%rax,%rcx)
10000e6d1: 0f 84 59 00 00 00           	je	89 <_ft_split_str_to_args+0x150>
10000e6d7: c7 45 e0 00 00 00 00        	movl	$0, -32(%rbp)
10000e6de: 48 8b 7d f8                 	movq	-8(%rbp), %rdi
10000e6e2: 48 8d 75 e4                 	leaq	-28(%rbp), %rsi
10000e6e6: 48 8d 55 e0                 	leaq	-32(%rbp), %rdx
10000e6ea: 48 8d 4d e8                 	leaq	-24(%rbp), %rcx
10000e6ee: e8 8d fc ff ff              	callq	-883 <_space_break_loop>
10000e6f3: 48 8b 7d f8                 	movq	-8(%rbp), %rdi
10000e6f7: 48 8d 75 e4                 	leaq	-28(%rbp), %rsi
10000e6fb: 48 8d 55 e0                 	leaq	-32(%rbp), %rdx
10000e6ff: 48 8d 4d e8                 	leaq	-24(%rbp), %rcx
10000e703: e8 18 fe ff ff              	callq	-488 <_no_space_break_loop>
10000e708: 83 7d e0 00                 	cmpl	$0, -32(%rbp)
10000e70c: 0f 84 19 00 00 00           	je	25 <_ft_split_str_to_args+0x14b>
10000e712: 48 8b 7d f8                 	movq	-8(%rbp), %rdi
10000e716: 48 8b 4d e8                 	movq	-24(%rbp), %rcx
10000e71a: 48 8d 75 e0                 	leaq	-32(%rbp), %rsi
10000e71e: 48 8d 55 e4                 	leaq	-28(%rbp), %rdx
10000e722: e8 79 fa ff ff              	callq	-1415 <_still_args>
10000e727: 48 89 45 e8                 	movq	%rax, -24(%rbp)
10000e72b: e9 95 ff ff ff              	jmp	-107 <_ft_split_str_to_args+0xe5>
10000e730: 48 8b 45 e8                 	movq	-24(%rbp), %rax
10000e734: 48 83 c4 40                 	addq	$64, %rsp
10000e738: 5d                          	popq	%rbp
10000e739: c3                          	retq
10000e73a: 90                          	nop
10000e73b: 90                          	nop
10000e73c: 90                          	nop
10000e73d: 90                          	nop
10000e73e: 90                          	nop
10000e73f: 90                          	nop

000000010000e740 _ft_bzero:
10000e740: 55                          	pushq	%rbp
10000e741: 48 89 e5                    	movq	%rsp, %rbp
10000e744: 48 83 ec 10                 	subq	$16, %rsp
10000e748: 31 c0                       	xorl	%eax, %eax
10000e74a: 48 89 7d f8                 	movq	%rdi, -8(%rbp)
10000e74e: 48 89 75 f0                 	movq	%rsi, -16(%rbp)
10000e752: 48 8b 7d f8                 	movq	-8(%rbp), %rdi
10000e756: 48 8b 55 f0                 	movq	-16(%rbp), %rdx
10000e75a: 89 c6                       	movl	%eax, %esi
10000e75c: e8 ff 02 00 00              	callq	767 <_ft_memset>
10000e761: 48 83 c4 10                 	addq	$16, %rsp
10000e765: 5d                          	popq	%rbp
10000e766: c3                          	retq
10000e767: 90                          	nop
10000e768: 90                          	nop
10000e769: 90                          	nop
10000e76a: 90                          	nop
10000e76b: 90                          	nop
10000e76c: 90                          	nop
10000e76d: 90                          	nop
10000e76e: 90                          	nop
10000e76f: 90                          	nop

000000010000e770 _ft_calloc:
10000e770: 55                          	pushq	%rbp
10000e771: 48 89 e5                    	movq	%rsp, %rbp
10000e774: 48 83 ec 20                 	subq	$32, %rsp
10000e778: 48 89 7d f8                 	movq	%rdi, -8(%rbp)
10000e77c: 48 89 75 f0                 	movq	%rsi, -16(%rbp)
10000e780: 48 8b 45 f8                 	movq	-8(%rbp), %rax
10000e784: 48 0f af 45 f0              	imulq	-16(%rbp), %rax
10000e789: 48 89 c7                    	movq	%rax, %rdi
10000e78c: e8 a3 0d 00 00              	callq	3491 <dyld_stub_binder+0x10000f534>
10000e791: 48 89 45 e8                 	movq	%rax, -24(%rbp)
10000e795: 48 83 7d e8 00              	cmpq	$0, -24(%rbp)
10000e79a: 0f 84 15 00 00 00           	je	21 <_ft_calloc+0x45>
10000e7a0: 48 8b 7d e8                 	movq	-24(%rbp), %rdi
10000e7a4: 48 8b 45 f8                 	movq	-8(%rbp), %rax
10000e7a8: 48 0f af 45 f0              	imulq	-16(%rbp), %rax
10000e7ad: 48 89 c6                    	movq	%rax, %rsi
10000e7b0: e8 8b ff ff ff              	callq	-117 <_ft_bzero>
10000e7b5: 48 8b 45 e8                 	movq	-24(%rbp), %rax
10000e7b9: 48 83 c4 20                 	addq	$32, %rsp
10000e7bd: 5d                          	popq	%rbp
10000e7be: c3                          	retq
10000e7bf: 90                          	nop

000000010000e7c0 _ft_isalnum:
10000e7c0: 55                          	pushq	%rbp
10000e7c1: 48 89 e5                    	movq	%rsp, %rbp
10000e7c4: 48 83 ec 10                 	subq	$16, %rsp
10000e7c8: 89 7d fc                    	movl	%edi, -4(%rbp)
10000e7cb: 8b 7d fc                    	movl	-4(%rbp), %edi
10000e7ce: e8 2d 00 00 00              	callq	45 <_ft_isalpha>
10000e7d3: 83 f8 00                    	cmpl	$0, %eax
10000e7d6: b1 01                       	movb	$1, %cl
10000e7d8: 88 4d fb                    	movb	%cl, -5(%rbp)
10000e7db: 0f 85 11 00 00 00           	jne	17 <_ft_isalnum+0x32>
10000e7e1: 8b 7d fc                    	movl	-4(%rbp), %edi
10000e7e4: e8 67 00 00 00              	callq	103 <_ft_isdigit>
10000e7e9: 83 f8 00                    	cmpl	$0, %eax
10000e7ec: 0f 95 c1                    	setne	%cl
10000e7ef: 88 4d fb                    	movb	%cl, -5(%rbp)
10000e7f2: 8a 45 fb                    	movb	-5(%rbp), %al
10000e7f5: 24 01                       	andb	$1, %al
10000e7f7: 0f b6 c0                    	movzbl	%al, %eax
10000e7fa: 48 83 c4 10                 	addq	$16, %rsp
10000e7fe: 5d                          	popq	%rbp
10000e7ff: c3                          	retq

000000010000e800 _ft_isalpha:
10000e800: 55                          	pushq	%rbp
10000e801: 48 89 e5                    	movq	%rsp, %rbp
10000e804: 89 7d fc                    	movl	%edi, -4(%rbp)
10000e807: 83 7d fc 61                 	cmpl	$97, -4(%rbp)
10000e80b: 0f 8c 0f 00 00 00           	jl	15 <_ft_isalpha+0x20>
10000e811: 83 7d fc 7a                 	cmpl	$122, -4(%rbp)
10000e815: b0 01                       	movb	$1, %al
10000e817: 88 45 fb                    	movb	%al, -5(%rbp)
10000e81a: 0f 8e 1f 00 00 00           	jle	31 <_ft_isalpha+0x3f>
10000e820: 31 c0                       	xorl	%eax, %eax
10000e822: 83 7d fc 41                 	cmpl	$65, -4(%rbp)
10000e826: 88 45 fa                    	movb	%al, -6(%rbp)
10000e829: 0f 8c 0a 00 00 00           	jl	10 <_ft_isalpha+0x39>
10000e82f: 83 7d fc 5a                 	cmpl	$90, -4(%rbp)
10000e833: 0f 9e c0                    	setle	%al
10000e836: 88 45 fa                    	movb	%al, -6(%rbp)
10000e839: 8a 45 fa                    	movb	-6(%rbp), %al
10000e83c: 88 45 fb                    	movb	%al, -5(%rbp)
10000e83f: 8a 45 fb                    	movb	-5(%rbp), %al
10000e842: 24 01                       	andb	$1, %al
10000e844: 0f b6 c0                    	movzbl	%al, %eax
10000e847: 5d                          	popq	%rbp
10000e848: c3                          	retq
10000e849: 90                          	nop
10000e84a: 90                          	nop
10000e84b: 90                          	nop
10000e84c: 90                          	nop
10000e84d: 90                          	nop
10000e84e: 90                          	nop
10000e84f: 90                          	nop

000000010000e850 _ft_isdigit:
10000e850: 55                          	pushq	%rbp
10000e851: 48 89 e5                    	movq	%rsp, %rbp
10000e854: 31 c0                       	xorl	%eax, %eax
10000e856: 89 7d fc                    	movl	%edi, -4(%rbp)
10000e859: 83 7d fc 30                 	cmpl	$48, -4(%rbp)
10000e85d: 88 45 fb                    	movb	%al, -5(%rbp)
10000e860: 0f 8c 0a 00 00 00           	jl	10 <_ft_isdigit+0x20>
10000e866: 83 7d fc 39                 	cmpl	$57, -4(%rbp)
10000e86a: 0f 9e c0                    	setle	%al
10000e86d: 88 45 fb                    	movb	%al, -5(%rbp)
10000e870: 8a 45 fb                    	movb	-5(%rbp), %al
10000e873: 24 01                       	andb	$1, %al
10000e875: 0f b6 c0                    	movzbl	%al, %eax
10000e878: 5d                          	popq	%rbp
10000e879: c3                          	retq
10000e87a: 90                          	nop
10000e87b: 90                          	nop
10000e87c: 90                          	nop
10000e87d: 90                          	nop
10000e87e: 90                          	nop
10000e87f: 90                          	nop

000000010000e880 _ft_isspace:
10000e880: 55                          	pushq	%rbp
10000e881: 48 89 e5                    	movq	%rsp, %rbp
10000e884: 89 7d fc                    	movl	%edi, -4(%rbp)
10000e887: 83 7d fc 09                 	cmpl	$9, -4(%rbp)
10000e88b: 0f 8c 0f 00 00 00           	jl	15 <_ft_isspace+0x20>
10000e891: 83 7d fc 0d                 	cmpl	$13, -4(%rbp)
10000e895: b0 01                       	movb	$1, %al
10000e897: 88 45 fb                    	movb	%al, -5(%rbp)
10000e89a: 0f 8e 0a 00 00 00           	jle	10 <_ft_isspace+0x2a>
10000e8a0: 83 7d fc 20                 	cmpl	$32, -4(%rbp)
10000e8a4: 0f 94 c0                    	sete	%al
10000e8a7: 88 45 fb                    	movb	%al, -5(%rbp)
10000e8aa: 8a 45 fb                    	movb	-5(%rbp), %al
10000e8ad: 24 01                       	andb	$1, %al
10000e8af: 0f b6 c0                    	movzbl	%al, %eax
10000e8b2: 5d                          	popq	%rbp
10000e8b3: c3                          	retq
10000e8b4: 90                          	nop
10000e8b5: 90                          	nop
10000e8b6: 90                          	nop
10000e8b7: 90                          	nop
10000e8b8: 90                          	nop
10000e8b9: 90                          	nop
10000e8ba: 90                          	nop
10000e8bb: 90                          	nop
10000e8bc: 90                          	nop
10000e8bd: 90                          	nop
10000e8be: 90                          	nop
10000e8bf: 90                          	nop

000000010000e8c0 _ft_memchr:
10000e8c0: 55                          	pushq	%rbp
10000e8c1: 48 89 e5                    	movq	%rsp, %rbp
10000e8c4: 48 89 7d f0                 	movq	%rdi, -16(%rbp)
10000e8c8: 89 75 ec                    	movl	%esi, -20(%rbp)
10000e8cb: 48 89 55 e0                 	movq	%rdx, -32(%rbp)
10000e8cf: 48 8b 45 e0                 	movq	-32(%rbp), %rax
10000e8d3: 48 89 c1                    	movq	%rax, %rcx
10000e8d6: 48 81 c1 ff ff ff ff        	addq	$-1, %rcx
10000e8dd: 48 89 4d e0                 	movq	%rcx, -32(%rbp)
10000e8e1: 48 83 f8 00                 	cmpq	$0, %rax
10000e8e5: 0f 84 3c 00 00 00           	je	60 <_ft_memchr+0x67>
10000e8eb: 48 8b 45 f0                 	movq	-16(%rbp), %rax
10000e8ef: 48 89 c1                    	movq	%rax, %rcx
10000e8f2: 48 81 c1 01 00 00 00        	addq	$1, %rcx
10000e8f9: 48 89 4d f0                 	movq	%rcx, -16(%rbp)
10000e8fd: 0f b6 10                    	movzbl	(%rax), %edx
10000e900: 8b 75 ec                    	movl	-20(%rbp), %esi
10000e903: 40 0f b6 fe                 	movzbl	%sil, %edi
10000e907: 39 fa                       	cmpl	%edi, %edx
10000e909: 0f 85 13 00 00 00           	jne	19 <_ft_memchr+0x62>
10000e90f: 48 8b 45 f0                 	movq	-16(%rbp), %rax
10000e913: 48 05 ff ff ff ff           	addq	$-1, %rax
10000e919: 48 89 45 f8                 	movq	%rax, -8(%rbp)
10000e91d: e9 0d 00 00 00              	jmp	13 <_ft_memchr+0x6f>
10000e922: e9 a8 ff ff ff              	jmp	-88 <_ft_memchr+0xf>
10000e927: 48 c7 45 f8 00 00 00 00     	movq	$0, -8(%rbp)
10000e92f: 48 8b 45 f8                 	movq	-8(%rbp), %rax
10000e933: 5d                          	popq	%rbp
10000e934: c3                          	retq
10000e935: 90                          	nop
10000e936: 90                          	nop
10000e937: 90                          	nop
10000e938: 90                          	nop
10000e939: 90                          	nop
10000e93a: 90                          	nop
10000e93b: 90                          	nop
10000e93c: 90                          	nop
10000e93d: 90                          	nop
10000e93e: 90                          	nop
10000e93f: 90                          	nop

000000010000e940 _ft_memcmp:
10000e940: 55                          	pushq	%rbp
10000e941: 48 89 e5                    	movq	%rsp, %rbp
10000e944: 48 89 7d f0                 	movq	%rdi, -16(%rbp)
10000e948: 48 89 75 e8                 	movq	%rsi, -24(%rbp)
10000e94c: 48 89 55 e0                 	movq	%rdx, -32(%rbp)
10000e950: 48 8b 45 e0                 	movq	-32(%rbp), %rax
10000e954: 48 89 c1                    	movq	%rax, %rcx
10000e957: 48 81 c1 ff ff ff ff        	addq	$-1, %rcx
10000e95e: 48 89 4d e0                 	movq	%rcx, -32(%rbp)
10000e962: 48 83 f8 00                 	cmpq	$0, %rax
10000e966: 0f 86 51 00 00 00           	jbe	81 <_ft_memcmp+0x7d>
10000e96c: 48 8b 45 f0                 	movq	-16(%rbp), %rax
10000e970: 48 89 c1                    	movq	%rax, %rcx
10000e973: 48 81 c1 01 00 00 00        	addq	$1, %rcx
10000e97a: 48 89 4d f0                 	movq	%rcx, -16(%rbp)
10000e97e: 0f b6 10                    	movzbl	(%rax), %edx
10000e981: 48 8b 45 e8                 	movq	-24(%rbp), %rax
10000e985: 48 89 c1                    	movq	%rax, %rcx
10000e988: 48 81 c1 01 00 00 00        	addq	$1, %rcx
10000e98f: 48 89 4d e8                 	movq	%rcx, -24(%rbp)
10000e993: 0f b6 30                    	movzbl	(%rax), %esi
10000e996: 39 f2                       	cmpl	%esi, %edx
10000e998: 0f 84 1a 00 00 00           	je	26 <_ft_memcmp+0x78>
10000e99e: 48 8b 45 f0                 	movq	-16(%rbp), %rax
10000e9a2: 0f b6 48 ff                 	movzbl	-1(%rax), %ecx
10000e9a6: 48 8b 45 e8                 	movq	-24(%rbp), %rax
10000e9aa: 0f b6 50 ff                 	movzbl	-1(%rax), %edx
10000e9ae: 29 d1                       	subl	%edx, %ecx
10000e9b0: 89 4d fc                    	movl	%ecx, -4(%rbp)
10000e9b3: e9 0c 00 00 00              	jmp	12 <_ft_memcmp+0x84>
10000e9b8: e9 93 ff ff ff              	jmp	-109 <_ft_memcmp+0x10>
10000e9bd: c7 45 fc 00 00 00 00        	movl	$0, -4(%rbp)
10000e9c4: 8b 45 fc                    	movl	-4(%rbp), %eax
10000e9c7: 5d                          	popq	%rbp
10000e9c8: c3                          	retq
10000e9c9: 90                          	nop
10000e9ca: 90                          	nop
10000e9cb: 90                          	nop
10000e9cc: 90                          	nop
10000e9cd: 90                          	nop
10000e9ce: 90                          	nop
10000e9cf: 90                          	nop

000000010000e9d0 _ft_memcpy:
10000e9d0: 55                          	pushq	%rbp
10000e9d1: 48 89 e5                    	movq	%rsp, %rbp
10000e9d4: 48 89 7d f0                 	movq	%rdi, -16(%rbp)
10000e9d8: 48 89 75 e8                 	movq	%rsi, -24(%rbp)
10000e9dc: 48 89 55 e0                 	movq	%rdx, -32(%rbp)
10000e9e0: 48 c7 45 d8 ff ff ff ff     	movq	$-1, -40(%rbp)
10000e9e8: 48 8b 45 f0                 	movq	-16(%rbp), %rax
10000e9ec: 48 3b 45 e8                 	cmpq	-24(%rbp), %rax
10000e9f0: 0f 84 0b 00 00 00           	je	11 <_ft_memcpy+0x31>
10000e9f6: 48 83 7d e0 00              	cmpq	$0, -32(%rbp)
10000e9fb: 0f 85 0d 00 00 00           	jne	13 <_ft_memcpy+0x3e>
10000ea01: 48 8b 45 f0                 	movq	-16(%rbp), %rax
10000ea05: 48 89 45 f8                 	movq	%rax, -8(%rbp)
10000ea09: e9 40 00 00 00              	jmp	64 <_ft_memcpy+0x7e>
10000ea0e: e9 00 00 00 00              	jmp	0 <_ft_memcpy+0x43>
10000ea13: 48 8b 45 d8                 	movq	-40(%rbp), %rax
10000ea17: 48 05 01 00 00 00           	addq	$1, %rax
10000ea1d: 48 89 45 d8                 	movq	%rax, -40(%rbp)
10000ea21: 48 3b 45 e0                 	cmpq	-32(%rbp), %rax
10000ea25: 0f 83 1b 00 00 00           	jae	27 <_ft_memcpy+0x76>
10000ea2b: 48 8b 45 e8                 	movq	-24(%rbp), %rax
10000ea2f: 48 8b 4d d8                 	movq	-40(%rbp), %rcx
10000ea33: 8a 14 08                    	movb	(%rax,%rcx), %dl
10000ea36: 48 8b 45 f0                 	movq	-16(%rbp), %rax
10000ea3a: 48 8b 4d d8                 	movq	-40(%rbp), %rcx
10000ea3e: 88 14 08                    	movb	%dl, (%rax,%rcx)
10000ea41: e9 cd ff ff ff              	jmp	-51 <_ft_memcpy+0x43>
10000ea46: 48 8b 45 f0                 	movq	-16(%rbp), %rax
10000ea4a: 48 89 45 f8                 	movq	%rax, -8(%rbp)
10000ea4e: 48 8b 45 f8                 	movq	-8(%rbp), %rax
10000ea52: 5d                          	popq	%rbp
10000ea53: c3                          	retq
10000ea54: 90                          	nop
10000ea55: 90                          	nop
10000ea56: 90                          	nop
10000ea57: 90                          	nop
10000ea58: 90                          	nop
10000ea59: 90                          	nop
10000ea5a: 90                          	nop
10000ea5b: 90                          	nop
10000ea5c: 90                          	nop
10000ea5d: 90                          	nop
10000ea5e: 90                          	nop
10000ea5f: 90                          	nop

000000010000ea60 _ft_memset:
10000ea60: 55                          	pushq	%rbp
10000ea61: 48 89 e5                    	movq	%rsp, %rbp
10000ea64: 48 89 7d f8                 	movq	%rdi, -8(%rbp)
10000ea68: 89 75 f4                    	movl	%esi, -12(%rbp)
10000ea6b: 48 89 55 e8                 	movq	%rdx, -24(%rbp)
10000ea6f: 48 83 7d e8 00              	cmpq	$0, -24(%rbp)
10000ea74: 0f 84 22 00 00 00           	je	34 <_ft_memset+0x3c>
10000ea7a: 8b 45 f4                    	movl	-12(%rbp), %eax
10000ea7d: 48 8b 4d f8                 	movq	-8(%rbp), %rcx
10000ea81: 48 8b 55 e8                 	movq	-24(%rbp), %rdx
10000ea85: 48 89 d6                    	movq	%rdx, %rsi
10000ea88: 48 81 c6 ff ff ff ff        	addq	$-1, %rsi
10000ea8f: 48 89 75 e8                 	movq	%rsi, -24(%rbp)
10000ea93: 88 44 11 ff                 	movb	%al, -1(%rcx,%rdx)
10000ea97: e9 d3 ff ff ff              	jmp	-45 <_ft_memset+0xf>
10000ea9c: 48 8b 45 f8                 	movq	-8(%rbp), %rax
10000eaa0: 5d                          	popq	%rbp
10000eaa1: c3                          	retq
10000eaa2: 90                          	nop
10000eaa3: 90                          	nop
10000eaa4: 90                          	nop
10000eaa5: 90                          	nop
10000eaa6: 90                          	nop
10000eaa7: 90                          	nop
10000eaa8: 90                          	nop
10000eaa9: 90                          	nop
10000eaaa: 90                          	nop
10000eaab: 90                          	nop
10000eaac: 90                          	nop
10000eaad: 90                          	nop
10000eaae: 90                          	nop
10000eaaf: 90                          	nop

000000010000eab0 _ft_strchr:
10000eab0: 55                          	pushq	%rbp
10000eab1: 48 89 e5                    	movq	%rsp, %rbp
10000eab4: 48 89 7d f0                 	movq	%rdi, -16(%rbp)
10000eab8: 89 75 ec                    	movl	%esi, -20(%rbp)
10000eabb: 48 8b 45 f0                 	movq	-16(%rbp), %rax
10000eabf: 48 89 c1                    	movq	%rax, %rcx
10000eac2: 48 81 c1 01 00 00 00        	addq	$1, %rcx
10000eac9: 48 89 4d f0                 	movq	%rcx, -16(%rbp)
10000eacd: 80 38 00                    	cmpb	$0, (%rax)
10000ead0: 0f 84 2e 00 00 00           	je	46 <_ft_strchr+0x54>
10000ead6: 48 8b 45 f0                 	movq	-16(%rbp), %rax
10000eada: 0f be 48 ff                 	movsbl	-1(%rax), %ecx
10000eade: 8b 55 ec                    	movl	-20(%rbp), %edx
10000eae1: 0f be f2                    	movsbl	%dl, %esi
10000eae4: 39 f1                       	cmpl	%esi, %ecx
10000eae6: 0f 85 13 00 00 00           	jne	19 <_ft_strchr+0x4f>
10000eaec: 48 8b 45 f0                 	movq	-16(%rbp), %rax
10000eaf0: 48 05 ff ff ff ff           	addq	$-1, %rax
10000eaf6: 48 89 45 f8                 	movq	%rax, -8(%rbp)
10000eafa: e9 36 00 00 00              	jmp	54 <_ft_strchr+0x85>
10000eaff: e9 b7 ff ff ff              	jmp	-73 <_ft_strchr+0xb>
10000eb04: 48 8b 45 f0                 	movq	-16(%rbp), %rax
10000eb08: 0f be 48 ff                 	movsbl	-1(%rax), %ecx
10000eb0c: 8b 55 ec                    	movl	-20(%rbp), %edx
10000eb0f: 0f be f2                    	movsbl	%dl, %esi
10000eb12: 39 f1                       	cmpl	%esi, %ecx
10000eb14: 0f 85 13 00 00 00           	jne	19 <_ft_strchr+0x7d>
10000eb1a: 48 8b 45 f0                 	movq	-16(%rbp), %rax
10000eb1e: 48 05 ff ff ff ff           	addq	$-1, %rax
10000eb24: 48 89 45 f8                 	movq	%rax, -8(%rbp)
10000eb28: e9 08 00 00 00              	jmp	8 <_ft_strchr+0x85>
10000eb2d: 48 c7 45 f8 00 00 00 00     	movq	$0, -8(%rbp)
10000eb35: 48 8b 45 f8                 	movq	-8(%rbp), %rax
10000eb39: 5d                          	popq	%rbp
10000eb3a: c3                          	retq
10000eb3b: 90                          	nop
10000eb3c: 90                          	nop
10000eb3d: 90                          	nop
10000eb3e: 90                          	nop
10000eb3f: 90                          	nop

000000010000eb40 _ft_strdup:
10000eb40: 55                          	pushq	%rbp
10000eb41: 48 89 e5                    	movq	%rsp, %rbp
10000eb44: 48 83 ec 20                 	subq	$32, %rsp
10000eb48: 48 89 7d f0                 	movq	%rdi, -16(%rbp)
10000eb4c: c7 45 e4 ff ff ff ff        	movl	$4294967295, -28(%rbp)
10000eb53: 48 8b 7d f0                 	movq	-16(%rbp), %rdi
10000eb57: e8 84 00 00 00              	callq	132 <_ft_strlen>
10000eb5c: 48 05 01 00 00 00           	addq	$1, %rax
10000eb62: 48 89 c7                    	movq	%rax, %rdi
10000eb65: be 01 00 00 00              	movl	$1, %esi
10000eb6a: e8 01 fc ff ff              	callq	-1023 <_ft_calloc>
10000eb6f: 48 89 45 e8                 	movq	%rax, -24(%rbp)
10000eb73: 48 83 7d e8 00              	cmpq	$0, -24(%rbp)
10000eb78: 0f 85 0d 00 00 00           	jne	13 <_ft_strdup+0x4b>
10000eb7e: 48 c7 45 f8 00 00 00 00     	movq	$0, -8(%rbp)
10000eb86: e9 42 00 00 00              	jmp	66 <_ft_strdup+0x8d>
10000eb8b: e9 00 00 00 00              	jmp	0 <_ft_strdup+0x50>
10000eb90: 48 8b 45 f0                 	movq	-16(%rbp), %rax
10000eb94: 8b 4d e4                    	movl	-28(%rbp), %ecx
10000eb97: 83 c1 01                    	addl	$1, %ecx
10000eb9a: 89 4d e4                    	movl	%ecx, -28(%rbp)
10000eb9d: 48 63 d1                    	movslq	%ecx, %rdx
10000eba0: 80 3c 10 00                 	cmpb	$0, (%rax,%rdx)
10000eba4: 0f 84 1b 00 00 00           	je	27 <_ft_strdup+0x85>
10000ebaa: 48 8b 45 f0                 	movq	-16(%rbp), %rax
10000ebae: 48 63 4d e4                 	movslq	-28(%rbp), %rcx
10000ebb2: 8a 14 08                    	movb	(%rax,%rcx), %dl
10000ebb5: 48 8b 45 e8                 	movq	-24(%rbp), %rax
10000ebb9: 48 63 4d e4                 	movslq	-28(%rbp), %rcx
10000ebbd: 88 14 08                    	movb	%dl, (%rax,%rcx)
10000ebc0: e9 cb ff ff ff              	jmp	-53 <_ft_strdup+0x50>
10000ebc5: 48 8b 45 e8                 	movq	-24(%rbp), %rax
10000ebc9: 48 89 45 f8                 	movq	%rax, -8(%rbp)
10000ebcd: 48 8b 45 f8                 	movq	-8(%rbp), %rax
10000ebd1: 48 83 c4 20                 	addq	$32, %rsp
10000ebd5: 5d                          	popq	%rbp
10000ebd6: c3                          	retq
10000ebd7: 90                          	nop
10000ebd8: 90                          	nop
10000ebd9: 90                          	nop
10000ebda: 90                          	nop
10000ebdb: 90                          	nop
10000ebdc: 90                          	nop
10000ebdd: 90                          	nop
10000ebde: 90                          	nop
10000ebdf: 90                          	nop

000000010000ebe0 _ft_strlen:
10000ebe0: 55                          	pushq	%rbp
10000ebe1: 48 89 e5                    	movq	%rsp, %rbp
10000ebe4: 48 89 7d f0                 	movq	%rdi, -16(%rbp)
10000ebe8: 48 83 7d f0 00              	cmpq	$0, -16(%rbp)
10000ebed: 0f 85 0d 00 00 00           	jne	13 <_ft_strlen+0x20>
10000ebf3: 48 c7 45 f8 00 00 00 00     	movq	$0, -8(%rbp)
10000ebfb: e9 37 00 00 00              	jmp	55 <_ft_strlen+0x57>
10000ec00: 48 8b 45 f0                 	movq	-16(%rbp), %rax
10000ec04: 48 89 45 e8                 	movq	%rax, -24(%rbp)
10000ec08: 48 8b 45 e8                 	movq	-24(%rbp), %rax
10000ec0c: 80 38 00                    	cmpb	$0, (%rax)
10000ec0f: 0f 84 13 00 00 00           	je	19 <_ft_strlen+0x48>
10000ec15: 48 8b 45 e8                 	movq	-24(%rbp), %rax
10000ec19: 48 05 01 00 00 00           	addq	$1, %rax
10000ec1f: 48 89 45 e8                 	movq	%rax, -24(%rbp)
10000ec23: e9 e0 ff ff ff              	jmp	-32 <_ft_strlen+0x28>
10000ec28: 48 8b 45 e8                 	movq	-24(%rbp), %rax
10000ec2c: 48 8b 4d f0                 	movq	-16(%rbp), %rcx
10000ec30: 48 29 c8                    	subq	%rcx, %rax
10000ec33: 48 89 45 f8                 	movq	%rax, -8(%rbp)
10000ec37: 48 8b 45 f8                 	movq	-8(%rbp), %rax
10000ec3b: 5d                          	popq	%rbp
10000ec3c: c3                          	retq
10000ec3d: 90                          	nop
10000ec3e: 90                          	nop
10000ec3f: 90                          	nop

000000010000ec40 _ft_strncmp:
10000ec40: 55                          	pushq	%rbp
10000ec41: 48 89 e5                    	movq	%rsp, %rbp
10000ec44: 48 89 7d f0                 	movq	%rdi, -16(%rbp)
10000ec48: 48 89 75 e8                 	movq	%rsi, -24(%rbp)
10000ec4c: 48 89 55 e0                 	movq	%rdx, -32(%rbp)
10000ec50: 48 83 7d e0 00              	cmpq	$0, -32(%rbp)
10000ec55: 0f 85 0c 00 00 00           	jne	12 <_ft_strncmp+0x27>
10000ec5b: c7 45 fc 00 00 00 00        	movl	$0, -4(%rbp)
10000ec62: e9 9d 00 00 00              	jmp	157 <_ft_strncmp+0xc4>
10000ec67: e9 00 00 00 00              	jmp	0 <_ft_strncmp+0x2c>
10000ec6c: 48 8b 45 e0                 	movq	-32(%rbp), %rax
10000ec70: 48 89 c1                    	movq	%rax, %rcx
10000ec73: 48 81 c1 ff ff ff ff        	addq	$-1, %rcx
10000ec7a: 48 89 4d e0                 	movq	%rcx, -32(%rbp)
10000ec7e: 48 83 f8 00                 	cmpq	$0, %rax
10000ec82: 0f 84 75 00 00 00           	je	117 <_ft_strncmp+0xbd>
10000ec88: 48 8b 45 f0                 	movq	-16(%rbp), %rax
10000ec8c: 0f be 08                    	movsbl	(%rax), %ecx
10000ec8f: 48 8b 45 e8                 	movq	-24(%rbp), %rax
10000ec93: 0f be 10                    	movsbl	(%rax), %edx
10000ec96: 39 d1                       	cmpl	%edx, %ecx
10000ec98: 0f 84 18 00 00 00           	je	24 <_ft_strncmp+0x76>
10000ec9e: 48 8b 45 f0                 	movq	-16(%rbp), %rax
10000eca2: 0f b6 08                    	movzbl	(%rax), %ecx
10000eca5: 48 8b 45 e8                 	movq	-24(%rbp), %rax
10000eca9: 0f b6 10                    	movzbl	(%rax), %edx
10000ecac: 29 d1                       	subl	%edx, %ecx
10000ecae: 89 4d fc                    	movl	%ecx, -4(%rbp)
10000ecb1: e9 4e 00 00 00              	jmp	78 <_ft_strncmp+0xc4>
10000ecb6: 48 8b 45 f0                 	movq	-16(%rbp), %rax
10000ecba: 80 38 00                    	cmpb	$0, (%rax)
10000ecbd: 0f 85 19 00 00 00           	jne	25 <_ft_strncmp+0x9c>
10000ecc3: 48 8b 45 e8                 	movq	-24(%rbp), %rax
10000ecc7: 80 38 00                    	cmpb	$0, (%rax)
10000ecca: 0f 85 0c 00 00 00           	jne	12 <_ft_strncmp+0x9c>
10000ecd0: c7 45 fc 00 00 00 00        	movl	$0, -4(%rbp)
10000ecd7: e9 28 00 00 00              	jmp	40 <_ft_strncmp+0xc4>
10000ecdc: 48 8b 45 f0                 	movq	-16(%rbp), %rax
10000ece0: 48 05 01 00 00 00           	addq	$1, %rax
10000ece6: 48 89 45 f0                 	movq	%rax, -16(%rbp)
10000ecea: 48 8b 45 e8                 	movq	-24(%rbp), %rax
10000ecee: 48 05 01 00 00 00           	addq	$1, %rax
10000ecf4: 48 89 45 e8                 	movq	%rax, -24(%rbp)
10000ecf8: e9 6f ff ff ff              	jmp	-145 <_ft_strncmp+0x2c>
10000ecfd: c7 45 fc 00 00 00 00        	movl	$0, -4(%rbp)
10000ed04: 8b 45 fc                    	movl	-4(%rbp), %eax
10000ed07: 5d                          	popq	%rbp
10000ed08: c3                          	retq
10000ed09: 90                          	nop
10000ed0a: 90                          	nop
10000ed0b: 90                          	nop
10000ed0c: 90                          	nop
10000ed0d: 90                          	nop
10000ed0e: 90                          	nop
10000ed0f: 90                          	nop

000000010000ed10 _ft_substr:
10000ed10: 55                          	pushq	%rbp
10000ed11: 48 89 e5                    	movq	%rsp, %rbp
10000ed14: 48 83 ec 40                 	subq	$64, %rsp
10000ed18: 48 89 7d f0                 	movq	%rdi, -16(%rbp)
10000ed1c: 89 75 ec                    	movl	%esi, -20(%rbp)
10000ed1f: 48 89 55 e0                 	movq	%rdx, -32(%rbp)
10000ed23: 48 83 7d f0 00              	cmpq	$0, -16(%rbp)
10000ed28: 0f 85 0d 00 00 00           	jne	13 <_ft_substr+0x2b>
10000ed2e: 48 c7 45 f8 00 00 00 00     	movq	$0, -8(%rbp)
10000ed36: e9 ac 00 00 00              	jmp	172 <_ft_substr+0xd7>
10000ed3b: 8b 45 ec                    	movl	-20(%rbp), %eax
10000ed3e: 89 c1                       	movl	%eax, %ecx
10000ed40: 48 8b 7d f0                 	movq	-16(%rbp), %rdi
10000ed44: 48 89 4d c8                 	movq	%rcx, -56(%rbp)
10000ed48: e8 93 fe ff ff              	callq	-365 <_ft_strlen>
10000ed4d: 48 8b 4d c8                 	movq	-56(%rbp), %rcx
10000ed51: 48 39 c1                    	cmpq	%rax, %rcx
10000ed54: 0f 82 15 00 00 00           	jb	21 <_ft_substr+0x5f>
10000ed5a: 48 8d 3d ed 0b 00 00        	leaq	3053(%rip), %rdi
10000ed61: e8 da fd ff ff              	callq	-550 <_ft_strdup>
10000ed66: 48 89 45 f8                 	movq	%rax, -8(%rbp)
10000ed6a: e9 78 00 00 00              	jmp	120 <_ft_substr+0xd7>
10000ed6f: 48 8b 45 f0                 	movq	-16(%rbp), %rax
10000ed73: 8b 4d ec                    	movl	-20(%rbp), %ecx
10000ed76: 89 ca                       	movl	%ecx, %edx
10000ed78: 48 01 d0                    	addq	%rdx, %rax
10000ed7b: 48 89 c7                    	movq	%rax, %rdi
10000ed7e: e8 5d fe ff ff              	callq	-419 <_ft_strlen>
10000ed83: 48 89 45 d0                 	movq	%rax, -48(%rbp)
10000ed87: 48 8b 45 e0                 	movq	-32(%rbp), %rax
10000ed8b: 48 3b 45 d0                 	cmpq	-48(%rbp), %rax
10000ed8f: 0f 86 08 00 00 00           	jbe	8 <_ft_substr+0x8d>
10000ed95: 48 8b 45 d0                 	movq	-48(%rbp), %rax
10000ed99: 48 89 45 e0                 	movq	%rax, -32(%rbp)
10000ed9d: 48 8b 45 e0                 	movq	-32(%rbp), %rax
10000eda1: 48 05 01 00 00 00           	addq	$1, %rax
10000eda7: 48 89 c7                    	movq	%rax, %rdi
10000edaa: be 01 00 00 00              	movl	$1, %esi
10000edaf: e8 bc f9 ff ff              	callq	-1604 <_ft_calloc>
10000edb4: 48 89 45 d8                 	movq	%rax, -40(%rbp)
10000edb8: 48 83 7d d8 00              	cmpq	$0, -40(%rbp)
10000edbd: 0f 84 1c 00 00 00           	je	28 <_ft_substr+0xcf>
10000edc3: 48 8b 7d d8                 	movq	-40(%rbp), %rdi
10000edc7: 48 8b 45 f0                 	movq	-16(%rbp), %rax
10000edcb: 8b 4d ec                    	movl	-20(%rbp), %ecx
10000edce: 89 ca                       	movl	%ecx, %edx
10000edd0: 48 01 d0                    	addq	%rdx, %rax
10000edd3: 48 8b 55 e0                 	movq	-32(%rbp), %rdx
10000edd7: 48 89 c6                    	movq	%rax, %rsi
10000edda: e8 f1 fb ff ff              	callq	-1039 <_ft_memcpy>
10000eddf: 48 8b 45 d8                 	movq	-40(%rbp), %rax
10000ede3: 48 89 45 f8                 	movq	%rax, -8(%rbp)
10000ede7: 48 8b 45 f8                 	movq	-8(%rbp), %rax
10000edeb: 48 83 c4 40                 	addq	$64, %rsp
10000edef: 5d                          	popq	%rbp
10000edf0: c3                          	retq
10000edf1: 66 2e 0f 1f 84 00 00 00 00 00       	nopw	%cs:(%rax,%rax)
10000edfb: 0f 1f 44 00 00              	nopl	(%rax,%rax)

000000010000ee00 _ft_substr_skip_space:
10000ee00: 55                          	pushq	%rbp
10000ee01: 48 89 e5                    	movq	%rsp, %rbp
10000ee04: 48 83 ec 40                 	subq	$64, %rsp
10000ee08: 48 89 7d f0                 	movq	%rdi, -16(%rbp)
10000ee0c: 89 75 ec                    	movl	%esi, -20(%rbp)
10000ee0f: 48 89 55 e0                 	movq	%rdx, -32(%rbp)
10000ee13: 48 83 7d f0 00              	cmpq	$0, -16(%rbp)
10000ee18: 0f 85 0d 00 00 00           	jne	13 <_ft_substr_skip_space+0x2b>
10000ee1e: 48 c7 45 f8 00 00 00 00     	movq	$0, -8(%rbp)
10000ee26: e9 e7 00 00 00              	jmp	231 <_ft_substr_skip_space+0x112>
10000ee2b: 8b 45 ec                    	movl	-20(%rbp), %eax
10000ee2e: 89 c1                       	movl	%eax, %ecx
10000ee30: 48 8b 7d f0                 	movq	-16(%rbp), %rdi
10000ee34: 48 89 4d c8                 	movq	%rcx, -56(%rbp)
10000ee38: e8 a3 fd ff ff              	callq	-605 <_ft_strlen>
10000ee3d: 48 8b 4d c8                 	movq	-56(%rbp), %rcx
10000ee41: 48 39 c1                    	cmpq	%rax, %rcx
10000ee44: 0f 82 15 00 00 00           	jb	21 <_ft_substr_skip_space+0x5f>
10000ee4a: 48 8d 3d fd 0a 00 00        	leaq	2813(%rip), %rdi
10000ee51: e8 ea fc ff ff              	callq	-790 <_ft_strdup>
10000ee56: 48 89 45 f8                 	movq	%rax, -8(%rbp)
10000ee5a: e9 b3 00 00 00              	jmp	179 <_ft_substr_skip_space+0x112>
10000ee5f: e9 00 00 00 00              	jmp	0 <_ft_substr_skip_space+0x64>
10000ee64: 48 8b 45 f0                 	movq	-16(%rbp), %rax
10000ee68: 0f be 38                    	movsbl	(%rax), %edi
10000ee6b: e8 10 fa ff ff              	callq	-1520 <_ft_isspace>
10000ee70: 83 f8 00                    	cmpl	$0, %eax
10000ee73: 0f 84 21 00 00 00           	je	33 <_ft_substr_skip_space+0x9a>
10000ee79: 48 8b 45 f0                 	movq	-16(%rbp), %rax
10000ee7d: 48 05 01 00 00 00           	addq	$1, %rax
10000ee83: 48 89 45 f0                 	movq	%rax, -16(%rbp)
10000ee87: 48 8b 45 e0                 	movq	-32(%rbp), %rax
10000ee8b: 48 05 ff ff ff ff           	addq	$-1, %rax
10000ee91: 48 89 45 e0                 	movq	%rax, -32(%rbp)
10000ee95: e9 ca ff ff ff              	jmp	-54 <_ft_substr_skip_space+0x64>
10000ee9a: 48 8b 45 f0                 	movq	-16(%rbp), %rax
10000ee9e: 8b 4d ec                    	movl	-20(%rbp), %ecx
10000eea1: 89 ca                       	movl	%ecx, %edx
10000eea3: 48 01 d0                    	addq	%rdx, %rax
10000eea6: 48 89 c7                    	movq	%rax, %rdi
10000eea9: e8 32 fd ff ff              	callq	-718 <_ft_strlen>
10000eeae: 48 89 45 d0                 	movq	%rax, -48(%rbp)
10000eeb2: 48 8b 45 e0                 	movq	-32(%rbp), %rax
10000eeb6: 48 3b 45 d0                 	cmpq	-48(%rbp), %rax
10000eeba: 0f 86 08 00 00 00           	jbe	8 <_ft_substr_skip_space+0xc8>
10000eec0: 48 8b 45 d0                 	movq	-48(%rbp), %rax
10000eec4: 48 89 45 e0                 	movq	%rax, -32(%rbp)
10000eec8: 48 8b 45 e0                 	movq	-32(%rbp), %rax
10000eecc: 48 05 01 00 00 00           	addq	$1, %rax
10000eed2: 48 89 c7                    	movq	%rax, %rdi
10000eed5: be 01 00 00 00              	movl	$1, %esi
10000eeda: e8 91 f8 ff ff              	callq	-1903 <_ft_calloc>
10000eedf: 48 89 45 d8                 	movq	%rax, -40(%rbp)
10000eee3: 48 83 7d d8 00              	cmpq	$0, -40(%rbp)
10000eee8: 0f 84 1c 00 00 00           	je	28 <_ft_substr_skip_space+0x10a>
10000eeee: 48 8b 7d d8                 	movq	-40(%rbp), %rdi
10000eef2: 48 8b 45 f0                 	movq	-16(%rbp), %rax
10000eef6: 8b 4d ec                    	movl	-20(%rbp), %ecx
10000eef9: 89 ca                       	movl	%ecx, %edx
10000eefb: 48 01 d0                    	addq	%rdx, %rax
10000eefe: 48 8b 55 e0                 	movq	-32(%rbp), %rdx
10000ef02: 48 89 c6                    	movq	%rax, %rsi
10000ef05: e8 c6 fa ff ff              	callq	-1338 <_ft_memcpy>
10000ef0a: 48 8b 45 d8                 	movq	-40(%rbp), %rax
10000ef0e: 48 89 45 f8                 	movq	%rax, -8(%rbp)
10000ef12: 48 8b 45 f8                 	movq	-8(%rbp), %rax
10000ef16: 48 83 c4 40                 	addq	$64, %rsp
10000ef1a: 5d                          	popq	%rbp
10000ef1b: c3                          	retq
10000ef1c: 90                          	nop
10000ef1d: 90                          	nop
10000ef1e: 90                          	nop
10000ef1f: 90                          	nop

000000010000ef20 _ft_strjoin:
10000ef20: 55                          	pushq	%rbp
10000ef21: 48 89 e5                    	movq	%rsp, %rbp
10000ef24: 48 83 ec 40                 	subq	$64, %rsp
10000ef28: 48 89 7d f0                 	movq	%rdi, -16(%rbp)
10000ef2c: 48 89 75 e8                 	movq	%rsi, -24(%rbp)
10000ef30: 48 8b 7d f0                 	movq	-16(%rbp), %rdi
10000ef34: e8 a7 fc ff ff              	callq	-857 <_ft_strlen>
10000ef39: 48 89 45 d8                 	movq	%rax, -40(%rbp)
10000ef3d: 48 8b 7d e8                 	movq	-24(%rbp), %rdi
10000ef41: e8 9a fc ff ff              	callq	-870 <_ft_strlen>
10000ef46: 48 89 45 d0                 	movq	%rax, -48(%rbp)
10000ef4a: 48 8b 45 d8                 	movq	-40(%rbp), %rax
10000ef4e: 48 03 45 d0                 	addq	-48(%rbp), %rax
10000ef52: 48 05 01 00 00 00           	addq	$1, %rax
10000ef58: 48 89 c7                    	movq	%rax, %rdi
10000ef5b: be 01 00 00 00              	movl	$1, %esi
10000ef60: e8 0b f8 ff ff              	callq	-2037 <_ft_calloc>
10000ef65: 48 89 45 e0                 	movq	%rax, -32(%rbp)
10000ef69: 48 83 7d e0 00              	cmpq	$0, -32(%rbp)
10000ef6e: 0f 85 0d 00 00 00           	jne	13 <_ft_strjoin+0x61>
10000ef74: 48 c7 45 f8 00 00 00 00     	movq	$0, -8(%rbp)
10000ef7c: e9 35 00 00 00              	jmp	53 <_ft_strjoin+0x96>
10000ef81: 48 8b 7d e0                 	movq	-32(%rbp), %rdi
10000ef85: 48 8b 75 f0                 	movq	-16(%rbp), %rsi
10000ef89: 48 8b 55 d8                 	movq	-40(%rbp), %rdx
10000ef8d: e8 3e fa ff ff              	callq	-1474 <_ft_memcpy>
10000ef92: 48 8b 4d e0                 	movq	-32(%rbp), %rcx
10000ef96: 48 03 4d d8                 	addq	-40(%rbp), %rcx
10000ef9a: 48 8b 75 e8                 	movq	-24(%rbp), %rsi
10000ef9e: 48 8b 55 d0                 	movq	-48(%rbp), %rdx
10000efa2: 48 89 cf                    	movq	%rcx, %rdi
10000efa5: 48 89 45 c8                 	movq	%rax, -56(%rbp)
10000efa9: e8 22 fa ff ff              	callq	-1502 <_ft_memcpy>
10000efae: 48 8b 4d e0                 	movq	-32(%rbp), %rcx
10000efb2: 48 89 4d f8                 	movq	%rcx, -8(%rbp)
10000efb6: 48 8b 45 f8                 	movq	-8(%rbp), %rax
10000efba: 48 83 c4 40                 	addq	$64, %rsp
10000efbe: 5d                          	popq	%rbp
10000efbf: c3                          	retq

000000010000efc0 _ft_split:
10000efc0: 55                          	pushq	%rbp
10000efc1: 48 89 e5                    	movq	%rsp, %rbp
10000efc4: 48 83 ec 30                 	subq	$48, %rsp
10000efc8: 48 89 7d f0                 	movq	%rdi, -16(%rbp)
10000efcc: 40 88 75 ef                 	movb	%sil, -17(%rbp)
10000efd0: 48 83 7d f0 00              	cmpq	$0, -16(%rbp)
10000efd5: 0f 85 0d 00 00 00           	jne	13 <_ft_split+0x28>
10000efdb: 48 c7 45 f8 00 00 00 00     	movq	$0, -8(%rbp)
10000efe3: e9 a6 00 00 00              	jmp	166 <_ft_split+0xce>
10000efe8: 48 8b 7d f0                 	movq	-16(%rbp), %rdi
10000efec: 0f be 75 ef                 	movsbl	-17(%rbp), %esi
10000eff0: e8 ab 00 00 00              	callq	171 <_word_count>
10000eff5: 89 45 dc                    	movl	%eax, -36(%rbp)
10000eff8: 8b 45 dc                    	movl	-36(%rbp), %eax
10000effb: 83 c0 01                    	addl	$1, %eax
10000effe: 48 63 c8                    	movslq	%eax, %rcx
10000f001: 48 c1 e1 03                 	shlq	$3, %rcx
10000f005: 48 89 cf                    	movq	%rcx, %rdi
10000f008: e8 27 05 00 00              	callq	1319 <dyld_stub_binder+0x10000f534>
10000f00d: 48 89 45 e0                 	movq	%rax, -32(%rbp)
10000f011: 48 83 7d e0 00              	cmpq	$0, -32(%rbp)
10000f016: 0f 85 0d 00 00 00           	jne	13 <_ft_split+0x69>
10000f01c: 48 c7 45 f8 00 00 00 00     	movq	$0, -8(%rbp)
10000f024: e9 65 00 00 00              	jmp	101 <_ft_split+0xce>
10000f029: 48 8b 7d e0                 	movq	-32(%rbp), %rdi
10000f02d: 48 8b 75 f0                 	movq	-16(%rbp), %rsi
10000f031: 8a 45 ef                    	movb	-17(%rbp), %al
10000f034: 8b 4d dc                    	movl	-36(%rbp), %ecx
10000f037: 0f be d0                    	movsbl	%al, %edx
10000f03a: e8 e1 00 00 00              	callq	225 <_alloc_fill_strs>
10000f03f: 83 f8 00                    	cmpl	$0, %eax
10000f042: 0f 84 3e 00 00 00           	je	62 <_ft_split+0xc6>
10000f048: e9 00 00 00 00              	jmp	0 <_ft_split+0x8d>
10000f04d: 48 8b 45 e0                 	movq	-32(%rbp), %rax
10000f051: 48 83 38 00                 	cmpq	$0, (%rax)
10000f055: 0f 84 1f 00 00 00           	je	31 <_ft_split+0xba>
10000f05b: 48 8b 45 e0                 	movq	-32(%rbp), %rax
10000f05f: 48 89 c1                    	movq	%rax, %rcx
10000f062: 48 81 c1 08 00 00 00        	addq	$8, %rcx
10000f069: 48 89 4d e0                 	movq	%rcx, -32(%rbp)
10000f06d: 48 8b 38                    	movq	(%rax), %rdi
10000f070: e8 a7 04 00 00              	callq	1191 <dyld_stub_binder+0x10000f51c>
10000f075: e9 d3 ff ff ff              	jmp	-45 <_ft_split+0x8d>
10000f07a: 48 8b 45 e0                 	movq	-32(%rbp), %rax
10000f07e: 48 89 c7                    	movq	%rax, %rdi
10000f081: e8 96 04 00 00              	callq	1174 <dyld_stub_binder+0x10000f51c>
10000f086: 48 8b 45 e0                 	movq	-32(%rbp), %rax
10000f08a: 48 89 45 f8                 	movq	%rax, -8(%rbp)
10000f08e: 48 8b 45 f8                 	movq	-8(%rbp), %rax
10000f092: 48 83 c4 30                 	addq	$48, %rsp
10000f096: 5d                          	popq	%rbp
10000f097: c3                          	retq
10000f098: 0f 1f 84 00 00 00 00 00     	nopl	(%rax,%rax)

000000010000f0a0 _word_count:
10000f0a0: 55                          	pushq	%rbp
10000f0a1: 48 89 e5                    	movq	%rsp, %rbp
10000f0a4: 48 89 7d f8                 	movq	%rdi, -8(%rbp)
10000f0a8: 40 88 75 f7                 	movb	%sil, -9(%rbp)
10000f0ac: c7 45 f0 00 00 00 00        	movl	$0, -16(%rbp)
10000f0b3: 48 8b 45 f8                 	movq	-8(%rbp), %rax
10000f0b7: 48 89 c1                    	movq	%rax, %rcx
10000f0ba: 48 81 c1 01 00 00 00        	addq	$1, %rcx
10000f0c1: 48 89 4d f8                 	movq	%rcx, -8(%rbp)
10000f0c5: 80 38 00                    	cmpb	$0, (%rax)
10000f0c8: 0f 84 42 00 00 00           	je	66 <_word_count+0x70>
10000f0ce: 48 8b 45 f8                 	movq	-8(%rbp), %rax
10000f0d2: 0f be 48 ff                 	movsbl	-1(%rax), %ecx
10000f0d6: 0f be 55 f7                 	movsbl	-9(%rbp), %edx
10000f0da: 39 d1                       	cmpl	%edx, %ecx
10000f0dc: 0f 84 29 00 00 00           	je	41 <_word_count+0x6b>
10000f0e2: 48 8b 45 f8                 	movq	-8(%rbp), %rax
10000f0e6: 0f be 08                    	movsbl	(%rax), %ecx
10000f0e9: 0f be 55 f7                 	movsbl	-9(%rbp), %edx
10000f0ed: 39 d1                       	cmpl	%edx, %ecx
10000f0ef: 0f 84 0d 00 00 00           	je	13 <_word_count+0x62>
10000f0f5: 48 8b 45 f8                 	movq	-8(%rbp), %rax
10000f0f9: 80 38 00                    	cmpb	$0, (%rax)
10000f0fc: 0f 85 09 00 00 00           	jne	9 <_word_count+0x6b>
10000f102: 8b 45 f0                    	movl	-16(%rbp), %eax
10000f105: 83 c0 01                    	addl	$1, %eax
10000f108: 89 45 f0                    	movl	%eax, -16(%rbp)
10000f10b: e9 a3 ff ff ff              	jmp	-93 <_word_count+0x13>
10000f110: 8b 45 f0                    	movl	-16(%rbp), %eax
10000f113: 5d                          	popq	%rbp
10000f114: c3                          	retq
10000f115: 66 2e 0f 1f 84 00 00 00 00 00       	nopw	%cs:(%rax,%rax)
10000f11f: 90                          	nop

000000010000f120 _alloc_fill_strs:
10000f120: 55                          	pushq	%rbp
10000f121: 48 89 e5                    	movq	%rsp, %rbp
10000f124: 48 83 ec 30                 	subq	$48, %rsp
10000f128: 48 89 7d f0                 	movq	%rdi, -16(%rbp)
10000f12c: 48 89 75 e8                 	movq	%rsi, -24(%rbp)
10000f130: 88 55 e7                    	movb	%dl, -25(%rbp)
10000f133: 89 4d e0                    	movl	%ecx, -32(%rbp)
10000f136: 8b 45 e0                    	movl	-32(%rbp), %eax
10000f139: 89 c1                       	movl	%eax, %ecx
10000f13b: 83 c1 ff                    	addl	$-1, %ecx
10000f13e: 89 4d e0                    	movl	%ecx, -32(%rbp)
10000f141: 83 f8 00                    	cmpl	$0, %eax
10000f144: 0f 84 e5 00 00 00           	je	229 <_alloc_fill_strs+0x10f>
10000f14a: c7 45 dc 00 00 00 00        	movl	$0, -36(%rbp)
10000f151: 48 8b 45 e8                 	movq	-24(%rbp), %rax
10000f155: 0f be 08                    	movsbl	(%rax), %ecx
10000f158: 0f be 55 e7                 	movsbl	-25(%rbp), %edx
10000f15c: 39 d1                       	cmpl	%edx, %ecx
10000f15e: 0f 85 13 00 00 00           	jne	19 <_alloc_fill_strs+0x57>
10000f164: 48 8b 45 e8                 	movq	-24(%rbp), %rax
10000f168: 48 05 01 00 00 00           	addq	$1, %rax
10000f16e: 48 89 45 e8                 	movq	%rax, -24(%rbp)
10000f172: e9 da ff ff ff              	jmp	-38 <_alloc_fill_strs+0x31>
10000f177: e9 00 00 00 00              	jmp	0 <_alloc_fill_strs+0x5c>
10000f17c: 31 c0                       	xorl	%eax, %eax
10000f17e: 48 8b 4d e8                 	movq	-24(%rbp), %rcx
10000f182: 48 63 55 dc                 	movslq	-36(%rbp), %rdx
10000f186: 0f be 34 11                 	movsbl	(%rcx,%rdx), %esi
10000f18a: 0f be 7d e7                 	movsbl	-25(%rbp), %edi
10000f18e: 39 fe                       	cmpl	%edi, %esi
10000f190: 88 45 db                    	movb	%al, -37(%rbp)
10000f193: 0f 84 17 00 00 00           	je	23 <_alloc_fill_strs+0x90>
10000f199: 48 8b 45 e8                 	movq	-24(%rbp), %rax
10000f19d: 48 63 4d dc                 	movslq	-36(%rbp), %rcx
10000f1a1: 0f be 14 08                 	movsbl	(%rax,%rcx), %edx
10000f1a5: 83 fa 00                    	cmpl	$0, %edx
10000f1a8: 40 0f 95 c6                 	setne	%sil
10000f1ac: 40 88 75 db                 	movb	%sil, -37(%rbp)
10000f1b0: 8a 45 db                    	movb	-37(%rbp), %al
10000f1b3: a8 01                       	testb	$1, %al
10000f1b5: 0f 85 05 00 00 00           	jne	5 <_alloc_fill_strs+0xa0>
10000f1bb: e9 0e 00 00 00              	jmp	14 <_alloc_fill_strs+0xae>
10000f1c0: 8b 45 dc                    	movl	-36(%rbp), %eax
10000f1c3: 83 c0 01                    	addl	$1, %eax
10000f1c6: 89 45 dc                    	movl	%eax, -36(%rbp)
10000f1c9: e9 ae ff ff ff              	jmp	-82 <_alloc_fill_strs+0x5c>
10000f1ce: 83 7d dc 00                 	cmpl	$0, -36(%rbp)
10000f1d2: 0f 85 05 00 00 00           	jne	5 <_alloc_fill_strs+0xbd>
10000f1d8: e9 52 00 00 00              	jmp	82 <_alloc_fill_strs+0x10f>
10000f1dd: 31 f6                       	xorl	%esi, %esi
10000f1df: 48 8b 7d e8                 	movq	-24(%rbp), %rdi
10000f1e3: 48 63 55 dc                 	movslq	-36(%rbp), %rdx
10000f1e7: e8 24 fb ff ff              	callq	-1244 <_ft_substr>
10000f1ec: 48 8b 4d f0                 	movq	-16(%rbp), %rcx
10000f1f0: 48 89 01                    	movq	%rax, (%rcx)
10000f1f3: 48 83 7d f0 00              	cmpq	$0, -16(%rbp)
10000f1f8: 0f 85 0c 00 00 00           	jne	12 <_alloc_fill_strs+0xea>
10000f1fe: c7 45 fc 01 00 00 00        	movl	$1, -4(%rbp)
10000f205: e9 37 00 00 00              	jmp	55 <_alloc_fill_strs+0x121>
10000f20a: 8b 45 dc                    	movl	-36(%rbp), %eax
10000f20d: 48 8b 4d e8                 	movq	-24(%rbp), %rcx
10000f211: 48 63 d0                    	movslq	%eax, %rdx
10000f214: 48 01 d1                    	addq	%rdx, %rcx
10000f217: 48 89 4d e8                 	movq	%rcx, -24(%rbp)
10000f21b: 48 8b 4d f0                 	movq	-16(%rbp), %rcx
10000f21f: 48 81 c1 08 00 00 00        	addq	$8, %rcx
10000f226: 48 89 4d f0                 	movq	%rcx, -16(%rbp)
10000f22a: e9 07 ff ff ff              	jmp	-249 <_alloc_fill_strs+0x16>
10000f22f: 48 8b 45 f0                 	movq	-16(%rbp), %rax
10000f233: 48 c7 00 00 00 00 00        	movq	$0, (%rax)
10000f23a: c7 45 fc 00 00 00 00        	movl	$0, -4(%rbp)
10000f241: 8b 45 fc                    	movl	-4(%rbp), %eax
10000f244: 48 83 c4 30                 	addq	$48, %rsp
10000f248: 5d                          	popq	%rbp
10000f249: c3                          	retq
10000f24a: 90                          	nop
10000f24b: 90                          	nop
10000f24c: 90                          	nop
10000f24d: 90                          	nop
10000f24e: 90                          	nop
10000f24f: 90                          	nop

000000010000f250 _ft_putchar_fd:
10000f250: 55                          	pushq	%rbp
10000f251: 48 89 e5                    	movq	%rsp, %rbp
10000f254: 48 83 ec 10                 	subq	$16, %rsp
10000f258: 40 88 7d ff                 	movb	%dil, -1(%rbp)
10000f25c: 89 75 f8                    	movl	%esi, -8(%rbp)
10000f25f: 8b 7d f8                    	movl	-8(%rbp), %edi
10000f262: 48 8d 75 ff                 	leaq	-1(%rbp), %rsi
10000f266: ba 01 00 00 00              	movl	$1, %edx
10000f26b: e8 18 03 00 00              	callq	792 <dyld_stub_binder+0x10000f588>
10000f270: 48 83 c4 10                 	addq	$16, %rsp
10000f274: 5d                          	popq	%rbp
10000f275: c3                          	retq
10000f276: 90                          	nop
10000f277: 90                          	nop
10000f278: 90                          	nop
10000f279: 90                          	nop
10000f27a: 90                          	nop
10000f27b: 90                          	nop
10000f27c: 90                          	nop
10000f27d: 90                          	nop
10000f27e: 90                          	nop
10000f27f: 90                          	nop

000000010000f280 _ft_putendl_fd:
10000f280: 55                          	pushq	%rbp
10000f281: 48 89 e5                    	movq	%rsp, %rbp
10000f284: 48 83 ec 20                 	subq	$32, %rsp
10000f288: 48 89 7d f8                 	movq	%rdi, -8(%rbp)
10000f28c: 89 75 f4                    	movl	%esi, -12(%rbp)
10000f28f: 48 83 7d f8 00              	cmpq	$0, -8(%rbp)
10000f294: 0f 85 05 00 00 00           	jne	5 <_ft_putendl_fd+0x1f>
10000f29a: e9 41 00 00 00              	jmp	65 <_ft_putendl_fd+0x60>
10000f29f: 8b 7d f4                    	movl	-12(%rbp), %edi
10000f2a2: 48 8b 75 f8                 	movq	-8(%rbp), %rsi
10000f2a6: 48 8b 45 f8                 	movq	-8(%rbp), %rax
10000f2aa: 89 7d f0                    	movl	%edi, -16(%rbp)
10000f2ad: 48 89 c7                    	movq	%rax, %rdi
10000f2b0: 48 89 75 e8                 	movq	%rsi, -24(%rbp)
10000f2b4: e8 27 f9 ff ff              	callq	-1753 <_ft_strlen>
10000f2b9: 8b 7d f0                    	movl	-16(%rbp), %edi
10000f2bc: 48 8b 75 e8                 	movq	-24(%rbp), %rsi
10000f2c0: 48 89 c2                    	movq	%rax, %rdx
10000f2c3: e8 c0 02 00 00              	callq	704 <dyld_stub_binder+0x10000f588>
10000f2c8: 8b 7d f4                    	movl	-12(%rbp), %edi
10000f2cb: 48 8d 35 2b 08 00 00        	leaq	2091(%rip), %rsi
10000f2d2: ba 01 00 00 00              	movl	$1, %edx
10000f2d7: 48 89 45 e0                 	movq	%rax, -32(%rbp)
10000f2db: e8 a8 02 00 00              	callq	680 <dyld_stub_binder+0x10000f588>
10000f2e0: 48 83 c4 20                 	addq	$32, %rsp
10000f2e4: 5d                          	popq	%rbp
10000f2e5: c3                          	retq
10000f2e6: 90                          	nop
10000f2e7: 90                          	nop
10000f2e8: 90                          	nop
10000f2e9: 90                          	nop
10000f2ea: 90                          	nop
10000f2eb: 90                          	nop
10000f2ec: 90                          	nop
10000f2ed: 90                          	nop
10000f2ee: 90                          	nop
10000f2ef: 90                          	nop

000000010000f2f0 _ft_lstnew:
10000f2f0: 55                          	pushq	%rbp
10000f2f1: 48 89 e5                    	movq	%rsp, %rbp
10000f2f4: 48 83 ec 10                 	subq	$16, %rsp
10000f2f8: 48 89 7d f8                 	movq	%rdi, -8(%rbp)
10000f2fc: bf 10 00 00 00              	movl	$16, %edi
10000f301: e8 2e 02 00 00              	callq	558 <dyld_stub_binder+0x10000f534>
10000f306: 48 89 45 f0                 	movq	%rax, -16(%rbp)
10000f30a: 48 83 7d f0 00              	cmpq	$0, -16(%rbp)
10000f30f: 0f 84 17 00 00 00           	je	23 <_ft_lstnew+0x3c>
10000f315: 48 8b 45 f8                 	movq	-8(%rbp), %rax
10000f319: 48 8b 4d f0                 	movq	-16(%rbp), %rcx
10000f31d: 48 89 01                    	movq	%rax, (%rcx)
10000f320: 48 8b 45 f0                 	movq	-16(%rbp), %rax
10000f324: 48 c7 40 08 00 00 00 00     	movq	$0, 8(%rax)
10000f32c: 48 8b 45 f0                 	movq	-16(%rbp), %rax
10000f330: 48 83 c4 10                 	addq	$16, %rsp
10000f334: 5d                          	popq	%rbp
10000f335: c3                          	retq
10000f336: 90                          	nop
10000f337: 90                          	nop
10000f338: 90                          	nop
10000f339: 90                          	nop
10000f33a: 90                          	nop
10000f33b: 90                          	nop
10000f33c: 90                          	nop
10000f33d: 90                          	nop
10000f33e: 90                          	nop
10000f33f: 90                          	nop

000000010000f340 _ft_lstlast:
10000f340: 55                          	pushq	%rbp
10000f341: 48 89 e5                    	movq	%rsp, %rbp
10000f344: 48 89 7d f8                 	movq	%rdi, -8(%rbp)
10000f348: 48 83 7d f8 00              	cmpq	$0, -8(%rbp)
10000f34d: 0f 84 2a 00 00 00           	je	42 <_ft_lstlast+0x3d>
10000f353: e9 00 00 00 00              	jmp	0 <_ft_lstlast+0x18>
10000f358: 48 8b 45 f8                 	movq	-8(%rbp), %rax
10000f35c: 48 83 78 08 00              	cmpq	$0, 8(%rax)
10000f361: 0f 84 11 00 00 00           	je	17 <_ft_lstlast+0x38>
10000f367: 48 8b 45 f8                 	movq	-8(%rbp), %rax
10000f36b: 48 8b 40 08                 	movq	8(%rax), %rax
10000f36f: 48 89 45 f8                 	movq	%rax, -8(%rbp)
10000f373: e9 e0 ff ff ff              	jmp	-32 <_ft_lstlast+0x18>
10000f378: e9 00 00 00 00              	jmp	0 <_ft_lstlast+0x3d>
10000f37d: 48 8b 45 f8                 	movq	-8(%rbp), %rax
10000f381: 5d                          	popq	%rbp
10000f382: c3                          	retq
10000f383: 90                          	nop
10000f384: 90                          	nop
10000f385: 90                          	nop
10000f386: 90                          	nop
10000f387: 90                          	nop
10000f388: 90                          	nop
10000f389: 90                          	nop
10000f38a: 90                          	nop
10000f38b: 90                          	nop
10000f38c: 90                          	nop
10000f38d: 90                          	nop
10000f38e: 90                          	nop
10000f38f: 90                          	nop

000000010000f390 _ft_lstadd_back:
10000f390: 55                          	pushq	%rbp
10000f391: 48 89 e5                    	movq	%rsp, %rbp
10000f394: 48 83 ec 20                 	subq	$32, %rsp
10000f398: 48 89 7d f8                 	movq	%rdi, -8(%rbp)
10000f39c: 48 89 75 f0                 	movq	%rsi, -16(%rbp)
10000f3a0: 48 c7 45 e8 00 00 00 00     	movq	$0, -24(%rbp)
10000f3a8: 48 83 7d f0 00              	cmpq	$0, -16(%rbp)
10000f3ad: 0f 84 0b 00 00 00           	je	11 <_ft_lstadd_back+0x2e>
10000f3b3: 48 83 7d f8 00              	cmpq	$0, -8(%rbp)
10000f3b8: 0f 85 05 00 00 00           	jne	5 <_ft_lstadd_back+0x33>
10000f3be: e9 3a 00 00 00              	jmp	58 <_ft_lstadd_back+0x6d>
10000f3c3: 48 8b 45 f8                 	movq	-8(%rbp), %rax
10000f3c7: 48 83 38 00                 	cmpq	$0, (%rax)
10000f3cb: 0f 85 10 00 00 00           	jne	16 <_ft_lstadd_back+0x51>
10000f3d1: 48 8b 45 f0                 	movq	-16(%rbp), %rax
10000f3d5: 48 8b 4d f8                 	movq	-8(%rbp), %rcx
10000f3d9: 48 89 01                    	movq	%rax, (%rcx)
10000f3dc: e9 1c 00 00 00              	jmp	28 <_ft_lstadd_back+0x6d>
10000f3e1: 48 8b 45 f8                 	movq	-8(%rbp), %rax
10000f3e5: 48 8b 38                    	movq	(%rax), %rdi
10000f3e8: e8 53 ff ff ff              	callq	-173 <_ft_lstlast>
10000f3ed: 48 89 45 e8                 	movq	%rax, -24(%rbp)
10000f3f1: 48 8b 45 f0                 	movq	-16(%rbp), %rax
10000f3f5: 48 8b 4d e8                 	movq	-24(%rbp), %rcx
10000f3f9: 48 89 41 08                 	movq	%rax, 8(%rcx)
10000f3fd: 48 83 c4 20                 	addq	$32, %rsp
10000f401: 5d                          	popq	%rbp
10000f402: c3                          	retq
10000f403: 90                          	nop
10000f404: 90                          	nop
10000f405: 90                          	nop
10000f406: 90                          	nop
10000f407: 90                          	nop
10000f408: 90                          	nop
10000f409: 90                          	nop
10000f40a: 90                          	nop
10000f40b: 90                          	nop
10000f40c: 90                          	nop
10000f40d: 90                          	nop
10000f40e: 90                          	nop
10000f40f: 90                          	nop

000000010000f410 _ft_lstdelone:
10000f410: 55                          	pushq	%rbp
10000f411: 48 89 e5                    	movq	%rsp, %rbp
10000f414: 48 83 ec 10                 	subq	$16, %rsp
10000f418: 48 89 7d f8                 	movq	%rdi, -8(%rbp)
10000f41c: 48 89 75 f0                 	movq	%rsi, -16(%rbp)
10000f420: 48 83 7d f8 00              	cmpq	$0, -8(%rbp)
10000f425: 0f 84 0b 00 00 00           	je	11 <_ft_lstdelone+0x26>
10000f42b: 48 83 7d f0 00              	cmpq	$0, -16(%rbp)
10000f430: 0f 85 05 00 00 00           	jne	5 <_ft_lstdelone+0x2b>
10000f436: e9 19 00 00 00              	jmp	25 <_ft_lstdelone+0x44>
10000f43b: 48 8b 45 f0                 	movq	-16(%rbp), %rax
10000f43f: 48 8b 4d f8                 	movq	-8(%rbp), %rcx
10000f443: 48 8b 39                    	movq	(%rcx), %rdi
10000f446: ff d0                       	callq	*%rax
10000f448: 48 8b 45 f8                 	movq	-8(%rbp), %rax
10000f44c: 48 89 c7                    	movq	%rax, %rdi
10000f44f: e8 c8 00 00 00              	callq	200 <dyld_stub_binder+0x10000f51c>
10000f454: 48 83 c4 10                 	addq	$16, %rsp
10000f458: 5d                          	popq	%rbp
10000f459: c3                          	retq
10000f45a: 90                          	nop
10000f45b: 90                          	nop
10000f45c: 90                          	nop
10000f45d: 90                          	nop
10000f45e: 90                          	nop
10000f45f: 90                          	nop

000000010000f460 _ft_lstclear:
10000f460: 55                          	pushq	%rbp
10000f461: 48 89 e5                    	movq	%rsp, %rbp
10000f464: 48 83 ec 20                 	subq	$32, %rsp
10000f468: 48 89 7d f8                 	movq	%rdi, -8(%rbp)
10000f46c: 48 89 75 f0                 	movq	%rsi, -16(%rbp)
10000f470: 48 83 7d f8 00              	cmpq	$0, -8(%rbp)
10000f475: 0f 84 0b 00 00 00           	je	11 <_ft_lstclear+0x26>
10000f47b: 48 83 7d f0 00              	cmpq	$0, -16(%rbp)
10000f480: 0f 85 05 00 00 00           	jne	5 <_ft_lstclear+0x2b>
10000f486: e9 42 00 00 00              	jmp	66 <_ft_lstclear+0x6d>
10000f48b: e9 00 00 00 00              	jmp	0 <_ft_lstclear+0x30>
10000f490: 48 8b 45 f8                 	movq	-8(%rbp), %rax
10000f494: 48 83 38 00                 	cmpq	$0, (%rax)
10000f498: 0f 84 2f 00 00 00           	je	47 <_ft_lstclear+0x6d>
10000f49e: 48 8b 45 f8                 	movq	-8(%rbp), %rax
10000f4a2: 48 8b 00                    	movq	(%rax), %rax
10000f4a5: 48 8b 40 08                 	movq	8(%rax), %rax
10000f4a9: 48 89 45 e8                 	movq	%rax, -24(%rbp)
10000f4ad: 48 8b 45 f8                 	movq	-8(%rbp), %rax
10000f4b1: 48 8b 38                    	movq	(%rax), %rdi
10000f4b4: 48 8b 75 f0                 	movq	-16(%rbp), %rsi
10000f4b8: e8 53 ff ff ff              	callq	-173 <_ft_lstdelone>
10000f4bd: 48 8b 45 e8                 	movq	-24(%rbp), %rax
10000f4c1: 48 8b 4d f8                 	movq	-8(%rbp), %rcx
10000f4c5: 48 89 01                    	movq	%rax, (%rcx)
10000f4c8: e9 c3 ff ff ff              	jmp	-61 <_ft_lstclear+0x30>
10000f4cd: 48 83 c4 20                 	addq	$32, %rsp
10000f4d1: 5d                          	popq	%rbp
10000f4d2: c3                          	retq

Disassembly of section __TEXT,__stubs:

000000010000f4d4 __stubs:
10000f4d4: ff 25 26 4b 00 00           	jmpq	*19238(%rip)
10000f4da: ff 25 28 4b 00 00           	jmpq	*19240(%rip)
10000f4e0: ff 25 2a 4b 00 00           	jmpq	*19242(%rip)
10000f4e6: ff 25 2c 4b 00 00           	jmpq	*19244(%rip)
10000f4ec: ff 25 2e 4b 00 00           	jmpq	*19246(%rip)
10000f4f2: ff 25 30 4b 00 00           	jmpq	*19248(%rip)
10000f4f8: ff 25 32 4b 00 00           	jmpq	*19250(%rip)
10000f4fe: ff 25 34 4b 00 00           	jmpq	*19252(%rip)
10000f504: ff 25 36 4b 00 00           	jmpq	*19254(%rip)
10000f50a: ff 25 38 4b 00 00           	jmpq	*19256(%rip)
10000f510: ff 25 3a 4b 00 00           	jmpq	*19258(%rip)
10000f516: ff 25 3c 4b 00 00           	jmpq	*19260(%rip)
10000f51c: ff 25 3e 4b 00 00           	jmpq	*19262(%rip)
10000f522: ff 25 40 4b 00 00           	jmpq	*19264(%rip)
10000f528: ff 25 42 4b 00 00           	jmpq	*19266(%rip)
10000f52e: ff 25 44 4b 00 00           	jmpq	*19268(%rip)
10000f534: ff 25 46 4b 00 00           	jmpq	*19270(%rip)
10000f53a: ff 25 48 4b 00 00           	jmpq	*19272(%rip)
10000f540: ff 25 4a 4b 00 00           	jmpq	*19274(%rip)
10000f546: ff 25 4c 4b 00 00           	jmpq	*19276(%rip)
10000f54c: ff 25 4e 4b 00 00           	jmpq	*19278(%rip)
10000f552: ff 25 50 4b 00 00           	jmpq	*19280(%rip)
10000f558: ff 25 52 4b 00 00           	jmpq	*19282(%rip)
10000f55e: ff 25 54 4b 00 00           	jmpq	*19284(%rip)
10000f564: ff 25 56 4b 00 00           	jmpq	*19286(%rip)
10000f56a: ff 25 58 4b 00 00           	jmpq	*19288(%rip)
10000f570: ff 25 5a 4b 00 00           	jmpq	*19290(%rip)
10000f576: ff 25 5c 4b 00 00           	jmpq	*19292(%rip)
10000f57c: ff 25 5e 4b 00 00           	jmpq	*19294(%rip)
10000f582: ff 25 60 4b 00 00           	jmpq	*19296(%rip)
10000f588: ff 25 62 4b 00 00           	jmpq	*19298(%rip)

Disassembly of section __TEXT,__stub_helper:

000000010000f590 __stub_helper:
10000f590: 4c 8d 1d 61 4b 00 00        	leaq	19297(%rip), %r11
10000f597: 41 53                       	pushq	%r11
10000f599: ff 25 79 0a 00 00           	jmpq	*2681(%rip)
10000f59f: 90                          	nop
10000f5a0: 68 35 00 00 00              	pushq	$53
10000f5a5: e9 e6 ff ff ff              	jmp	-26 <__stub_helper>
10000f5aa: 68 6d 01 00 00              	pushq	$365
10000f5af: e9 dc ff ff ff              	jmp	-36 <__stub_helper>
10000f5b4: 68 00 00 00 00              	pushq	$0
10000f5b9: e9 d2 ff ff ff              	jmp	-46 <__stub_helper>
10000f5be: 68 0f 00 00 00              	pushq	$15
10000f5c3: e9 c8 ff ff ff              	jmp	-56 <__stub_helper>
10000f5c8: 68 27 00 00 00              	pushq	$39
10000f5cd: e9 be ff ff ff              	jmp	-66 <__stub_helper>
10000f5d2: 68 48 00 00 00              	pushq	$72
10000f5d7: e9 b4 ff ff ff              	jmp	-76 <__stub_helper>
10000f5dc: 68 56 00 00 00              	pushq	$86
10000f5e1: e9 aa ff ff ff              	jmp	-86 <__stub_helper>
10000f5e6: 68 63 00 00 00              	pushq	$99
10000f5eb: e9 a0 ff ff ff              	jmp	-96 <__stub_helper>
10000f5f0: 68 70 00 00 00              	pushq	$112
10000f5f5: e9 96 ff ff ff              	jmp	-106 <__stub_helper>
10000f5fa: 68 80 00 00 00              	pushq	$128
10000f5ff: e9 8c ff ff ff              	jmp	-116 <__stub_helper>
10000f604: 68 8c 00 00 00              	pushq	$140
10000f609: e9 82 ff ff ff              	jmp	-126 <__stub_helper>
10000f60e: 68 9a 00 00 00              	pushq	$154
10000f613: e9 78 ff ff ff              	jmp	-136 <__stub_helper>
10000f618: 68 a6 00 00 00              	pushq	$166
10000f61d: e9 6e ff ff ff              	jmp	-146 <__stub_helper>
10000f622: 68 b2 00 00 00              	pushq	$178
10000f627: e9 64 ff ff ff              	jmp	-156 <__stub_helper>
10000f62c: 68 be 00 00 00              	pushq	$190
10000f631: e9 5a ff ff ff              	jmp	-166 <__stub_helper>
10000f636: 68 cc 00 00 00              	pushq	$204
10000f63b: e9 50 ff ff ff              	jmp	-176 <__stub_helper>
10000f640: 68 da 00 00 00              	pushq	$218
10000f645: e9 46 ff ff ff              	jmp	-186 <__stub_helper>
10000f64a: 68 e9 00 00 00              	pushq	$233
10000f64f: e9 3c ff ff ff              	jmp	-196 <__stub_helper>
10000f654: 68 f8 00 00 00              	pushq	$248
10000f659: e9 32 ff ff ff              	jmp	-206 <__stub_helper>
10000f65e: 68 05 01 00 00              	pushq	$261
10000f663: e9 28 ff ff ff              	jmp	-216 <__stub_helper>
10000f668: 68 1d 01 00 00              	pushq	$285
10000f66d: e9 1e ff ff ff              	jmp	-226 <__stub_helper>
10000f672: 68 2c 01 00 00              	pushq	$300
10000f677: e9 14 ff ff ff              	jmp	-236 <__stub_helper>
10000f67c: 68 39 01 00 00              	pushq	$313
10000f681: e9 0a ff ff ff              	jmp	-246 <__stub_helper>
10000f686: 68 48 01 00 00              	pushq	$328
10000f68b: e9 00 ff ff ff              	jmp	-256 <__stub_helper>
10000f690: 68 55 01 00 00              	pushq	$341
10000f695: e9 f6 fe ff ff              	jmp	-266 <__stub_helper>
10000f69a: 68 7e 01 00 00              	pushq	$382
10000f69f: e9 ec fe ff ff              	jmp	-276 <__stub_helper>
10000f6a4: 68 93 01 00 00              	pushq	$403
10000f6a9: e9 e2 fe ff ff              	jmp	-286 <__stub_helper>
10000f6ae: 68 a4 01 00 00              	pushq	$420
10000f6b3: e9 d8 fe ff ff              	jmp	-296 <__stub_helper>
10000f6b8: 68 b4 01 00 00              	pushq	$436
10000f6bd: e9 ce fe ff ff              	jmp	-306 <__stub_helper>
10000f6c2: 68 c3 01 00 00              	pushq	$451
10000f6c7: e9 c4 fe ff ff              	jmp	-316 <__stub_helper>
10000f6cc: 68 d3 01 00 00              	pushq	$467
10000f6d1: e9 ba fe ff ff              	jmp	-326 <__stub_helper>

Disassembly of section __TEXT,__cstring:

000000010000f6d6 __cstring:
10000f6d6: 6c                          	insb	%dx, %es:(%rdi)
10000f6d7: 65 61                       	<unknown>
10000f6d9: 6b 73 20 6d                 	imull	$109, 32(%rbx), %esi
10000f6dd: 69 6e 69 73 68 65 6c        	imull	$1818585203, 105(%rsi), %ebp
10000f6e4: 6c                          	insb	%dx, %es:(%rdi)
10000f6e5: 00 2e                       	addb	%ch, (%rsi)
10000f6e7: 00 20                       	addb	%ah, (%rax)
10000f6e9: 00 23                       	addb	%ah, (%rbx)
10000f6eb: 6d                          	insl	%dx, %es:(%rdi)
10000f6ec: 69 6e 69 73 68 65 6c        	imull	$1818585203, 105(%rsi), %ebp
10000f6f3: 6c                          	insb	%dx, %es:(%rdi)
10000f6f4: 3e 20 00                    	andb	%al, %ds:(%rax)
10000f6f7: 65 78 69                    	js	105 <__cstring+0x8d>
10000f6fa: 74 00                       	je	0 <__cstring+0x26>
10000f6fc: 64 65 73 74                 	jae	116 <__cstring+0x9e>
10000f700: 72 75                       	jb	117 <__cstring+0xa1>
10000f702: 63 74 6f 72                 	movslq	114(%rdi,%rbp,2), %esi
10000f706: 20 70 69                    	andb	%dh, 105(%rax)
10000f709: 70 65                       	jo	101 <__cstring+0x9a>
10000f70b: 20 63 61                    	andb	%ah, 97(%rbx)
10000f70e: 6c                          	insb	%dx, %es:(%rdi)
10000f70f: 6c                          	insb	%dx, %es:(%rdi)
10000f710: 65 64 20 0a                 	andb	%cl, %fs:(%rdx)
10000f714: 00 64 65 73                 	addb	%ah, 115(%rbp,%riz,2)
10000f718: 74 72                       	je	114 <__cstring+0xb6>
10000f71a: 75 63                       	jne	99 <__cstring+0xa9>
10000f71c: 74 6f                       	je	111 <__cstring+0xb7>
10000f71e: 72 20                       	jb	32 <__cstring+0x6a>
10000f720: 65 78 65                    	js	101 <__cstring+0xb2>
10000f723: 63 63 6d                    	movslq	109(%rbx), %esp
10000f726: 64 20 63 61                 	andb	%ah, %fs:97(%rbx)
10000f72a: 6c                          	insb	%dx, %es:(%rdi)
10000f72b: 6c                          	insb	%dx, %es:(%rdi)
10000f72c: 65 64 20 0a                 	andb	%cl, %fs:(%rdx)
10000f730: 00 64 65 73                 	addb	%ah, 115(%rbp,%riz,2)
10000f734: 74 72                       	je	114 <__cstring+0xd2>
10000f736: 75 63                       	jne	99 <__cstring+0xc5>
10000f738: 74 6f                       	je	111 <__cstring+0xd3>
10000f73a: 72 20                       	jb	32 <__cstring+0x86>
10000f73c: 72 65                       	jb	101 <__cstring+0xcd>
10000f73e: 64 69 72 20 63 61 6c 6c     	imull	$1819042147, %fs:32(%rdx), %esi
10000f746: 65 64 20 0a                 	andb	%cl, %fs:(%rdx)
10000f74a: 00 64 65 73                 	addb	%ah, 115(%rbp,%riz,2)
10000f74e: 74 72                       	je	114 <__cstring+0xec>
10000f750: 75 63                       	jne	99 <__cstring+0xdf>
10000f752: 74 6f                       	je	111 <__cstring+0xed>
10000f754: 72 20                       	jb	32 <__cstring+0xa0>
10000f756: 61                          	<unknown>
10000f757: 6e                          	outsb	(%rsi), %dx
10000f758: 64 20 63 61                 	andb	%ah, %fs:97(%rbx)
10000f75c: 6c                          	insb	%dx, %es:(%rdi)
10000f75d: 6c                          	insb	%dx, %es:(%rdi)
10000f75e: 65 64 20 0a                 	andb	%cl, %fs:(%rdx)
10000f762: 00 64 65 73                 	addb	%ah, 115(%rbp,%riz,2)
10000f766: 74 72                       	je	114 <__cstring+0x104>
10000f768: 75 63                       	jne	99 <__cstring+0xf7>
10000f76a: 74 6f                       	je	111 <__cstring+0x105>
10000f76c: 72 20                       	jb	32 <__cstring+0xb8>
10000f76e: 6f                          	outsl	(%rsi), %dx
10000f76f: 72 20                       	jb	32 <__cstring+0xbb>
10000f771: 63 61 6c                    	movslq	108(%rcx), %esp
10000f774: 6c                          	insb	%dx, %es:(%rdi)
10000f775: 65 64 20 0a                 	andb	%cl, %fs:(%rdx)
10000f779: 00 64 65 73                 	addb	%ah, 115(%rbp,%riz,2)
10000f77d: 74 72                       	je	114 <__cstring+0x11b>
10000f77f: 75 63                       	jne	99 <__cstring+0x10e>
10000f781: 74 6f                       	je	111 <__cstring+0x11c>
10000f783: 72 20                       	jb	32 <__cstring+0xcf>
10000f785: 69 6e 76 61 6c 69 64        	imull	$1684630625, 118(%rsi), %ebp
10000f78c: 20 63 61                    	andb	%ah, 97(%rbx)
10000f78f: 6c                          	insb	%dx, %es:(%rdi)
10000f790: 6c                          	insb	%dx, %es:(%rdi)
10000f791: 65 64 20 0a                 	andb	%cl, %fs:(%rdx)
10000f795: 20 00                       	andb	%al, (%rax)
10000f797: 64 65 73 74                 	jae	116 <__cstring+0x139>
10000f79b: 72 75                       	jb	117 <__cstring+0x13c>
10000f79d: 63 74 6f 72                 	movslq	114(%rdi,%rbp,2), %esi
10000f7a1: 20 62 75                    	andb	%ah, 117(%rdx)
10000f7a4: 69 6c 74 69 6e 20 63 61     	imull	$1633886318, 105(%rsp,%rsi,2), %ebp
10000f7ac: 6c                          	insb	%dx, %es:(%rdi)
10000f7ad: 6c                          	insb	%dx, %es:(%rdi)
10000f7ae: 65 64 20 0a                 	andb	%cl, %fs:(%rdx)
10000f7b2: 00 64 65 73                 	addb	%ah, 115(%rbp,%riz,2)
10000f7b6: 74 72                       	je	114 <__cstring+0x154>
10000f7b8: 75 63                       	jne	99 <__cstring+0x147>
10000f7ba: 74 6f                       	je	111 <__cstring+0x155>
10000f7bc: 72 20                       	jb	32 <__cstring+0x108>
10000f7be: 61                          	<unknown>
10000f7bf: 73 73                       	jae	115 <__cstring+0x15e>
10000f7c1: 69 67 6e 65 6d 65 6e        	imull	$1852140901, 110(%rdi), %esp
10000f7c8: 74 20                       	je	32 <__cstring+0x114>
10000f7ca: 63 61 6c                    	movslq	108(%rcx), %esp
10000f7cd: 6c                          	insb	%dx, %es:(%rdi)
10000f7ce: 65 64 20 0a                 	andb	%cl, %fs:(%rdx)
10000f7d2: 00 63 64                    	addb	%ah, 100(%rbx)
10000f7d5: 3a 20                       	cmpb	(%rax), %ah
10000f7d7: 70 65                       	jo	101 <__cstring+0x168>
10000f7d9: 72 6d                       	jb	109 <__cstring+0x172>
10000f7db: 69 73 73 69 6f 6e 20        	imull	$544108393, 115(%rbx), %esi
10000f7e2: 64 65 6e                    	outsb	%gs:(%rsi), %dx
10000f7e5: 69 65 64 3a 20 25 73        	imull	$1931812922, 100(%rbp), %esp
10000f7ec: 0a 00                       	orb	(%rax), %al
10000f7ee: 50                          	pushq	%rax
10000f7ef: 57                          	pushq	%rdi
10000f7f0: 44 3d 00 4f 4c 44           	cmpl	$1145851648, %eax
10000f7f6: 50                          	pushq	%rax
10000f7f7: 57                          	pushq	%rdi
10000f7f8: 44 3d 00 7b 7b 25           	cmpl	$628849408, %eax
10000f7fe: 73 7d                       	jae	125 <__cstring+0x1a7>
10000f800: 7d 0a                       	jge	10 <__cstring+0x136>
10000f802: 00 2f                       	addb	%ch, (%rdi)
10000f804: 00 48 4f                    	addb	%cl, 79(%rax)
10000f807: 4d 45                       	<unknown>
10000f809: 3d 00 6d 69 6e              	cmpl	$1852402944, %eax
10000f80e: 69 73 68 65 6c 6c 20        	imull	$543976549, 104(%rbx), %esi
10000f815: 3a 20                       	cmpb	(%rax), %ah
10000f817: 63 64 3a 20                 	movslq	32(%rdx,%rdi), %esp
10000f81b: 48 4f                       	<unknown>
10000f81d: 4d 45                       	<unknown>
10000f81f: 20 6e 6f                    	andb	%ch, 111(%rsi)
10000f822: 74 20                       	je	32 <__cstring+0x16e>
10000f824: 73 65                       	jae	101 <__cstring+0x1b5>
10000f826: 74 00                       	je	0 <__cstring+0x152>
10000f828: 6d                          	insl	%dx, %es:(%rdi)
10000f829: 69 6e 69 73 68 65 6c        	imull	$1818585203, 105(%rsi), %ebp
10000f830: 6c                          	insb	%dx, %es:(%rdi)
10000f831: 20 3a                       	andb	%bh, (%rdx)
10000f833: 20 63 64                    	andb	%ah, 100(%rbx)
10000f836: 3a 20                       	cmpb	(%rax), %ah
10000f838: 4f 4c                       	<unknown>
10000f83a: 44 50                       	pushq	%rax
10000f83c: 57                          	pushq	%rdi
10000f83d: 44 20 6e 6f                 	andb	%r13b, 111(%rsi)
10000f841: 74 20                       	je	32 <__cstring+0x18d>
10000f843: 73 65                       	jae	101 <__cstring+0x1d4>
10000f845: 74 00                       	je	0 <__cstring+0x171>
10000f847: 63 64 3a 20                 	movslq	32(%rdx,%rdi), %esp
10000f84b: 25 73 3a 20 25              	andl	$622869107, %eax
10000f850: 73 0a                       	jae	10 <__cstring+0x186>
10000f852: 00 4e 6f                    	addb	%cl, 111(%rsi)
10000f855: 20 73 75                    	andb	%dh, 117(%rbx)
10000f858: 63 68 20                    	movslq	32(%rax), %ebp
10000f85b: 66 69 6c 65 20 6f 72        	imulw	$29295, 32(%rbp,%riz,2), %bp
10000f862: 20 64 69 72                 	andb	%ah, 114(%rcx,%rbp,2)
10000f866: 65 63 74 6f 72              	movslq	%gs:114(%rdi,%rbp,2), %esi
10000f86b: 79 00                       	jns	0 <__cstring+0x197>
10000f86d: 2e 2e 00 20                 	addb	%ah, %cs:(%rax)
10000f871: 25 73 20 2d 2d              	andl	$757932147, %eax
10000f876: 2d 20 25 64 20              	subl	$543434016, %eax
10000f87b: 2d 2d 2d 0a 00              	subl	$666925, %eax
10000f880: 61                          	<unknown>
10000f881: 6c                          	insb	%dx, %es:(%rdi)
10000f882: 6f                          	outsl	(%rsi), %dx
10000f883: 00 63 64                    	addb	%ah, 100(%rbx)
10000f886: 3a 20                       	cmpb	(%rax), %ah
10000f888: 25 73 3a 20 4e              	andl	$1310734963, %eax
10000f88d: 6f                          	outsl	(%rsi), %dx
10000f88e: 20 73 75                    	andb	%dh, 117(%rbx)
10000f891: 63 68 20                    	movslq	32(%rax), %ebp
10000f894: 66 69 6c 65 20 6f 72        	imulw	$29295, 32(%rbp,%riz,2), %bp
10000f89b: 20 64 69 72                 	andb	%ah, 114(%rcx,%rbp,2)
10000f89f: 65 63 74 6f 72              	movslq	%gs:114(%rdi,%rbp,2), %esi
10000f8a4: 79 00                       	jns	0 <__cstring+0x1d0>
10000f8a6: 2d 2d 2d 20 63              	subl	$1663053101, %eax
10000f8ab: 6f                          	outsl	(%rsi), %dx
10000f8ac: 75 6e                       	jne	110 <__cstring+0x246>
10000f8ae: 74 20                       	je	32 <__cstring+0x1fa>
10000f8b0: 3d 20 25 64 0a              	cmpl	$174335264, %eax
10000f8b5: 00 63 64                    	addb	%ah, 100(%rbx)
10000f8b8: 3a 20                       	cmpb	(%rax), %ah
10000f8ba: 65 72 72                    	jb	114 <__cstring+0x259>
10000f8bd: 6f                          	outsl	(%rsi), %dx
10000f8be: 72 20                       	jb	32 <__cstring+0x20a>
10000f8c0: 72 65                       	jb	101 <__cstring+0x251>
10000f8c2: 74 72                       	je	114 <__cstring+0x260>
10000f8c4: 69 65 76 69 6e 67 20        	imull	$543649385, 118(%rbp), %esp
10000f8cb: 63 75 72                    	movslq	114(%rbp), %esi
10000f8ce: 72 65                       	jb	101 <__cstring+0x25f>
10000f8d0: 6e                          	outsb	(%rsi), %dx
10000f8d1: 74 20                       	je	32 <__cstring+0x21d>
10000f8d3: 64 69 72 65 63 74 6f 72     	imull	$1919906915, %fs:101(%rdx), %esi
10000f8db: 79 3a                       	jns	58 <__cstring+0x241>
10000f8dd: 20 67 65                    	andb	%ah, 101(%rdi)
10000f8e0: 74 63                       	je	99 <__cstring+0x26f>
10000f8e2: 77 64                       	ja	100 <__cstring+0x272>
10000f8e4: 3a 20                       	cmpb	(%rax), %ah
10000f8e6: 63 61 6e                    	movslq	110(%rcx), %esp
10000f8e9: 6e                          	outsb	(%rsi), %dx
10000f8ea: 6f                          	outsl	(%rsi), %dx
10000f8eb: 74 20                       	je	32 <__cstring+0x237>
10000f8ed: 61                          	<unknown>
10000f8ee: 63 63 65                    	movslq	101(%rbx), %esp
10000f8f1: 73 73                       	jae	115 <__cstring+0x290>
10000f8f3: 20 70 61                    	andb	%dh, 97(%rax)
10000f8f6: 72 65                       	jb	101 <__cstring+0x287>
10000f8f8: 6e                          	outsb	(%rsi), %dx
10000f8f9: 74 20                       	je	32 <__cstring+0x245>
10000f8fb: 64 69 72 65 63 74 6f 72     	imull	$1919906915, %fs:101(%rdx), %esi
10000f903: 69 65 73 3a 20 25 73        	imull	$1931812922, 115(%rbp), %esp
10000f90a: 0a 00                       	orb	(%rax), %al
10000f90c: 2d 00 5b 25 73              	subl	$1931827968, %eax
10000f911: 5d                          	popq	%rbp
10000f912: 0a 00                       	orb	(%rax), %al
10000f914: 2d 2d 2d 2d 2d              	subl	$757935405, %eax
10000f919: 2d 2d 2d 2d 2d              	subl	$757935405, %eax
10000f91e: 2d 2d 2d 2d 2d              	subl	$757935405, %eax
10000f923: 2d 2d 2d 2d 2d              	subl	$757935405, %eax
10000f928: 2d 2d 2d 2d 2d              	subl	$757935405, %eax
10000f92d: 2d 2d 2d 2d 2d              	subl	$757935405, %eax
10000f932: 2d 2d 2d 2d 2d              	subl	$757935405, %eax
10000f937: 2d 2d 2d 2d 2d              	subl	$757935405, %eax
10000f93c: 2d 2d 2d 2d 2d              	subl	$757935405, %eax
10000f941: 2d 2d 2d 2d 2d              	subl	$757935405, %eax
10000f946: 2d 2d 00 48 4f              	subl	$1330118701, %eax
10000f94b: 4d 45                       	<unknown>
10000f94d: 00 00                       	addb	%al, (%rax)
10000f94f: 20 25 64 20 2d 2d           	andb	%ah, 757932132(%rip)
10000f955: 2d 20 25 73 20              	subl	$544417056, %eax
10000f95a: 2d 2d 2d 20 0a              	subl	$169880877, %eax
10000f95f: 00 3c 3c                    	addb	%bh, (%rsp,%rdi)
10000f962: 2d 2d 2d 2d 2d              	subl	$757935405, %eax
10000f967: 2d 2d 2d 2d 2d              	subl	$757935405, %eax
10000f96c: 2d 2d 2d 2d 2d              	subl	$757935405, %eax
10000f971: 2d 2d 2d 2d 2d              	subl	$757935405, %eax
10000f976: 2d 2d 2d 2d 2d              	subl	$757935405, %eax
10000f97b: 2d 2d 2d 2d 2d              	subl	$757935405, %eax
10000f980: 2d 2d 3e 3e 00              	subl	$4079149, %eax
10000f985: 25 73 0a 00 6d              	andl	$1828719219, %eax
10000f98a: 69 6e 69 73 68 65 6c        	imull	$1818585203, 105(%rsi), %ebp
10000f991: 6c                          	insb	%dx, %es:(%rdi)
10000f992: 3a 20                       	cmpb	(%rax), %ah
10000f994: 65 78 70                    	js	112 <__cstring+0x331>
10000f997: 6f                          	outsl	(%rsi), %dx
10000f998: 72 74                       	jb	116 <__cstring+0x338>
10000f99a: 3a 20                       	cmpb	(%rax), %ah
10000f99c: 27                          	<unknown>
10000f99d: 25 73 27 3a 20              	andl	$540682099, %eax
10000f9a2: 6e                          	outsb	(%rsi), %dx
10000f9a3: 6f                          	outsl	(%rsi), %dx
10000f9a4: 74 20                       	je	32 <__cstring+0x2f0>
10000f9a6: 61                          	<unknown>
10000f9a7: 20 76 61                    	andb	%dh, 97(%rsi)
10000f9aa: 6c                          	insb	%dx, %es:(%rdi)
10000f9ab: 69 64 20 69 64 65 6e 74     	imull	$1953391972, 105(%rax,%riz), %esp
10000f9b3: 69 66 69 65 72 0a 00        	imull	$684645, 105(%rsi), %esp
10000f9ba: 4d 61                       	<unknown>
10000f9bc: 64 65 63 6c 61 72           	movslq	%gs:114(%rcx,%riz,2), %ebp
10000f9c2: 73 68                       	jae	104 <__cstring+0x356>
10000f9c4: 20 2d 78 20 25 73           	andb	%ch, 1931812984(%rip)
10000f9ca: 0a 00                       	orb	(%rax), %al
10000f9cc: 0a e2                       	orb	%dl, %ah
10000f9ce: 95                          	xchgl	%ebp, %eax
10000f9cf: ad                          	lodsl	(%rsi), %eax
10000f9d0: e2 94                       	loop	-108
10000f9d2: 80 1b 5b                    	sbbb	$91, (%rbx)
10000f9d5: 34 33                       	xorb	$51, %al
10000f9d7: 6d                          	insl	%dx, %es:(%rdi)
10000f9d8: e2 96                       	loop	-106
10000f9da: 91                          	xchgl	%ecx, %eax
10000f9db: e2 96                       	loop	-106
10000f9dd: 92                          	xchgl	%edx, %eax
10000f9de: e2 96                       	loop	-106
10000f9e0: 93                          	xchgl	%ebx, %eax
10000f9e1: e2 96                       	loop	-106
10000f9e3: 93                          	xchgl	%ebx, %eax
10000f9e4: e2 96                       	loop	-106
10000f9e6: 93                          	xchgl	%ebx, %eax
10000f9e7: e2 96                       	loop	-106
10000f9e9: 93                          	xchgl	%ebx, %eax
10000f9ea: e2 96                       	loop	-106
10000f9ec: 93                          	xchgl	%ebx, %eax
10000f9ed: 1b 5b 34                    	sbbl	52(%rbx), %ebx
10000f9f0: 30 6d 1b                    	xorb	%ch, 27(%rbp)
10000f9f3: 5b                          	popq	%rbx
10000f9f4: 34 34                       	xorb	$52, %al
10000f9f6: 6d                          	insl	%dx, %es:(%rdi)
10000f9f7: 20 00                       	andb	%al, (%rax)
10000f9f9: 20 1b                       	andb	%bl, (%rbx)
10000f9fb: 5b                          	popq	%rbx
10000f9fc: 34 33                       	xorb	$51, %al
10000f9fe: 6d                          	insl	%dx, %es:(%rdi)
10000f9ff: 20 6d 69                    	andb	%ch, 105(%rbp)
10000fa02: 6e                          	outsb	(%rsi), %dx
10000fa03: 69 73 68 65 6c 6c 20        	imull	$543976549, 104(%rbx), %esi
10000fa0a: 1b 5b 30                    	sbbl	48(%rbx), %ebx
10000fa0d: 6d                          	insl	%dx, %es:(%rdi)
10000fa0e: e2 94                       	loop	-108
10000fa10: 80 e2 94                    	andb	$-108, %dl
10000fa13: 80 e2 94                    	andb	$-108, %dl
10000fa16: 80 e2 94                    	andb	$-108, %dl
10000fa19: 80 e2 94                    	andb	$-108, %dl
10000fa1c: 80 e2 94                    	andb	$-108, %dl
10000fa1f: 80 e2 94                    	andb	$-108, %dl
10000fa22: 80 e2 94                    	andb	$-108, %dl
10000fa25: 80 e2 94                    	andb	$-108, %dl
10000fa28: 80 e2 94                    	andb	$-108, %dl
10000fa2b: 80 e2 94                    	andb	$-108, %dl
10000fa2e: 80 e2 94                    	andb	$-108, %dl
10000fa31: 80 e2 94                    	andb	$-108, %dl
10000fa34: 80 e2 94                    	andb	$-108, %dl
10000fa37: 80 e2 94                    	andb	$-108, %dl
10000fa3a: 80 e2 94                    	andb	$-108, %dl
10000fa3d: 80 e2 94                    	andb	$-108, %dl
10000fa40: 80 e2 94                    	andb	$-108, %dl
10000fa43: 80 e2 94                    	andb	$-108, %dl
10000fa46: 80 e2 94                    	andb	$-108, %dl
10000fa49: 80 e2 94                    	andb	$-108, %dl
10000fa4c: 80 e2 94                    	andb	$-108, %dl
10000fa4f: 80 e2 94                    	andb	$-108, %dl
10000fa52: 80 e2 94                    	andb	$-108, %dl
10000fa55: 80 e2 94                    	andb	$-108, %dl
10000fa58: 80 e2 94                    	andb	$-108, %dl
10000fa5b: 80 e2 94                    	andb	$-108, %dl
10000fa5e: 80 1b 5b                    	sbbb	$91, (%rbx)
10000fa61: 34 33                       	xorb	$51, %al
10000fa63: e2 96                       	loop	-106
10000fa65: 93                          	xchgl	%ebx, %eax
10000fa66: e2 96                       	loop	-106
10000fa68: 93                          	xchgl	%ebx, %eax
10000fa69: e2 96                       	loop	-106
10000fa6b: 93                          	xchgl	%ebx, %eax
10000fa6c: e2 96                       	loop	-106
10000fa6e: 93                          	xchgl	%ebx, %eax
10000fa6f: e2 96                       	loop	-106
10000fa71: 92                          	xchgl	%edx, %eax
10000fa72: e2 96                       	loop	-106
10000fa74: 91                          	xchgl	%ecx, %eax
10000fa75: 1b 5b 30                    	sbbl	48(%rbx), %ebx
10000fa78: 6d                          	insl	%dx, %es:(%rdi)
10000fa79: e2 94                       	loop	-108
10000fa7b: 80 0a e2                    	orb	$-30, (%rdx)
10000fa7e: 95                          	xchgl	%ebp, %eax
10000fa7f: b0 e2                       	movb	$-30, %al
10000fa81: 94                          	xchgl	%esp, %eax
10000fa82: 80 20 00                    	andb	$0, (%rax)
10000fa85: 50                          	pushq	%rax
10000fa86: 41 54                       	pushq	%r12
10000fa88: 48 3d 00 3d 00 24           	cmpq	$603995392, %rax
10000fa8e: 00 71 75                    	addb	%dh, 117(%rcx)
10000fa91: 6f                          	outsl	(%rsi), %dx
10000fa92: 74 65                       	je	101 <__cstring+0x423>
10000fa94: 3e 20 00                    	andb	%al, %ds:(%rax)
10000fa97: 64 71 75                    	jno	117 <__cstring+0x439>
10000fa9a: 6f                          	outsl	(%rsi), %dx
10000fa9b: 74 65                       	je	101 <__cstring+0x42c>
10000fa9d: 3e 20 00                    	andb	%al, %ds:(%rax)
10000faa0: 75 6e                       	jne	110 <__cstring+0x43a>
10000faa2: 65 78 70                    	js	112 <__cstring+0x43f>
10000faa5: 65 63 74 65 64              	movslq	%gs:100(%rbp,%riz,2), %esi
10000faaa: 20 45 4f                    	andb	%al, 79(%rbp)
10000faad: 46 20 77 68                 	andb	%r14b, 104(%rdi)
10000fab1: 69 6c 65 20 6c 6f 6f 6b     	imull	$1802465132, 32(%rbp,%riz,2), %ebp
10000fab9: 69 6e 67 20 66 6f 72        	imull	$1919903264, 103(%rsi), %ebp
10000fac0: 20 6d 61                    	andb	%ch, 97(%rbp)
10000fac3: 74 63                       	je	99 <__cstring+0x452>
10000fac5: 68 69 6e 67 20              	pushq	$543649385
10000faca: 22 27                       	andb	(%rdi), %ah
10000facc: 00 6d 69                    	addb	%ch, 105(%rbp)
10000facf: 6e                          	outsb	(%rsi), %dx
10000fad0: 69 73 68 65 6c 6c 3a        	imull	$980184165, 104(%rbx), %esi
10000fad7: 20 73 79                    	andb	%dh, 121(%rbx)
10000fada: 6e                          	outsb	(%rsi), %dx
10000fadb: 74 61                       	je	97 <__cstring+0x468>
10000fadd: 78 20                       	js	32 <__cstring+0x429>
10000fadf: 65 72 72                    	jb	114 <__cstring+0x47e>
10000fae2: 6f                          	outsl	(%rsi), %dx
10000fae3: 72 3a                       	jb	58 <__cstring+0x449>
10000fae5: 20 75 6e                    	andb	%dh, 110(%rbp)
10000fae8: 65 78 70                    	js	112 <__cstring+0x485>
10000faeb: 65 63 74 65 64              	movslq	%gs:100(%rbp,%riz,2), %esi
10000faf0: 20 65 6e                    	andb	%ah, 110(%rbp)
10000faf3: 64 20 6f 66                 	andb	%ch, %fs:102(%rdi)
10000faf7: 20 66 69                    	andb	%ah, 105(%rsi)
10000fafa: 6c                          	insb	%dx, %es:(%rdi)
10000fafb: 65 00 0a                    	addb	%cl, %gs:(%rdx)
10000fafe: 00 5e 5e                    	addb	%bl, 94(%rsi)
10000fb01: 5e                          	popq	%rsi
10000fb02: 5e                          	popq	%rsi
10000fb03: 5e                          	popq	%rsi
10000fb04: 5e                          	popq	%rsi
10000fb05: 5e                          	popq	%rsi
10000fb06: 5e                          	popq	%rsi
10000fb07: 5e                          	popq	%rsi
10000fb08: 5e                          	popq	%rsi
10000fb09: 5e                          	popq	%rsi
10000fb0a: 5e                          	popq	%rsi
10000fb0b: 5e                          	popq	%rsi
10000fb0c: 5e                          	popq	%rsi
10000fb0d: 5e                          	popq	%rsi
10000fb0e: 70 69                       	jo	105 <__cstring+0x4a3>
10000fb10: 70 65                       	jo	101 <__cstring+0x4a1>
10000fb12: 5f                          	popq	%rdi
10000fb13: 63 6f 6e                    	movslq	110(%rdi), %ebp
10000fb16: 73 74                       	jae	116 <__cstring+0x4b6>
10000fb18: 72 75                       	jb	117 <__cstring+0x4b9>
10000fb1a: 63 74 6f 72                 	movslq	114(%rdi,%rbp,2), %esi
10000fb1e: 5f                          	popq	%rdi
10000fb1f: 63 61 6c                    	movslq	108(%rcx), %esp
10000fb22: 65 64 5e                    	popq	%rsi
10000fb25: 5e                          	popq	%rsi
10000fb26: 5e                          	popq	%rsi
10000fb27: 5e                          	popq	%rsi
10000fb28: 5e                          	popq	%rsi
10000fb29: 5e                          	popq	%rsi
10000fb2a: 5e                          	popq	%rsi
10000fb2b: 5e                          	popq	%rsi
10000fb2c: 5e                          	popq	%rsi
10000fb2d: 5e                          	popq	%rsi
10000fb2e: 5e                          	popq	%rsi
10000fb2f: 5e                          	popq	%rsi
10000fb30: 5e                          	popq	%rsi
10000fb31: 5e                          	popq	%rsi
10000fb32: 5e                          	popq	%rsi
10000fb33: 0a 00                       	orb	(%rax), %al
10000fb35: 2d 2d 2d 2d 2d              	subl	$757935405, %eax
10000fb3a: 2d 2d 2d 2d 2d              	subl	$757935405, %eax
10000fb3f: 2d 2d 2d 65 78              	subl	$2019896621, %eax
10000fb44: 65 63 63 6d                 	movslq	%gs:109(%rbx), %esp
10000fb48: 64 5f                       	popq	%rdi
10000fb4a: 63 6f 6e                    	movslq	110(%rdi), %ebp
10000fb4d: 73 74                       	jae	116 <__cstring+0x4ed>
10000fb4f: 72 75                       	jb	117 <__cstring+0x4f0>
10000fb51: 63 74 6f 72                 	movslq	114(%rdi,%rbp,2), %esi
10000fb55: 2d 2d 2d 2d 2d              	subl	$757935405, %eax
10000fb5a: 2d 2d 2d 2d 2d              	subl	$757935405, %eax
10000fb5f: 2d 2d 2d 2d 0a              	subl	$170732845, %eax
10000fb64: 00 2d 2d 2d 2d 2d           	addb	%ch, 757935405(%rip)
10000fb6a: 2d 2d 2d 2d 2d              	subl	$757935405, %eax
10000fb6f: 2d 2d 2d 72 65              	subl	$1701981485, %eax
10000fb74: 64 69 72 5f 63 6f 6e 73     	imull	$1936617315, %fs:95(%rdx), %esi
10000fb7c: 74 72                       	je	114 <__cstring+0x51a>
10000fb7e: 75 63                       	jne	99 <__cstring+0x50d>
10000fb80: 74 6f                       	je	111 <__cstring+0x51b>
10000fb82: 72 2d                       	jb	45 <__cstring+0x4db>
10000fb84: 2d 2d 2d 2d 2d              	subl	$757935405, %eax
10000fb89: 2d 2d 2d 2d 2d              	subl	$757935405, %eax
10000fb8e: 2d 2d 2d 2d 2d              	subl	$757935405, %eax
10000fb93: 0a 00                       	orb	(%rax), %al
10000fb95: 74 79                       	je	121 <__cstring+0x53a>
10000fb97: 70 65                       	jo	101 <__cstring+0x528>
10000fb99: 5b                          	popq	%rbx
10000fb9a: 25 64 5d 20 7c              	andl	$2082495844, %eax
10000fb9f: 20 66 69                    	andb	%ah, 105(%rsi)
10000fba2: 6c                          	insb	%dx, %es:(%rdi)
10000fba3: 65 6e                       	outsb	%gs:(%rsi), %dx
10000fba5: 61                          	<unknown>
10000fba6: 6d                          	insl	%dx, %es:(%rdi)
10000fba7: 65 3a 20                    	cmpb	%gs:(%rax), %ah
10000fbaa: 7c 25                       	jl	37 <__cstring+0x4fb>
10000fbac: 73 7c                       	jae	124 <__cstring+0x554>
10000fbae: 0a 00                       	orb	(%rax), %al
10000fbb0: 6d                          	insl	%dx, %es:(%rdi)
10000fbb1: 6f                          	outsl	(%rsi), %dx
10000fbb2: 64 65 20 3a                 	andb	%bh, %gs:(%rdx)
10000fbb6: 20 7c 25 64                 	andb	%bh, 100(%rbp,%riz)
10000fbba: 7c 20                       	jl	32 <__cstring+0x506>
10000fbbc: 66 64 20 3a                 	andb	%bh, %fs:(%rdx)
10000fbc0: 20 7c 25 64                 	andb	%bh, 100(%rbp,%riz)
10000fbc4: 7c 20                       	jl	32 <__cstring+0x510>
10000fbc6: 74 79                       	je	121 <__cstring+0x56b>
10000fbc8: 70 65                       	jo	101 <__cstring+0x559>
10000fbca: 20 3a                       	andb	%bh, (%rdx)
10000fbcc: 20 7c 25 64                 	andb	%bh, 100(%rbp,%riz)
10000fbd0: 7c 0a                       	jl	10 <__cstring+0x506>
10000fbd2: 00 68 61                    	addb	%ch, 97(%rax)
10000fbd5: 73 20                       	jae	32 <__cstring+0x521>
10000fbd7: 63 6d 64                    	movslq	100(%rbp), %ebp
10000fbda: 20 74 79 70                 	andb	%dh, 112(%rcx,%rdi,2)
10000fbde: 65 20 7c 25 64              	andb	%bh, %gs:100(%rbp,%riz)
10000fbe3: 7c 0a                       	jl	10 <__cstring+0x519>
10000fbe5: 00 2d 2d 2d 2d 2d           	addb	%ch, 757935405(%rip)
10000fbeb: 2d 2d 2d 2d 2d              	subl	$757935405, %eax
10000fbf0: 2d 2d 2d 2d 2d              	subl	$757935405, %eax
10000fbf5: 2d 2d 2d 2d 2d              	subl	$757935405, %eax
10000fbfa: 2d 2d 2d 2d 2d              	subl	$757935405, %eax
10000fbff: 2d 2d 2d 2d 2d              	subl	$757935405, %eax
10000fc04: 2d 2d 2d 2d 2d              	subl	$757935405, %eax
10000fc09: 2d 2d 2d 2d 2d              	subl	$757935405, %eax
10000fc0e: 2d 2d 2d 2d 2d              	subl	$757935405, %eax
10000fc13: 2d 0a 00 5e 5e              	subl	$1583218698, %eax
10000fc18: 5e                          	popq	%rsi
10000fc19: 5e                          	popq	%rsi
10000fc1a: 5e                          	popq	%rsi
10000fc1b: 5e                          	popq	%rsi
10000fc1c: 5e                          	popq	%rsi
10000fc1d: 5e                          	popq	%rsi
10000fc1e: 5e                          	popq	%rsi
10000fc1f: 5e                          	popq	%rsi
10000fc20: 5e                          	popq	%rsi
10000fc21: 5e                          	popq	%rsi
10000fc22: 5e                          	popq	%rsi
10000fc23: 5e                          	popq	%rsi
10000fc24: 5e                          	popq	%rsi
10000fc25: 61                          	<unknown>
10000fc26: 6e                          	outsb	(%rsi), %dx
10000fc27: 64 5f                       	popq	%rdi
10000fc29: 63 6f 6e                    	movslq	110(%rdi), %ebp
10000fc2c: 73 74                       	jae	116 <__cstring+0x5cc>
10000fc2e: 72 75                       	jb	117 <__cstring+0x5cf>
10000fc30: 63 74 6f 72                 	movslq	114(%rdi,%rbp,2), %esi
10000fc34: 5f                          	popq	%rdi
10000fc35: 63 61 6c                    	movslq	108(%rcx), %esp
10000fc38: 65 64 5e                    	popq	%rsi
10000fc3b: 5e                          	popq	%rsi
10000fc3c: 5e                          	popq	%rsi
10000fc3d: 5e                          	popq	%rsi
10000fc3e: 5e                          	popq	%rsi
10000fc3f: 5e                          	popq	%rsi
10000fc40: 5e                          	popq	%rsi
10000fc41: 5e                          	popq	%rsi
10000fc42: 5e                          	popq	%rsi
10000fc43: 5e                          	popq	%rsi
10000fc44: 5e                          	popq	%rsi
10000fc45: 5e                          	popq	%rsi
10000fc46: 5e                          	popq	%rsi
10000fc47: 5e                          	popq	%rsi
10000fc48: 5e                          	popq	%rsi
10000fc49: 0a 00                       	orb	(%rax), %al
10000fc4b: 5e                          	popq	%rsi
10000fc4c: 5e                          	popq	%rsi
10000fc4d: 5e                          	popq	%rsi
10000fc4e: 5e                          	popq	%rsi
10000fc4f: 5e                          	popq	%rsi
10000fc50: 5e                          	popq	%rsi
10000fc51: 5e                          	popq	%rsi
10000fc52: 5e                          	popq	%rsi
10000fc53: 5e                          	popq	%rsi
10000fc54: 5e                          	popq	%rsi
10000fc55: 5e                          	popq	%rsi
10000fc56: 5e                          	popq	%rsi
10000fc57: 5e                          	popq	%rsi
10000fc58: 5e                          	popq	%rsi
10000fc59: 5e                          	popq	%rsi
10000fc5a: 6f                          	outsl	(%rsi), %dx
10000fc5b: 72 5f                       	jb	95 <__cstring+0x5e6>
10000fc5d: 63 6f 6e                    	movslq	110(%rdi), %ebp
10000fc60: 73 74                       	jae	116 <__cstring+0x600>
10000fc62: 72 75                       	jb	117 <__cstring+0x603>
10000fc64: 63 74 6f 72                 	movslq	114(%rdi,%rbp,2), %esi
10000fc68: 5f                          	popq	%rdi
10000fc69: 63 61 6c                    	movslq	108(%rcx), %esp
10000fc6c: 65 64 5e                    	popq	%rsi
10000fc6f: 5e                          	popq	%rsi
10000fc70: 5e                          	popq	%rsi
10000fc71: 5e                          	popq	%rsi
10000fc72: 5e                          	popq	%rsi
10000fc73: 5e                          	popq	%rsi
10000fc74: 5e                          	popq	%rsi
10000fc75: 5e                          	popq	%rsi
10000fc76: 5e                          	popq	%rsi
10000fc77: 5e                          	popq	%rsi
10000fc78: 5e                          	popq	%rsi
10000fc79: 5e                          	popq	%rsi
10000fc7a: 5e                          	popq	%rsi
10000fc7b: 5e                          	popq	%rsi
10000fc7c: 5e                          	popq	%rsi
10000fc7d: 0a 00                       	orb	(%rax), %al
10000fc7f: 2d 2d 2d 2d 2d              	subl	$757935405, %eax
10000fc84: 2d 2d 2d 2d 2d              	subl	$757935405, %eax
10000fc89: 2d 2d 2d 69 6e              	subl	$1852386605, %eax
10000fc8e: 76 61                       	jbe	97 <__cstring+0x61b>
10000fc90: 6c                          	insb	%dx, %es:(%rdi)
10000fc91: 69 64 5f 63 6f 6e 73 74     	imull	$1953721967, 99(%rdi,%rbx,2), %esp
10000fc99: 72 75                       	jb	117 <__cstring+0x63a>
10000fc9b: 63 74 6f 72                 	movslq	114(%rdi,%rbp,2), %esi
10000fc9f: 2d 2d 2d 2d 2d              	subl	$757935405, %eax
10000fca4: 2d 2d 2d 2d 2d              	subl	$757935405, %eax
10000fca9: 2d 2d 2d 2d 0a              	subl	$170732845, %eax
10000fcae: 00 66 69                    	addb	%ah, 105(%rsi)
10000fcb1: 6c                          	insb	%dx, %es:(%rdi)
10000fcb2: 65 6e                       	outsb	%gs:(%rsi), %dx
10000fcb4: 61                          	<unknown>
10000fcb5: 6d                          	insl	%dx, %es:(%rdi)
10000fcb6: 65 3a 20                    	cmpb	%gs:(%rax), %ah
10000fcb9: 7c 25                       	jl	37 <__cstring+0x60a>
10000fcbb: 73 7c                       	jae	124 <__cstring+0x663>
10000fcbd: 0a 00                       	orb	(%rax), %al
10000fcbf: 2d 2d 2d 2d 2d              	subl	$757935405, %eax
10000fcc4: 2d 2d 2d 2d 2d              	subl	$757935405, %eax
10000fcc9: 2d 2d 2d 62 75              	subl	$1969368365, %eax
10000fcce: 69 6c 74 69 6e 5f 63 6f     	imull	$1868783470, 105(%rsp,%rsi,2), %ebp
10000fcd6: 6e                          	outsb	(%rsi), %dx
10000fcd7: 73 74                       	jae	116 <__cstring+0x677>
10000fcd9: 72 75                       	jb	117 <__cstring+0x67a>
10000fcdb: 63 74 6f 72                 	movslq	114(%rdi,%rbp,2), %esi
10000fcdf: 2d 2d 2d 2d 2d              	subl	$757935405, %eax
10000fce4: 2d 2d 2d 2d 2d              	subl	$757935405, %eax
10000fce9: 2d 2d 2d 2d 0a              	subl	$170732845, %eax
10000fcee: 00 62 75                    	addb	%ah, 117(%rdx)
10000fcf1: 69 6c 74 69 6e 3a 20 7c     	imull	$2082486894, 105(%rsp,%rsi,2), %ebp
10000fcf9: 25 73 7c 0a 00              	andl	$687219, %eax
10000fcfe: 65 63 68 6f                 	movslq	%gs:111(%rax), %ebp
10000fd02: 20 68 61                    	andb	%ch, 97(%rax)
10000fd05: 73 20                       	jae	32 <__cstring+0x651>
10000fd07: 6f                          	outsl	(%rsi), %dx
10000fd08: 70 74                       	jo	116 <__cstring+0x6a8>
10000fd0a: 69 6f 6e 20 2d 6e 20        	imull	$544091424, 110(%rdi), %ebp
10000fd11: 0a 00                       	orb	(%rax), %al
10000fd13: 2d 2d 2d 2d 2d              	subl	$757935405, %eax
10000fd18: 2d 2d 2d 2d 2d              	subl	$757935405, %eax
10000fd1d: 2d 2d 61 73 73              	subl	$1936941357, %eax
10000fd22: 69 67 6e 65 6d 65 6e        	imull	$1852140901, 110(%rdi), %esp
10000fd29: 74 5f                       	je	95 <__cstring+0x6b4>
10000fd2b: 63 6f 6e                    	movslq	110(%rdi), %ebp
10000fd2e: 73 74                       	jae	116 <__cstring+0x6ce>
10000fd30: 72 75                       	jb	117 <__cstring+0x6d1>
10000fd32: 63 74 6f 72                 	movslq	114(%rdi,%rbp,2), %esi
10000fd36: 2d 2d 2d 2d 2d              	subl	$757935405, %eax
10000fd3b: 2d 2d 2d 2d 2d              	subl	$757935405, %eax
10000fd40: 2d 2d 0a 00 6b              	subl	$1795164717, %eax
10000fd45: 65 79 20                    	jns	32 <__cstring+0x692>
10000fd48: 3a 20                       	cmpb	(%rax), %ah
10000fd4a: 7c 25                       	jl	37 <__cstring+0x69b>
10000fd4c: 73 7c                       	jae	124 <__cstring+0x6f4>
10000fd4e: 0a 00                       	orb	(%rax), %al
10000fd50: 76 61                       	jbe	97 <__cstring+0x6dd>
10000fd52: 6c                          	insb	%dx, %es:(%rdi)
10000fd53: 75 65                       	jne	101 <__cstring+0x6e4>
10000fd55: 20 3a                       	andb	%bh, (%rdx)
10000fd57: 20 7c 25 73                 	andb	%bh, 115(%rbp,%riz)
10000fd5b: 7c 0a                       	jl	10 <__cstring+0x691>
10000fd5d: 00 20                       	addb	%ah, (%rax)
10000fd5f: 74 79                       	je	121 <__cstring+0x704>
10000fd61: 70 65                       	jo	101 <__cstring+0x6f2>
10000fd63: 20 3d 20 25 64 20           	andb	%bh, 543434016(%rip)
10000fd69: 2d 2d 2d 20 25              	subl	$622865709, %eax
10000fd6e: 73 20                       	jae	32 <__cstring+0x6ba>
10000fd70: 2d 2d 2d 0a 00              	subl	$666925, %eax
10000fd75: 68 65 72 65 64              	pushq	$1684370021
10000fd7a: 6f                          	outsl	(%rsi), %dx
10000fd7b: 63 3e                       	movslq	(%rsi), %edi
10000fd7d: 20 00                       	andb	%al, (%rax)
10000fd7f: 6d                          	insl	%dx, %es:(%rdi)
10000fd80: 69 6e 69 73 68 65 6c        	imull	$1818585203, 105(%rsi), %ebp
10000fd87: 6c                          	insb	%dx, %es:(%rdi)
10000fd88: 3a 20                       	cmpb	(%rax), %ah
10000fd8a: 73 79                       	jae	121 <__cstring+0x72f>
10000fd8c: 6e                          	outsb	(%rsi), %dx
10000fd8d: 74 61                       	je	97 <__cstring+0x71a>
10000fd8f: 78 20                       	js	32 <__cstring+0x6db>
10000fd91: 65 72 72                    	jb	114 <__cstring+0x730>
10000fd94: 6f                          	outsl	(%rsi), %dx
10000fd95: 72 20                       	jb	32 <__cstring+0x6e1>
10000fd97: 6e                          	outsb	(%rsi), %dx
10000fd98: 65 61                       	<unknown>
10000fd9a: 72 20                       	jb	32 <__cstring+0x6e6>
10000fd9c: 75 6e                       	jne	110 <__cstring+0x736>
10000fd9e: 65 78 70                    	js	112 <__cstring+0x73b>
10000fda1: 65 63 74 65 64              	movslq	%gs:100(%rbp,%riz,2), %esi
10000fda6: 20 74 6f 6b                 	andb	%dh, 107(%rdi,%rbp,2)
10000fdaa: 65 6e                       	outsb	%gs:(%rsi), %dx
10000fdac: 20 3a                       	andb	%bh, (%rdx)
10000fdae: 20 00                       	andb	%al, (%rax)
10000fdb0: 2d 2d 2d 2d 2d              	subl	$757935405, %eax
10000fdb5: 2d 2d 2d 2d 2d              	subl	$757935405, %eax
10000fdba: 2d 2d 2d 2d 2d              	subl	$757935405, %eax
10000fdbf: 2d 2d 2d 2d 2d              	subl	$757935405, %eax
10000fdc4: 61                          	<unknown>
10000fdc5: 72 67                       	jb	103 <__cstring+0x758>
10000fdc7: 75 6d                       	jne	109 <__cstring+0x760>
10000fdc9: 65 6e                       	outsb	%gs:(%rsi), %dx
10000fdcb: 74 73                       	je	115 <__cstring+0x76a>
10000fdcd: 5f                          	popq	%rdi
10000fdce: 53                          	pushq	%rbx
10000fdcf: 54                          	pushq	%rsp
10000fdd0: 41 52                       	pushq	%r10
10000fdd2: 54                          	pushq	%rsp
10000fdd3: 2d 2d 2d 2d 2d              	subl	$757935405, %eax
10000fdd8: 2d 2d 2d 2d 2d              	subl	$757935405, %eax
10000fddd: 2d 2d 2d 2d 2d              	subl	$757935405, %eax
10000fde2: 2d 2d 2d 2d 2d              	subl	$757935405, %eax
10000fde7: 2d 2d 2d 2d 2d              	subl	$757935405, %eax
10000fdec: 0a 00                       	orb	(%rax), %al
10000fdee: 25 64 5b 25 73              	andl	$1931828068, %eax
10000fdf3: 5d                          	popq	%rbp
10000fdf4: 0a 00                       	orb	(%rax), %al
10000fdf6: 25 64 5d 25 73              	andl	$1931828580, %eax
10000fdfb: 5b                          	popq	%rbx
10000fdfc: 0a 00                       	orb	(%rax), %al
10000fdfe: 2d 2d 2d 2d 2d              	subl	$757935405, %eax
10000fe03: 2d 2d 2d 2d 2d              	subl	$757935405, %eax
10000fe08: 2d 2d 2d 2d 2d              	subl	$757935405, %eax
10000fe0d: 2d 2d 2d 2d 2d              	subl	$757935405, %eax
10000fe12: 61                          	<unknown>
10000fe13: 72 67                       	jb	103 <__cstring+0x7a6>
10000fe15: 75 6d                       	jne	109 <__cstring+0x7ae>
10000fe17: 65 6e                       	outsb	%gs:(%rsi), %dx
10000fe19: 74 73                       	je	115 <__cstring+0x7b8>
10000fe1b: 5f                          	popq	%rdi
10000fe1c: 45 4e                       	<unknown>
10000fe1e: 44 2d 2d 2d 2d 2d           	subl	$757935405, %eax
10000fe24: 2d 2d 2d 2d 2d              	subl	$757935405, %eax
10000fe29: 2d 2d 2d 2d 2d              	subl	$757935405, %eax
10000fe2e: 2d 2d 2d 2d 2d              	subl	$757935405, %eax
10000fe33: 2d 2d 2d 2d 2d              	subl	$757935405, %eax
10000fe38: 2d 2d 2d 0a 00              	subl	$666925, %eax
10000fe3d: 2d 2d 2d 2d 2d              	subl	$757935405, %eax
10000fe42: 2d 2d 2d 2d 63              	subl	$1663905069, %eax
10000fe47: 6d                          	insl	%dx, %es:(%rdi)
10000fe48: 64 2d 2d 2d 2d 2d           	subl	$757935405, %eax
10000fe4e: 2d 2d 2d 2d 2d              	subl	$757935405, %eax
10000fe53: 0a 00                       	orb	(%rax), %al
10000fe55: 2d 2d 2d 2d 2d              	subl	$757935405, %eax
10000fe5a: 2d 2d 2d 2d 2d              	subl	$757935405, %eax
10000fe5f: 2d 2d 2d 2d 2d              	subl	$757935405, %eax
10000fe64: 2d 2d 2d 2d 2d              	subl	$757935405, %eax
10000fe69: 2d 2d 2d 2d 2d              	subl	$757935405, %eax
10000fe6e: 2d 0a 00 2d 2d              	subl	$757923850, %eax
10000fe73: 2d 2d 2d 2d 2d              	subl	$757935405, %eax
10000fe78: 2d 2d 6f 70 74              	subl	$1953525549, %eax
10000fe7d: 69 6f 6e 73 2d 2d 2d        	imull	$757935475, 110(%rdi), %ebp
10000fe84: 2d 2d 2d 2d 2d              	subl	$757935405, %eax
10000fe89: 2d 2d 0a 00 25              	subl	$620759597, %eax
10000fe8e: 70 0a                       	jo	10 <__cstring+0x7c4>
10000fe90: 00 70 77                    	addb	%dh, 119(%rax)
10000fe93: 64 00 75 6e                 	addb	%dh, %fs:110(%rbp)
10000fe97: 73 65                       	jae	101 <__cstring+0x828>
10000fe99: 74 00                       	je	0 <__cstring+0x7c5>
10000fe9b: 65 6e                       	outsb	%gs:(%rsi), %dx
10000fe9d: 76 00                       	jbe	0 <__cstring+0x7c9>
10000fe9f: 65 78 70                    	js	112 <__cstring+0x83c>
10000fea2: 6f                          	outsl	(%rsi), %dx
10000fea3: 72 74                       	jb	116 <__cstring+0x843>
10000fea5: 00 65 63                    	addb	%ah, 99(%rbp)
10000fea8: 68 6f 00 63 64              	pushq	$1684209775
10000fead: 00 61 6c                    	addb	%ah, 108(%rcx)
10000feb0: 6c                          	insb	%dx, %es:(%rdi)
10000feb1: 6f                          	outsl	(%rsi), %dx
10000feb2: 00 6d 69                    	addb	%ch, 105(%rbp)
10000feb5: 6e                          	outsb	(%rsi), %dx
10000feb6: 69 73 68 65 6c 6c 20        	imull	$543976549, 104(%rbx), %esi
10000febd: 3a 20                       	cmpb	(%rax), %ah
10000febf: 73 79                       	jae	121 <__cstring+0x864>
10000fec1: 6e                          	outsb	(%rsi), %dx
10000fec2: 74 61                       	je	97 <__cstring+0x84f>
10000fec4: 78 20                       	js	32 <__cstring+0x810>
10000fec6: 65 72 72                    	jb	114 <__cstring+0x865>
10000fec9: 6f                          	outsl	(%rsi), %dx
10000feca: 72 20                       	jb	32 <__cstring+0x816>
10000fecc: 6e                          	outsb	(%rsi), %dx
10000fecd: 65 61                       	<unknown>
10000fecf: 72 20                       	jb	32 <__cstring+0x81b>
10000fed1: 75 6e                       	jne	110 <__cstring+0x86b>
10000fed3: 65 78 70                    	js	112 <__cstring+0x870>
10000fed6: 65 63 74 65 64              	movslq	%gs:100(%rbp,%riz,2), %esi
10000fedb: 20 74 6f 6b                 	andb	%dh, 107(%rdi,%rbp,2)
10000fedf: 65 6e                       	outsb	%gs:(%rsi), %dx
10000fee1: 0a 00                       	orb	(%rax), %al
10000fee3: 6d                          	insl	%dx, %es:(%rdi)
10000fee4: 69 6e 69 73 68 65 6c        	imull	$1818585203, 105(%rsi), %ebp
10000feeb: 6c                          	insb	%dx, %es:(%rdi)
10000feec: 3a 20                       	cmpb	(%rax), %ah
10000feee: 63 6f 6d                    	movslq	109(%rdi), %ebp
10000fef1: 6d                          	insl	%dx, %es:(%rdi)
10000fef2: 61                          	<unknown>
10000fef3: 6e                          	outsb	(%rsi), %dx
10000fef4: 64 20 6e 6f                 	andb	%ch, %fs:111(%rsi)
10000fef8: 74 20                       	je	32 <__cstring+0x844>
10000fefa: 66 6f                       	outsw	(%rsi), %dx
10000fefc: 75 6e                       	jne	110 <__cstring+0x896>
10000fefe: 64 3a 20                    	cmpb	%fs:(%rax), %ah
10000ff01: 00 66 6f                    	addb	%ah, 111(%rsi)
10000ff04: 72 6b                       	jb	107 <__cstring+0x89b>
10000ff06: 20 66 61                    	andb	%ah, 97(%rsi)
10000ff09: 69 6c 65 64 00 6e 65 77     	imull	$2003136000, 100(%rbp,%riz,2), %ebp
10000ff11: 5f                          	popq	%rdi
10000ff12: 70 69                       	jo	105 <__cstring+0x8a7>
10000ff14: 64 20 3a                    	andb	%bh, %fs:(%rdx)
10000ff17: 20 25 64 0a 00 25           	andb	%ah, 620759652(%rip)
10000ff1d: 64 74 68                    	je	104 <__cstring+0x8b2>
10000ff20: 2d 63 6d 64 20              	subl	$543452515, %eax
10000ff25: 70 69                       	jo	105 <__cstring+0x8ba>
10000ff27: 64 20 5b 25                 	andb	%bl, %fs:37(%rbx)
10000ff2b: 64 5d                       	popq	%rbp
10000ff2d: 0a 00                       	orb	(%rax), %al
10000ff2f: 77 61                       	ja	97 <__cstring+0x8bc>
10000ff31: 69 74 70 69 64 20 66 61     	imull	$1634082916, 105(%rax,%rsi,2), %esi
10000ff39: 69 6c 65 64 00 68 61 73     	imull	$1935763456, 100(%rbp,%riz,2), %ebp
10000ff41: 20 62 65                    	andb	%ah, 101(%rdx)
10000ff44: 65 6e                       	outsb	%gs:(%rsi), %dx
10000ff46: 20 77 61                    	andb	%dh, 97(%rdi)
10000ff49: 69 74 65 64 20 73 75 63     	imull	$1668641568, 100(%rbp,%riz,2), %esi
10000ff51: 63 65 73                    	movslq	115(%rbp), %esp
10000ff54: 73 66                       	jae	102 <dyld_stub_binder+0x10000ffbc>
10000ff56: 75 6c                       	jne	108 <dyld_stub_binder+0x10000ffc4>
10000ff58: 6c                          	insb	%dx, %es:(%rdi)
10000ff59: 79 0a                       	jns	10 <__cstring+0x88f>
10000ff5b: 0a 00                       	orb	(%rax), %al
10000ff5d: 6d                          	insl	%dx, %es:(%rdi)
10000ff5e: 69 6e 69 73 68 65 6c        	imull	$1818585203, 105(%rsi), %ebp
10000ff65: 6c                          	insb	%dx, %es:(%rdi)
10000ff66: 3a 20                       	cmpb	(%rax), %ah
10000ff68: 61                          	<unknown>
10000ff69: 6d                          	insl	%dx, %es:(%rdi)
10000ff6a: 62                          	<unknown>
10000ff6b: 69 67 75 6f 75 73 20        	imull	$544437615, 117(%rdi), %esp
10000ff72: 72 65                       	jb	101 <dyld_stub_binder+0x10000ffd9>
10000ff74: 64 69 72 65 63 74 00 2f     	imull	$788558947, %fs:101(%rdx), %esi
10000ff7c: 74 6d                       	je	109 <dyld_stub_binder+0x10000ffeb>
10000ff7e: 70 2f                       	jo	47 <__cstring+0x8d9>
10000ff80: 2e 68 65 72 65 64           	pushq	$1684370021
10000ff86: 6f                          	outsl	(%rsi), %dx
10000ff87: 63 00                       	movslq	(%rax), %eax
10000ff89: 6d                          	insl	%dx, %es:(%rdi)
10000ff8a: 69 6e 69 73 68 65 6c        	imull	$1818585203, 105(%rsi), %ebp
10000ff91: 6c                          	insb	%dx, %es:(%rdi)
10000ff92: 3a 20                       	cmpb	(%rax), %ah
10000ff94: 6e                          	outsb	(%rsi), %dx
10000ff95: 6f                          	outsl	(%rsi), %dx
10000ff96: 20 73 75                    	andb	%dh, 117(%rbx)
10000ff99: 63 68 20                    	movslq	32(%rax), %ebp
10000ff9c: 66 69 6c 65 20 6f 72        	imulw	$29295, 32(%rbp,%riz,2), %bp
10000ffa3: 20 64 69 72                 	andb	%ah, 114(%rcx,%rbp,2)
10000ffa7: 65 63 74 6f 72              	movslq	%gs:114(%rdi,%rbp,2), %esi
10000ffac: 79 3a                       	jns	58 <dyld_stub_binder+0x10000ffe8>
10000ffae: 20 00                       	andb	%al, (%rax)

Disassembly of section __TEXT,__unwind_info:

000000010000ffb0 __unwind_info:
10000ffb0: 01 00                       	addl	%eax, (%rax)
10000ffb2: 00 00                       	addb	%al, (%rax)
10000ffb4: 1c 00                       	sbbb	$0, %al
10000ffb6: 00 00                       	addb	%al, (%rax)
10000ffb8: 00 00                       	addb	%al, (%rax)
10000ffba: 00 00                       	addb	%al, (%rax)
10000ffbc: 1c 00                       	sbbb	$0, %al
10000ffbe: 00 00                       	addb	%al, (%rax)
10000ffc0: 00 00                       	addb	%al, (%rax)
10000ffc2: 00 00                       	addb	%al, (%rax)
10000ffc4: 1c 00                       	sbbb	$0, %al
10000ffc6: 00 00                       	addb	%al, (%rax)
10000ffc8: 02 00                       	addb	(%rax), %al
10000ffca: 00 00                       	addb	%al, (%rax)
10000ffcc: 80 39 00                    	cmpb	$0, (%rcx)
10000ffcf: 00 34 00                    	addb	%dh, (%rax,%rax)
10000ffd2: 00 00                       	addb	%al, (%rax)
10000ffd4: 34 00                       	xorb	$0, %al
10000ffd6: 00 00                       	addb	%al, (%rax)
10000ffd8: d4                          	<unknown>
10000ffd9: f4                          	hlt
10000ffda: 00 00                       	addb	%al, (%rax)
10000ffdc: 00 00                       	addb	%al, (%rax)
10000ffde: 00 00                       	addb	%al, (%rax)
10000ffe0: 34 00                       	xorb	$0, %al
10000ffe2: 00 00                       	addb	%al, (%rax)
10000ffe4: 03 00                       	addl	(%rax), %eax
10000ffe6: 00 00                       	addb	%al, (%rax)
10000ffe8: 0c 00                       	orb	$0, %al
10000ffea: 01 00                       	addl	%eax, (%rax)
10000ffec: 10 00                       	adcb	%al, (%rax)
10000ffee: 01 00                       	addl	%eax, (%rax)
10000fff0: 00 00                       	addb	%al, (%rax)
10000fff2: 00 00                       	addb	%al, (%rax)
10000fff4: 00 00                       	addb	%al, (%rax)
10000fff6: 00 01                       	addb	%al, (%rcx)

Disassembly of section __DATA_CONST,__got:

0000000100010000 __got:
		...

Disassembly of section __DATA,__la_symbol_ptr:

0000000100014000 __la_symbol_ptr:
100014000: b4 f5                       	movb	$-11, %ah
100014002: 00 00                       	addb	%al, (%rax)
100014004: 01 00                       	addl	%eax, (%rax)
100014006: 00 00                       	addb	%al, (%rax)
100014008: be f5 00 00 01              	movl	$16777461, %esi
10001400d: 00 00                       	addb	%al, (%rax)
10001400f: 00 c8                       	addb	%cl, %al
100014011: f5                          	cmc
100014012: 00 00                       	addb	%al, (%rax)
100014014: 01 00                       	addl	%eax, (%rax)
100014016: 00 00                       	addb	%al, (%rax)
100014018: a0 f5 00 00 01 00 00 00 d2  	movabsb	-3314649325727907595, %al
100014021: f5                          	cmc
100014022: 00 00                       	addb	%al, (%rax)
100014024: 01 00                       	addl	%eax, (%rax)
100014026: 00 00                       	addb	%al, (%rax)
100014028: dc f5                       	fdiv	%st, %st(5)
10001402a: 00 00                       	addb	%al, (%rax)
10001402c: 01 00                       	addl	%eax, (%rax)
10001402e: 00 00                       	addb	%al, (%rax)
100014030: e6 f5                       	outb	%al, $245
100014032: 00 00                       	addb	%al, (%rax)
100014034: 01 00                       	addl	%eax, (%rax)
100014036: 00 00                       	addb	%al, (%rax)
100014038: f0                          	lock
100014039: f5                          	cmc
10001403a: 00 00                       	addb	%al, (%rax)
10001403c: 01 00                       	addl	%eax, (%rax)
10001403e: 00 00                       	addb	%al, (%rax)
100014040: fa                          	cli
100014041: f5                          	cmc
100014042: 00 00                       	addb	%al, (%rax)
100014044: 01 00                       	addl	%eax, (%rax)
100014046: 00 00                       	addb	%al, (%rax)
100014048: 04 f6                       	addb	$-10, %al
10001404a: 00 00                       	addb	%al, (%rax)
10001404c: 01 00                       	addl	%eax, (%rax)
10001404e: 00 00                       	addb	%al, (%rax)
100014050: 0e                          	<unknown>
100014051: f6 00 00                    	testb	$0, (%rax)
100014054: 01 00                       	addl	%eax, (%rax)
100014056: 00 00                       	addb	%al, (%rax)
100014058: 18 f6                       	sbbb	%dh, %dh
10001405a: 00 00                       	addb	%al, (%rax)
10001405c: 01 00                       	addl	%eax, (%rax)
10001405e: 00 00                       	addb	%al, (%rax)
100014060: 22 f6                       	andb	%dh, %dh
100014062: 00 00                       	addb	%al, (%rax)
100014064: 01 00                       	addl	%eax, (%rax)
100014066: 00 00                       	addb	%al, (%rax)
100014068: 2c f6                       	subb	$-10, %al
10001406a: 00 00                       	addb	%al, (%rax)
10001406c: 01 00                       	addl	%eax, (%rax)
10001406e: 00 00                       	addb	%al, (%rax)
100014070: 36 f6 00 00                 	testb	$0, %ss:(%rax)
100014074: 01 00                       	addl	%eax, (%rax)
100014076: 00 00                       	addb	%al, (%rax)
100014078: 40 f6 00 00                 	testb	$0, (%rax)
10001407c: 01 00                       	addl	%eax, (%rax)
10001407e: 00 00                       	addb	%al, (%rax)
100014080: 4a f6 00 00                 	testb	$0, (%rax)
100014084: 01 00                       	addl	%eax, (%rax)
100014086: 00 00                       	addb	%al, (%rax)
100014088: 54                          	pushq	%rsp
100014089: f6 00 00                    	testb	$0, (%rax)
10001408c: 01 00                       	addl	%eax, (%rax)
10001408e: 00 00                       	addb	%al, (%rax)
100014090: 5e                          	popq	%rsi
100014091: f6 00 00                    	testb	$0, (%rax)
100014094: 01 00                       	addl	%eax, (%rax)
100014096: 00 00                       	addb	%al, (%rax)
100014098: 68 f6 00 00 01              	pushq	$16777462
10001409d: 00 00                       	addb	%al, (%rax)
10001409f: 00 72 f6                    	addb	%dh, -10(%rdx)
1000140a2: 00 00                       	addb	%al, (%rax)
1000140a4: 01 00                       	addl	%eax, (%rax)
1000140a6: 00 00                       	addb	%al, (%rax)
1000140a8: 7c f6                       	jl	-10 <__la_symbol_ptr+0xa0>
1000140aa: 00 00                       	addb	%al, (%rax)
1000140ac: 01 00                       	addl	%eax, (%rax)
1000140ae: 00 00                       	addb	%al, (%rax)
1000140b0: 86 f6                       	xchgb	%dh, %dh
1000140b2: 00 00                       	addb	%al, (%rax)
1000140b4: 01 00                       	addl	%eax, (%rax)
1000140b6: 00 00                       	addb	%al, (%rax)
1000140b8: 90                          	nop
1000140b9: f6 00 00                    	testb	$0, (%rax)
1000140bc: 01 00                       	addl	%eax, (%rax)
1000140be: 00 00                       	addb	%al, (%rax)
1000140c0: aa                          	stosb	%al, %es:(%rdi)
1000140c1: f5                          	cmc
1000140c2: 00 00                       	addb	%al, (%rax)
1000140c4: 01 00                       	addl	%eax, (%rax)
1000140c6: 00 00                       	addb	%al, (%rax)
1000140c8: 9a                          	<unknown>
1000140c9: f6 00 00                    	testb	$0, (%rax)
1000140cc: 01 00                       	addl	%eax, (%rax)
1000140ce: 00 00                       	addb	%al, (%rax)
1000140d0: a4                          	movsb	(%rsi), %es:(%rdi)
1000140d1: f6 00 00                    	testb	$0, (%rax)
1000140d4: 01 00                       	addl	%eax, (%rax)
1000140d6: 00 00                       	addb	%al, (%rax)
1000140d8: ae                          	scasb	%es:(%rdi), %al
1000140d9: f6 00 00                    	testb	$0, (%rax)
1000140dc: 01 00                       	addl	%eax, (%rax)
1000140de: 00 00                       	addb	%al, (%rax)
1000140e0: b8 f6 00 00 01              	movl	$16777462, %eax
1000140e5: 00 00                       	addb	%al, (%rax)
1000140e7: 00 c2                       	addb	%al, %dl
1000140e9: f6 00 00                    	testb	$0, (%rax)
1000140ec: 01 00                       	addl	%eax, (%rax)
1000140ee: 00 00                       	addb	%al, (%rax)
1000140f0: cc                          	int3
1000140f1: f6 00 00                    	testb	$0, (%rax)
1000140f4: 01 00                       	addl	%eax, (%rax)
1000140f6: 00 00                       	addb	%al, (%rax)

Disassembly of section __DATA,__data:

00000001000140f8 __dyld_private:
		...

Disassembly of section __DATA,__bss:

0000000100014100 _set__get_option_variables.path:
...

0000000100014108 _set__get_option_variables.envs:
...

0000000100014110 _set__get_option_variables.home_dir:
...

0000000100014118 _set__get_option_variables.pwd:
...

0000000100014120 _cmd_executer.call:
...

0000000100014128 _pipe_executer.list:
...

0000000100014130 _still_args.is_dquote:
...

0000000100014134 _no_space_break_loop.is_dquote:
...
